(ihardBrainTrial
HardBrainTrial
p0
(dp1
S'ball_loc'
p2
(F4.97401
F4.02626
tp3
sS'robot_loc'
p4
(F4.650889426032687
F5.721449139259439
tp5
sS'hammerMotors'
p6
(dp7
S'25k_limitCandActs_errThresh95/'
p8
(lp9
(lp10
F0.45087113976478577
aF0.8063587546348572
aa(lp11
F0.4480030834674835
aF0.804715096950531
aa(lp12
F0.4453718662261963
aF0.8034294247627258
aa(lp13
F0.4437108635902405
aF0.8021728992462158
aa(lp14
F0.4408658444881439
aF0.8004364967346191
aa(lp15
F0.4380417466163635
aF0.7986748814582825
aa(lp16
F0.4354495108127594
aF0.7973114848136902
aa(lp17
F0.36011171340942383
aF0.4839450716972351
aa(lp18
F0.36057084798812866
aF0.4850364029407501
aa(lp19
F0.36063769459724426
aF0.48603561520576477
aa(lp20
F0.3353896737098694
aF0.788361668586731
aa(lp21
F0.3326418399810791
aF0.7880799174308777
aa(lp22
F0.32976648211479187
aF0.7879341244697571
aa(lp23
F0.3270401954650879
aF0.7877406477928162
aa(lp24
F0.5388668179512024
aF0.23230311274528503
aa(lp25
F0.536188542842865
aF0.23303674161434174
aa(lp26
F0.5334442257881165
aF0.23370617628097534
aa(lp27
F0.5311620235443115
aF0.23406313359737396
aa(lp28
F0.5292237401008606
aF0.234580397605896
aa(lp29
F0.5263543725013733
aF0.2350706309080124
aa(lp30
F0.5239880084991455
aF0.23527510464191437
aa(lp31
F0.5219914317131042
aF0.23565751314163208
aa(lp32
F0.20115967988967898
aF1.0923684120178223
aa(lp33
F0.29771536588668823
aF0.7936825752258301
aa(lp34
F0.8192128539085388
aF0.8858714699745178
aa(lp35
F0.8173289895057678
aF0.8847414255142212
aa(lp36
F0.8144375085830688
aF0.883137583732605
aa(lp37
F0.8115109205245972
aF0.8815144896507263
aa(lp38
F0.8090198040008545
aF0.8802216053009033
aa(lp39
F0.8070549964904785
aF0.8790434002876282
aa(lp40
F0.7724106311798096
aF0.339244544506073
aa(lp41
F0.7671550512313843
aF0.34237241744995117
aa(lp42
F0.7627793550491333
aF0.3444705903530121
aa(lp43
F0.7591147422790527
aF0.3470897972583771
aa(lp44
F0.8536506652832032
aF0.05025143623352052
aa(lp45
F0.749573826789856
aF0.35177314281463623
aa(lp46
F0.6474872469902039
aF0.6527734279632569
aasS'25k'
p47
(lp48
(lp49
F0.14062604308128357
aF0.2825794517993927
aa(lp50
F0.14124611020088196
aF0.2840147912502289
aa(lp51
F0.14162424206733704
aF0.2850063145160675
aa(lp52
F0.1421719193458557
aF0.2862986624240875
aa(lp53
F0.8147174715995789
aF0.7129828929901123
aa(lp54
F0.8139995336532593
aF0.7123003005981445
aa(lp55
F0.8135289549827576
aF0.7116735577583313
aa(lp56
F0.812924861907959
aF0.7111822962760925
aa(lp57
F0.8122157454490662
aF0.7103771567344666
aa(lp58
F0.8117471933364868
aF0.7096666693687439
aa(lp59
F0.8111729025840759
aF0.70908522605896
aa(lp60
F0.8104974627494812
aF0.7081712484359741
aa(lp61
F0.8098424077033997
aF0.7072181105613708
aa(lp62
F0.8094074130058289
aF0.7064110636711121
aa(lp63
F0.808906614780426
aF0.705720841884613
aa(lp64
F0.5205056071281433
aF0.26260921359062195
aa(lp65
F0.5161274671554565
aF0.25968316197395325
aa(lp66
F0.5125171542167664
aF0.2576001286506653
aa(lp67
F0.5092591643333435
aF0.25522634387016296
aa(lp68
F0.5045007467269897
aF0.2522159218788147
aa(lp69
F0.5006303787231445
aF0.25006628036499023
aa(lp70
F0.49713245034217834
aF0.24765227735042572
aa(lp71
F0.39209031462669375
aF0.5445844411849976
aa(lp72
F0.8226593732833862
aF0.26420027017593384
aa(lp73
F0.8190011978149414
aF0.2657611072063446
aa(lp74
F0.5248826146125793
aF0.30769574642181396
aa(lp75
F0.7547624111175537
aF0.8637182116508484
aa(lp76
F0.7497721910476685
aF0.86160808801651
aa(lp77
F0.7459444403648376
aF0.8599235415458679
aa(lp78
F0.742161214351654
aF0.8583915829658508
aa(lp79
F0.737004280090332
aF0.8562127947807312
aa(lp80
F0.5510621070861816
aF0.7996277809143066
aa(lp81
F0.5456938743591309
aF0.7984870076179504
aa(lp82
F0.5403385758399963
aF0.7970357537269592
aa(lp83
F0.6331688523292541
aF0.49529404640197755
aa(lp84
F0.5284621119499207
aF0.7943581938743591
aa(lp85
F0.4251654386520386
aF1.0935029864311219
aasS'50k'
p86
(lp87
(lp88
F0.4588406980037689
aF0.16830281913280487
aa(lp89
F0.3378916084766388
aF0.5358614921569824
aa(lp90
F0.33462777733802795
aF0.5345526933670044
aa(lp91
F0.3315802216529846
aF0.5335743427276611
aa(lp92
F0.3271881639957428
aF0.5320760607719421
aa(lp93
F0.3226630687713623
aF0.5306024551391602
aa(lp94
F0.3190152645111084
aF0.5293521881103516
aa(lp95
F0.3156545162200928
aF0.5284447073936462
aa(lp96
F0.31085464358329773
aF0.5270451903343201
aa(lp97
F0.3070123493671417
aF0.5258533954620361
aa(lp98
F0.30349841713905334
aF0.5250106453895569
aa(lp99
F0.29851073026657104
aF0.5237008929252625
aa(lp100
F0.2934730648994446
aF0.5224308967590332
aa(lp101
F0.289478063583374
aF0.5213407874107361
aa(lp102
F0.28585436940193176
aF0.5206048488616943
aa(lp103
F0.28075483441352844
aF0.5194429159164429
aa(lp104
F0.2756556570529938
aF0.5183273553848267
aa(lp105
F0.2716490924358368
aF0.5173583030700684
aa(lp106
F0.268038272857666
aF0.5167444944381714
aa(lp107
F0.21064624190330505
aF0.750542938709259
aa(lp108
F0.761718213558197
aF0.14123693108558655
aa(lp109
F0.7594012022018433
aF0.14247064292430878
aa(lp110
F0.6557796239852905
aF0.4440398544073105
aa(lp111
F0.7517848610877991
aF0.14639903604984283
aa(lp112
F0.7472666501998901
aF0.14877484738826752
aa(lp113
F0.7439178228378296
aF0.15127132833003998
aa(lp114
F0.7385832667350769
aF0.15459294617176056
aa(lp115
F0.7753140330314636
aF0.6567127704620361
aa(lp116
F0.5737163424491882
aF0.46622899174690247
aa(lp117
F0.5694077610969543
aF0.4679778218269348
aa(lp118
F0.5629706978797913
aF0.47070810198783875
aa(lp119
F0.5565125942230225
aF0.47344011068344116
aa(lp120
F0.5511466264724731
aF0.4757884740829468
aa(lp121
F0.5467906594276428
aF0.47754085063934326
aa(lp122
F0.6402895212173462
aF0.1802762567996979
aa(lp123
F0.5353818535804749
aF0.48249849677085876
aa(lp124
F0.4328696370124817
aF0.7835024774074555
aasS'7k_1001/'
p125
(lp126
(lp127
F0.014866628684103489
aF0.015071474947035313
aa(lp128
F0.015246071852743626
aF0.015483683906495571
aa(lp129
F0.01552655454725027
aF0.015798410400748253
aa(lp130
F0.015845362097024918
aF0.016138555482029915
aa(lp131
F0.016263483092188835
aF0.016598114743828773
aa(lp132
F0.016695089638233185
aF0.0170747097581625
aa(lp133
F0.017011011019349098
aF0.017432987689971924
aa(lp134
F0.012890324927866459
aF0.5031687617301941
aa(lp135
F0.01323420088738203
aF0.5030573606491089
aa(lp136
F0.013503692112863064
aF0.5028179883956909
aa(lp137
F0.013768846169114113
aF0.5028415322303772
aa(lp138
F0.014135883189737797
aF0.502666175365448
aa(lp139
F0.01450964156538248
aF0.50246661901474
aa(lp140
F0.01479911059141159
aF0.5021626353263855
aa(lp141
F0.015079121105372906
aF0.5021237730979919
aa(lp142
F0.015461891889572144
aF0.5018676519393921
aa(lp143
F0.4932684302330017
aF0.02145756408572197
aa(lp144
F0.4935993254184723
aF0.02175978012382984
aa(lp145
F0.49379533529281616
aF0.022070741280913353
aa(lp146
F0.4941669702529907
aF0.022457506507635117
aa(lp147
F0.4945289194583893
aF0.02272651717066765
aa(lp148
F0.4947524964809418
aF0.022996777668595314
aa(lp149
F0.39516001343727114
aF0.32332446351647376
aa(lp150
F0.4953978657722473
aF0.023889336735010147
aa(lp151
F0.49597975611686707
aF0.024445723742246628
aa(lp152
F0.4961845576763153
aF0.025063151493668556
aa(lp153
F0.49670901894569397
aF0.02587670460343361
aa(lp154
F0.9790948033332825
aF0.02106148563325405
aa(lp155
F0.9786213040351868
aF0.02165032923221588
aa(lp156
F0.9781750440597534
aF0.0222221277654171
aa(lp157
F0.9775400161743164
aF0.02303033322095871
aa(lp158
F0.976887047290802
aF0.02386716566979885
aa(lp159
F0.9763648509979248
aF0.024532360956072807
aa(lp160
F0.9758727550506592
aF0.025178158655762672
aa(lp161
F1.0751726388931275
aF-0.27390928119421004
aa(lp162
F0.9747303128242493
aF0.026672152802348137
aa(lp163
F0.8745967388153075
aF0.3269138589501381
aasS'25k_limitCandActs'
p164
(lp165
(lp166
F0.32383671402931213
aF0.7903614044189453
aa(lp167
F0.32348600029945374
aF0.7901372313499451
aa(lp168
F0.32328301668167114
aF0.7900903224945068
aa(lp169
F0.7388304471969604
aF0.6063646078109741
aa(lp170
F0.7366501092910767
aF0.6045987010002136
aa(lp171
F0.7344264388084412
aF0.6029086709022522
aa(lp172
F0.7325858473777771
aF0.6018157005310059
aa(lp173
F0.7310229539871216
aF0.6005256175994873
aa(lp174
F0.7287176847457886
aF0.5990443825721741
aa(lp175
F0.7268150448799133
aF0.5981251001358032
aa(lp176
F0.7252218127250671
aF0.5969930291175842
aa(lp177
F0.7228755950927734
aF0.5957439541816711
aa(lp178
F0.17673169076442719
aF0.5277622938156128
aa(lp179
F0.21831142902374268
aF0.8572134375572205
aa(lp180
F0.21820276975631714
aF0.8561686277389526
aa(lp181
F0.21781538426876068
aF0.8546949625015259
aa(lp182
F0.21737658977508545
aF0.8532962799072266
aa(lp183
F0.2168516367673874
aF0.8521906137466431
aa(lp184
F0.216619610786438
aF0.851356565952301
aa(lp185
F0.21604779362678528
aF0.8501803278923035
aa(lp186
F0.21541665494441986
aF0.8492530584335327
aa(lp187
F0.21508771181106567
aF0.8486099243164062
aa(lp188
F0.11437883377075198
aF1.1477025032043457
aa(lp189
F0.8922131657600403
aF0.14236409962177277
aa(lp190
F0.8899391889572144
aF0.14310437440872192
aa(lp191
F0.8879145383834839
aF0.14401213824748993
aa(lp192
F0.884966254234314
aF0.1451195925474167
aa(lp193
F0.881950855255127
aF0.14623410999774933
aa(lp194
F0.8794897794723511
aF0.1469910442829132
aa(lp195
F0.8772996068000793
aF0.14791914820671082
aa(lp196
F0.6984065175056458
aF0.5402806997299194
aa(lp197
F0.6938099265098572
aF0.5380824208259583
aa(lp198
F0.6902571320533752
aF0.5362469553947449
aa(lp199
F0.6868429780006409
aF0.5347824096679688
aa(lp200
F0.7821513772010803
aF0.23258085250854493
aa(lp201
F0.6790562868118286
aF0.5308575630187988
aa(lp202
F0.6224154472351074
aF0.9772032380104065
aasS'20k_errThresh95/'
p203
(lp204
(lp205
F0.21307934820652008
aF0.6733373403549194
aa(lp206
F0.21393056213855743
aF0.6714940071105957
aa(lp207
F0.21437710523605347
aF0.6701797842979431
aa(lp208
F0.21520431339740753
aF0.6687322854995728
aa(lp209
F0.2160441279411316
aF0.6669037938117981
aa(lp210
F0.21687062084674835
aF0.6650938987731934
aa(lp211
F0.21724192798137665
aF0.6638447642326355
aa(lp212
F0.26217490434646606
aF0.30499890446662903
aa(lp213
F0.26298725605010986
aF0.30544453859329224
aa(lp214
F0.2634502649307251
aF0.3055771589279175
aa(lp215
F0.2642754316329956
aF0.30614373087882996
aa(lp216
F0.7478674650192261
aF0.3534442186355591
aa(lp217
F0.7449228763580322
aF0.3540761172771454
aa(lp218
F0.74261474609375
aF0.35440462827682495
aa(lp219
F0.7404939532279968
aF0.35507139563560486
aa(lp220
F0.7375503778457642
aF0.3557610511779785
aa(lp221
F0.7346280813217163
aF0.356467068195343
aa(lp222
F0.7323480248451233
aF0.35686489939689636
aa(lp223
F0.7303115725517273
aF0.35754793882369995
aa(lp224
F0.7274966835975647
aF0.3582771420478821
aa(lp225
F0.7253088355064392
aF0.35870546102523804
aa(lp226
F0.7314305901527405
aF0.7874961495399475
aa(lp227
F0.6283529043197632
aF1.0862175703048706
aa(lp228
F0.29838740825653076
aF0.7289297580718994
aa(lp229
F0.29931703209877014
aF0.7260662317276001
aa(lp230
F0.3006582260131836
aF0.7234097719192505
aa(lp231
F0.8068110942840576
aF0.21639053523540497
aa(lp232
F0.8024930357933044
aF0.21916532516479492
aa(lp233
F0.7990624308586121
aF0.22122341394424438
aa(lp234
F0.7958805561065674
aF0.2233751118183136
aa(lp235
F0.7913817763328552
aF0.226213276386261
aa(lp236
F0.7868106961250305
aF0.22907665371894836
aa(lp237
F0.7831818461418152
aF0.23119981586933136
aa(lp238
F0.7798186540603638
aF0.23341873288154602
aa(lp239
F0.8750673294067384
aF-0.06365546882152556
aa(lp240
F0.7717589735984802
aF0.2380012422800064
aa(lp241
F0.6698253393173218
aF0.5386247515678406
aassS'ball_color'
p242
S'red'
p243
sS'sensorLog'
p244
(lp245
(lp246
F0.4881043432086444
aF0.4103557704130747
aF0.7885796557037758
aF0.37697360243274786
aF0.539604
aF0.1105039999999999
aF0.33
aa(lp247
F0.4815779942437529
aF0.39935750875801473
aF0.7769615386064697
aF0.38652289901826153
aF0.539604
aF0.1105039999999999
aF0.33
aa(lp248
F0.4746775170631673
aF0.389075706884487
aF0.7647048280137618
aF0.39607219560377516
aF0.539604
aF0.1105039999999999
aF0.33
aa(lp249
F0.47108971633906155
aF0.38421514635216597
aF0.7583506993314291
aF0.40084684389653197
aF0.539604
aF0.1105039999999999
aF0.33
aa(lp250
F0.46364480837384575
aF0.3750765730419506
aF0.7452194814833508
aF0.41039614048204565
aF0.539604
aF0.1105039999999999
aF0.33
aa(lp251
F0.45584906118798363
aF0.3667418446615812
aF0.7315639072682053
aF0.4199454370675593
aF0.539604
aF0.1105039999999999
aF0.33
aa(lp252
F0.4477129584587394
aF0.35924095723280125
aF0.717433122006917
aF0.42949473365307295
aF0.539604
aF0.1105039999999999
aF0.33
aa(lp253
F0.44352074566099153
aF0.35581175979803137
aF0.7102053557576969
aF0.4342693819458298
aF0.539604
aF0.1105039999999999
aF0.33
aa(lp254
F0.434895353716473
aF0.3496112849416356
aF0.6954575926773149
aF0.44381867853134344
aF0.539604
aF0.1105039999999999
aF0.33
aa(lp255
F0.42595906557549745
aF0.34430630255303607
aF0.6803645622931768
aF0.4533679751168571
aF0.539604
aF0.1105039999999999
aF0.33
aa(lp256
F0.4213784311263783
aF0.34199571519924205
aF0.6727055032073302
aF0.4581426234096139
aF0.539604
aF0.1105039999999999
aF0.33
aa(lp257
F0.4120008660654778
aF0.33806874316466384
aF0.6571967542262065
aF0.4676919199951276
aF0.539604
aF0.1105039999999999
aF0.33
aa(lp258
F0.40234719515418654
aF0.33507880428382963
aF0.6414804356430033
aF0.4772412165806413
aF0.539604
aF0.1105039999999999
aF0.33
aa(lp259
F0.3924330903120678
aF0.3330366591079635
aF0.6256131092330325
aF0.4867905131661549
aF0.539604
aF0.1105039999999999
aF0.33
aa(lp260
F0.3873835855029436
aF0.3323734399347334
aF0.6176406478610182
aF0.49156516145891177
aF0.539604
aF0.1105039999999999
aF0.33
aa(lp261
F0.37711077981528557
aF0.3317656921430018
aF0.6016539957117558
aF0.5011144580444254
aF0.539604
aF0.1105039999999999
aF0.33
aa(lp262
F0.3666220733551653
aF0.33211766168221396
aF0.5856596679120845
aF0.5106637546299391
aF0.539604
aF0.1105039999999999
aF0.33
aa(lp263
F0.3559378176204438
aF0.3334280818421103
aF0.5697152267702819
aF0.5202130512154527
aF0.539604
aF0.1105039999999999
aF0.33
aa(lp264
F0.35052918857012527
aF0.3344413714865905
aF0.5617796584795801
aF0.5249876995082096
aF0.539604
aF0.1105039999999999
aF0.33
aa(lp265
F0.33959364688423355
aF0.3371795512638311
aF0.5460175274108643
aF0.5345369960937232
aF0.539604
aF0.1105039999999999
aF0.33
aa(lp266
F0.32852161986358946
aF0.34085796432544696
aF0.5304479518974471
aF0.5440862926792369
aF0.539604
aF0.1105039999999999
aF0.33
aa(lp267
F0.32294296179328175
aF0.34304575232496004
aF0.522752915596741
aF0.5488609409719937
aF0.539604
aF0.1105039999999999
aF0.33
aa(lp268
F0.31171895105368996
aF0.34810864872559827
aF0.5075769647416454
aF0.5584102375575074
aF0.539604
aF0.1105039999999999
aF0.33
aa(lp269
F0.30043313394194554
aF0.3540724454617578
aF0.49273191395663146
aF0.567959534143021
aF0.539604
aF0.1105039999999999
aF0.33
aa(lp270
F0.2834681437418594
aF0.36401190551976265
aF0.4708868428018988
aF0.567959534143021
aF0.539604
aF0.1105039999999999
aF0.33
aa(lp271
F0.27498590652903965
aF0.36898163554876506
aF0.45996430722453246
aF0.567959534143021
aF0.539604
aF0.1105039999999999
aF0.33
aa(lp272
F0.25802203265591533
aF0.37892109560676984
aF0.4381192360697998
aF0.567959534143021
aF0.539604
aF0.1105039999999999
aF0.33
aa(lp273
F0.24105910039281536
aF0.3888605556647747
aF0.41627416491506714
aF0.567959534143021
aF0.539604
aF0.1105039999999999
aF0.33
aa(lp274
F0.22409732356390896
aF0.39880001572277946
aF0.39442909376033447
aF0.567959534143021
aF0.539604
aF0.1105039999999999
aF0.33
aa(lp275
F0.21561695365083938
aF0.40376974575178187
aF0.38350655818296814
aF0.567959534143021
aF0.539604
aF0.1105039999999999
aF0.33
aa(lp276
F0.19865747216754293
aF0.4137092058097867
aF0.3616614870282355
aF0.567959534143021
aF0.539604
aF0.1105039999999999
aF0.33
aa(lp277
F0.18170005997340408
aF0.4236486658677915
aF0.3398164158735028
aF0.567959534143021
aF0.539604
aF0.1105039999999999
aF0.33
aa(lp278
F0.16474535605196844
aF0.4335881259257963
aF0.31797134471877014
aF0.567959534143021
aF0.539604
aF0.1105039999999999
aF0.33
aa(lp279
F0.15626929517301044
aF0.43855785595479874
aF0.3070488091414038
aF0.567959534143021
aF0.539604
aF0.1105039999999999
aF0.33
aa(lp280
F0.13932054105635927
aF0.4484973160128035
aF0.28520373798667115
aF0.567959534143021
aF0.539604
aF0.1105039999999999
aF0.33
aa(lp281
F0.12237783176137168
aF0.45843677607080835
aF0.2633586668319385
aF0.567959534143021
aF0.539604
aF0.1105039999999999
aF0.33
aa(lp282
F0.1167320602437177
aF0.4617499294234765
aF0.2560769764470276
aF0.5727341824357779
aF0.539604
aF0.1105039999999999
aF0.33
aa(lp283
F0.10542191046811565
aF0.46902384070931047
aF0.2418280249443491
aF0.5822834790212915
aF0.539604
aF0.1105039999999999
aF0.33
aa(lp284
F0.08845709757410901
aF0.48088647642125865
aF0.22096471087477668
aF0.5822834790212915
aF0.539604
aF0.1105039999999999
aF0.33
aasS'error'
p285
(dp286
g8
F14.071520294878416
sg47
F15.757111559121388
sg86
F6.181482311119414
sg125
F7.681022289021934
sg164
F13.16404028111879
sg203
F10.075619083338502
ssS'motorLog'
p287
(lp288
(lp289
F0.2
aF0.3
aa(lp290
F0.2
aF0.3
aa(lp291
F0.2
aF0.3
aa(lp292
F0.2
aF0.3
aa(lp293
F0.2
aF0.3
aa(lp294
F0.2
aF0.3
aa(lp295
F0.2
aF0.3
aa(lp296
F0.2
aF0.3
aa(lp297
F0.2
aF0.3
aa(lp298
F0.2
aF0.3
aa(lp299
F0.2
aF0.3
aa(lp300
F0.2
aF0.3
aa(lp301
F0.2
aF0.3
aa(lp302
F0.2
aF0.3
aa(lp303
F0.2
aF0.3
aa(lp304
F0.2
aF0.3
aa(lp305
F0.2
aF0.3
aa(lp306
F0.2
aF0.3
aa(lp307
F0.2
aF0.3
aa(lp308
F0.2
aF0.3
aa(lp309
F0.2
aF0.3
aa(lp310
F0.2
aF0.3
aa(lp311
F0.2
aF0.3
aa(lp312
F0.3
aI0
aa(lp313
F0.3
aI0
aa(lp314
F0.3
aI0
aa(lp315
F0.3
aI0
aa(lp316
F0.3
aI0
aa(lp317
F0.3
aI0
aa(lp318
F0.3
aI0
aa(lp319
F0.3
aI0
aa(lp320
F0.3
aI0
aa(lp321
F0.3
aI0
aa(lp322
F0.3
aI0
aa(lp323
F0.3
aI0
aa(lp324
F0.2
aF0.3
aa(lp325
F0.2
aF0.3
aa(lp326
F0.3
aI0
aa(lp327
F0.3
aI0
aasb.