(ihardBrainTrial
HardBrainTrial
p0
(dp1
S'ball_loc'
p2
(F4.86693
F4.469231
tp3
sS'robot_loc'
p4
(F5.371065390526304
F5.292457527827093
tp5
sS'hammerMotors'
p6
(dp7
S'25k_limitCandActs_errThresh95/'
p8
(lp9
(lp10
F0.350155234336853
aF0.7335870862007141
aa(lp11
F0.8457818031311035
aF0.33649504184722906
aa(lp12
F0.8431634306907654
aF0.3395495712757111
aa(lp13
F0.8403826355934143
aF0.34255498647689825
aa(lp14
F0.8380377888679504
aF0.344644844532013
aa(lp15
F0.8359124660491943
aF0.34695407748222357
aa(lp16
F0.832737922668457
aF0.34980314970016485
aa(lp17
F0.8300809860229492
aF0.35177594423294073
aa(lp18
F0.8276948928833008
aF0.3539333641529084
aa(lp19
F0.8241528272628784
aF0.35658124089241033
aa(lp20
F0.8204737901687622
aF0.3591370582580567
aa(lp21
F0.8174232840538025
aF0.3608976006507874
aa(lp22
F0.8147140741348267
aF0.36278501152992254
aa(lp23
F0.8107252717018127
aF0.3650850057601929
aa(lp24
F0.8074392080307007
aF0.3666645288467408
aa(lp25
F0.8045420050621033
aF0.36832439899444586
aa(lp26
F0.800301730632782
aF0.37033706903457647
aa(lp27
F0.7959805130958557
aF0.3722275793552399
aa(lp28
F0.7924536466598511
aF0.37352213263511663
aa(lp29
F0.7893749475479126
aF0.3748269975185395
aa(lp30
F0.7849088907241821
aF0.3763983547687531
aa(lp31
F0.7812899947166443
aF0.37747383117675787
aa(lp32
F0.7781538963317871
aF0.37850761413574224
aa(lp33
F0.7736366987228394
aF0.3797464072704316
aa(lp34
F0.7691283226013184
aF0.3808501064777375
aa(lp35
F0.7655170559883118
aF0.38160830736160284
aa(lp36
F0.7624220848083496
aF0.3822515010833741
aa(lp37
F0.7580167651176453
aF0.3830163478851319
aa(lp38
F0.7542411684989929
aF0.3839443922042847
aa(lp39
F0.7506666779518127
aF0.3854598701000214
aa(lp40
F0.7456260919570923
aF0.3872798085212708
aa(lp41
F0.7415732741355896
aF0.3889527022838593
aasS'25k'
p42
(lp43
(lp44
F0.6667749881744385
aF0.28854230046272283
aa(lp45
F0.665019690990448
aF0.29170712828636175
aa(lp46
F0.662550151348114
aF0.29594781994819647
aa(lp47
F0.6599576473236084
aF0.3002090752124787
aa(lp48
F0.6579115986824036
aF0.30340141057968145
aa(lp49
F0.6558540463447571
aF0.30662101507186895
aa(lp50
F0.652986466884613
aF0.3108965754508973
aa(lp51
F0.6507381200790405
aF0.31407818198204046
aa(lp52
F0.6485080122947693
aF0.3172895014286042
aa(lp53
F0.6454172134399414
aF0.321525126695633
aa(lp54
F0.6422529816627502
aF0.3257294893264771
aa(lp55
F0.6397915482521057
aF0.3288268148899079
aa(lp56
F0.6373903751373291
aF0.3319584727287293
aa(lp57
F0.6340858340263367
aF0.3360470533370972
aa(lp58
F0.6315286159515381
aF0.33903580904006964
aa(lp59
F0.6290611624717712
aF0.34206303954124456
aa(lp60
F0.62568199634552
aF0.3459841907024384
aa(lp61
F0.6222923398017883
aF0.34982475638389593
aa(lp62
F0.6196883916854858
aF0.3525990545749665
aa(lp63
F0.6172134876251221
aF0.3554187417030335
aa(lp64
F0.6138485074043274
aF0.359026849269867
aa(lp65
F0.5719321966171265
aF0.8531295657157898
aa(lp66
F0.5709441900253296
aF0.8523679375648499
aa(lp67
F0.5695613026618958
aF0.851333737373352
aa(lp68
F0.5683884024620056
aF0.8503052592277527
aa(lp69
F0.567439615726471
aF0.8495172262191772
aa(lp70
F0.5670444369316101
aF0.8487846255302429
aa(lp71
F0.5664393305778503
aF0.847793698310852
aa(lp72
F0.5658593773841858
aF0.8467829823493958
aa(lp73
F0.5659685730934143
aF0.8453624844551086
aa(lp74
F0.5660455226898193
aF0.8434863090515137
aa(lp75
F0.5660534501075745
aF0.8418130278587341
aasS'50k'
p76
(lp77
(lp78
F0.18134020268917084
aF0.8210999369621277
aa(lp79
F0.18158133327960968
aF0.8214144706726074
aa(lp80
F0.1812468320131302
aF0.8216458559036255
aa(lp81
F0.18087267875671387
aF0.8217112421989441
aa(lp82
F0.18007414042949677
aF0.821638286113739
aa(lp83
F0.18024611473083496
aF0.8214957118034363
aa(lp84
F0.17979097366333008
aF0.8211419582366943
aa(lp85
F0.1789284646511078
aF0.8207695484161377
aa(lp86
F0.1790628433227539
aF0.8202948570251465
aa(lp87
F0.17855341732501984
aF0.8195188641548157
aa(lp88
F0.1780298501253128
aF0.8185738921165466
aa(lp89
F0.17712807655334473
aF0.8177820444107056
aa(lp90
F0.17722751200199127
aF0.8168402910232544
aa(lp91
F0.1766875833272934
aF0.8154748678207397
aa(lp92
F0.1757933646440506
aF0.8143872022628784
aa(lp93
F0.17588089406490326
aF0.8131148815155029
aa(lp94
F0.17535145580768585
aF0.8113358616828918
aa(lp95
F0.17483364045619965
aF0.8093946576118469
aa(lp96
F0.17399832606315613
aF0.807905912399292
aa(lp97
F0.17408794164657593
aF0.8061844110488892
aa(lp98
F0.17361761629581451
aF0.8038499355316162
aa(lp99
F0.17285789549350739
aF0.8020912408828735
aa(lp100
F0.17296293377876282
aF0.8000668287277222
aa(lp101
F0.17256663739681244
aF0.7973642945289612
aa(lp102
F0.7481546401977539
aF0.4032230377197266
aa(lp103
F0.745166540145874
aF0.403380960226059
aa(lp104
F0.7429982423782349
aF0.4031589627265931
aa(lp105
F0.7396078705787659
aF0.40321034193038946
aa(lp106
F0.7366936206817627
aF0.40398129820823675
aa(lp107
F0.7347278594970703
aF0.4053399860858918
aa(lp108
F0.7315489649772644
aF0.40730574727058416
aa(lp109
F0.7288540601730347
aF0.409411370754242
aasS'7k_1001/'
p110
(lp111
(lp112
F0.751145601272583
aF0.008930358104407787
aa(lp113
F0.7506042122840881
aF0.00911438837647438
aa(lp114
F0.7498639822006226
aF0.00937833171337843
aa(lp115
F0.7490258812904358
aF0.009665697813034058
aa(lp116
F0.7484056353569031
aF0.00989683996886015
aa(lp117
F0.9937340021133423
aF0.9937021732330322
aa(lp118
F0.993513822555542
aF0.9934882521629333
aa(lp119
F0.9933339953422546
aF0.9933157563209534
aa(lp120
F0.9931501746177673
aF0.9931357502937317
aa(lp121
F0.9928843379020691
aF0.9928785562515259
aa(lp122
F0.9925987720489502
aF0.9926028251647949
aa(lp123
F0.9923673272132874
aF0.9923815727233887
aa(lp124
F0.9921316504478455
aF0.9921528697013855
aa(lp125
F0.991793155670166
aF0.9918276071548462
aa(lp126
F0.9915201663970947
aF0.9915676116943359
aa(lp127
F0.9912428259849548
aF0.9913002848625183
aa(lp128
F0.9908464550971985
aF0.9909215569496155
aa(lp129
F0.990425705909729
aF0.9905204772949219
aa(lp130
F0.9900885820388794
aF0.9902017116546631
aa(lp131
F0.9897475838661194
aF0.9898760318756104
aa(lp132
F0.9892635345458984
aF0.9894174933433533
aa(lp133
F0.9888777732849121
aF0.9890550374984741
aa(lp134
F0.9884889721870422
aF0.9886860847473145
aa(lp135
F0.9879401922225952
aF0.9881695508956909
aa(lp136
F0.98736572265625
aF0.987630307674408
aa(lp137
F0.9869117140769958
aF0.9872079491615295
aa(lp138
F0.986457347869873
aF0.9867804050445557
aa(lp139
F0.9858220815658569
aF0.9861878752708435
aa(lp140
F0.9852333664894104
aF0.9856467843055725
aa(lp141
F0.9845249056816101
aF0.9849793314933777
aa(lp142
F0.983561098575592
aF0.9840719699859619
aa(lp143
F0.9827382564544678
aF0.9832973480224609
aasS'25k_limitCandActs'
p144
(lp145
(lp146
F0.7853960394859314
aF0.18725670874118805
aa(lp147
F0.7835915088653564
aF0.1889711618423462
aa(lp148
F0.7809414267539978
aF0.1913999766111374
aa(lp149
F0.7781897187232971
aF0.1939033567905426
aa(lp150
F0.7759402394294739
aF0.19588792324066162
aa(lp151
F0.7738849520683289
aF0.19778946042060852
aa(lp152
F0.7709066867828369
aF0.20046110451221472
aa(lp153
F0.7684950232505798
aF0.20256707072258
aa(lp154
F0.7662945985794067
aF0.20457790791988378
aa(lp155
F0.7631348967552185
aF0.20738770067691809
aa(lp156
F0.878036618232727
aF0.6824998259544373
aa(lp157
F0.8757799863815308
aF0.6822934746742249
aa(lp158
F0.8734716773033142
aF0.6819029450416565
aa(lp159
F0.8703266382217407
aF0.681466817855835
aa(lp160
F0.8679212927818298
aF0.6811932325363159
aa(lp161
F0.8654707670211792
aF0.6807568669319153
aa(lp162
F0.862151026725769
aF0.6802474856376648
aa(lp163
F0.858773946762085
aF0.6797102093696594
aa(lp164
F0.8562121987342834
aF0.6793454885482788
aa(lp165
F0.8536187410354614
aF0.6788541674613953
aa(lp166
F0.8319643139839172
aF0.44626680016517645
aa(lp167
F0.8291327357292175
aF0.4461298286914826
aa(lp168
F0.8266574740409851
aF0.4456599950790406
aa(lp169
F0.8231300711631775
aF0.44539853930473333
aa(lp170
F0.8196275234222412
aF0.44525191187858587
aa(lp171
F0.8168508410453796
aF0.4453853368759156
aa(lp172
F0.8144535422325134
aF0.445247232913971
aa(lp173
F0.811081051826477
aF0.4453872740268708
aa(lp174
F0.8084130883216858
aF0.4462235867977143
aa(lp175
F0.8064133524894714
aF0.4465687274932862
aa(lp176
F0.8035536408424377
aF0.4470988214015961
aa(lp177
F0.801456093788147
aF0.4477266371250153
aasS'20k_errThresh95/'
p178
(lp179
(lp180
F0.1988929659128189
aF0.49209520220756536
aa(lp181
F0.19853055477142334
aF0.4923699796199799
aa(lp182
F0.19776605069637299
aF0.4926252365112305
aa(lp183
F0.19703276455402374
aF0.4928086400032044
aa(lp184
F0.19625498354434967
aF0.4928943812847138
aa(lp185
F0.19599932432174683
aF0.49295243620872503
aa(lp186
F0.1953597515821457
aF0.4929634034633637
aa(lp187
F0.19464722275733948
aF0.492947667837143
aa(lp188
F0.19448260962963104
aF0.49285790324211126
aa(lp189
F0.19395703077316284
aF0.4927097856998444
aa(lp190
F0.19348210096359253
aF0.4925025403499604
aa(lp191
F0.19289131462574005
aF0.4923671185970307
aa(lp192
F0.19287028908729553
aF0.492087334394455
aa(lp193
F0.1925329566001892
aF0.49174553155899053
aa(lp194
F0.19204796850681305
aF0.4915431737899781
aa(lp195
F0.19213813543319702
aF0.49114385247230535
aa(lp196
F0.19195187091827393
aF0.49068871140480047
aa(lp197
F0.19182923436164856
aF0.4901947379112244
aa(lp198
F0.191514253616333
aF0.48992797732353216
aa(lp199
F0.19176794588565826
aF0.4893896877765656
aa(lp200
F0.6031087040901184
aF0.8255956768989563
aa(lp201
F0.6005101203918457
aF0.8239135146141052
aa(lp202
F0.5983282923698425
aF0.8217462301254272
aa(lp203
F0.5952115058898926
aF0.8191394209861755
aa(lp204
F0.5921644568443298
aF0.8165088295936584
aa(lp205
F0.589783251285553
aF0.8147457838058472
aa(lp206
F0.5877510905265808
aF0.8125362992286682
aa(lp207
F0.5849321484565735
aF0.8098834156990051
aa(lp208
F0.5828974843025208
aF0.807794451713562
aa(lp209
F0.5819120407104492
aF0.8048690557479858
aa(lp210
F0.5804492831230164
aF0.8014081716537476
aa(lp211
F0.5797100067138672
aF0.7988229393959045
aassS'ball_color'
p212
S'green'
p213
sS'sensorLog'
p214
(lp215
(lp216
F0.2730354421120626
aF0.6984261562105217
aF0.6169830111308372
aF0.5830280058450766
aF0.496772
aF0.2876923999999999
aF0.67
aa(lp217
F0.2703708057340721
aF0.7024128575906378
aF0.6100471469376899
aF0.5782533575523199
aF0.496772
aF0.2876923999999999
aF0.67
aa(lp218
F0.2648691186136286
aF0.7097533456386437
aF0.595832378577391
aF0.5687040609668063
aF0.496772
aF0.2876923999999999
aF0.67
aa(lp219
F0.2591423665033461
aF0.71622825030949
aF0.5812030240522141
aF0.5591547643812925
aF0.496772
aF0.2876923999999999
aF0.67
aa(lp220
F0.25319660523014387
aF0.7218142689384202
aF0.5662117332406421
aF0.5496054677957789
aF0.496772
aF0.2876923999999999
aF0.67
aa(lp221
F0.25014357574391677
aF0.7242675365808975
aF0.5585971762690004
aF0.544830819503022
aF0.496772
aF0.2876923999999999
aF0.67
aa(lp222
F0.24388135945385309
aF0.7284835516322868
aF0.5431644959636767
aF0.5352815229175084
aF0.496772
aF0.2876923999999999
aF0.67
aa(lp223
F0.2374167070758964
aF0.7317665747911353
aF0.5275067769963965
aF0.5257322263319948
aF0.496772
aF0.2876923999999999
aF0.67
aa(lp224
F0.23411071788653098
aF0.7330543897089971
aF0.5196111115565912
aF0.5209575780392379
aF0.496772
aF0.2876923999999999
aF0.67
aa(lp225
F0.22735612537152944
aF0.7349168325320641
aF0.5037216901998935
aF0.5114082814537243
aF0.496772
aF0.2876923999999999
aF0.67
aa(lp226
F0.22041796539972644
aF0.7358231305984606
aF0.48774918168887
aF0.5018589848682106
aF0.496772
aF0.2876923999999999
aF0.67
aa(lp227
F0.21330453412261735
aF0.7357700222138319
aF0.47175106980592113
aF0.49230968828269694
aF0.496772
aF0.2876923999999999
aF0.67
aa(lp228
F0.20968481840627207
aF0.735383615389144
aF0.46376040714467487
aF0.48753503998994013
aF0.496772
aF0.2876923999999999
aF0.67
aa(lp229
F0.20232513841258704
aF0.7338928348623803
aF0.447831817196381
aF0.47798574340442646
aF0.496772
aF0.2876923999999999
aF0.67
aa(lp230
F0.19481324400893088
aF0.7314495948647718
aF0.432021283282754
aF0.4684364468189128
aF0.496772
aF0.2876923999999999
aF0.67
aa(lp231
F0.19100342221856156
aF0.7298734172668798
aF0.4241780910640266
aF0.46366179852615597
aF0.496772
aF0.2876923999999999
aF0.67
aa(lp232
F0.1832828708693143
aF0.7260190378636544
aF0.4086511414686985
aF0.4541125019406423
aF0.496772
aF0.2876923999999999
aF0.67
aa(lp233
F0.1754375683451013
aF0.7212405361560996
aF0.3933832560306044
aF0.44456320535512867
aF0.496772
aF0.2876923999999999
aF0.67
aa(lp234
F0.16748022131496568
aF0.7155551095901999
aF0.3784293826499837
aF0.435013908769615
aF0.496772
aF0.2876923999999999
aF0.67
aa(lp235
F0.16346385359686996
aF0.7123785681079763
aF0.3710870680141408
aF0.4302392604768582
aF0.496772
aF0.2876923999999999
aF0.67
aa(lp236
F0.15536523013807987
aF0.7053721195369885
aF0.3567047148429111
aF0.4206899638913445
aF0.496772
aF0.2876923999999999
aF0.67
aa(lp237
F0.14719283042703257
aF0.6975158552716512
aF0.3427683768693598
aF0.4111406673058308
aF0.496772
aF0.2876923999999999
aF0.67
aa(lp238
F0.14308479304808838
aF0.6932777611389505
aF0.3359832049391603
aF0.406366019013074
aF0.496772
aF0.2876923999999999
aF0.67
aa(lp239
F0.13483828407056375
aF0.6842007154344273
aF0.32280938068050774
aF0.39681672242756033
aF0.496772
aF0.2876923999999999
aF0.67
aa(lp240
F0.12657155181446855
aF0.6743500482279507
aF0.3102035582199495
aF0.3872674258420467
aF0.496772
aF0.2876923999999999
aF0.67
aa(lp241
F0.11831322799812093
aF0.6637612112840205
aF0.29821110490568864
aF0.37771812925653303
aF0.496772
aF0.2876923999999999
aF0.67
aa(lp242
F0.11419783679110504
aF0.6582017879417205
aF0.2924584696746759
aF0.3729434809637762
aF0.496772
aF0.2876923999999999
aF0.67
aa(lp243
F0.10602024620778987
aF0.646577942542784
aF0.28146626232303407
aF0.36339418437826254
aF0.496772
aF0.2876923999999999
aF0.67
aa(lp244
F0.09795565154562504
aF0.634315876996585
aF0.27119084735036336
aF0.35384488779274886
aF0.496772
aF0.2876923999999999
aF0.67
aa(lp245
F0.10200102403234435
aF0.6279592169199916
aF0.26633359785392585
aF0.34907023949999205
aF0.4843897124064512
aF0.2803412807688456
aF0.67
aa(lp246
F0.1036882313614034
aF0.6148232398367313
aF0.2572018668905255
aF0.33952094291447843
aF0.4685724822125025
aF0.26784209901453054
aF0.67
aa(lp247
F0.1055230902995545
aF0.6011633252449865
aF0.24887425392725077
aF0.32997164632896475
aF0.4521055626910826
aF0.2560873388946856
aF0.67
aa(lp248
F0.11212174596497837
aF0.5941521853152743
aF0.24502147351746933
aF0.32519699803620794
aF0.43558869777403364
aF0.24545994217483588
aF0.67
aa(lp249
F0.11462844494351845
aF0.5927274750694895
aF0.24429332468958087
aF0.32424206837765657
aF0.4306295367545509
aF0.2423909120376681
aF0.67
aasS'error'
p250
(dp251
g8
F26.01049185527154
sg42
F28.298785334489697
sg76
F36.11300235503928
sg110
F63.727578973036124
sg144
F31.066760224326288
sg178
F29.23580519225679
ssS'motorLog'
p252
(lp253
(lp254
F0.2
aF-0.3
aa(lp255
F0.2
aF-0.3
aa(lp256
F0.2
aF-0.3
aa(lp257
F0.2
aF-0.3
aa(lp258
F0.2
aF-0.3
aa(lp259
F0.2
aF-0.3
aa(lp260
F0.2
aF-0.3
aa(lp261
F0.2
aF-0.3
aa(lp262
F0.2
aF-0.3
aa(lp263
F0.2
aF-0.3
aa(lp264
F0.2
aF-0.3
aa(lp265
F0.2
aF-0.3
aa(lp266
F0.2
aF-0.3
aa(lp267
F0.2
aF-0.3
aa(lp268
F0.2
aF-0.3
aa(lp269
F0.2
aF-0.3
aa(lp270
F0.2
aF-0.3
aa(lp271
F0.2
aF-0.3
aa(lp272
F0.2
aF-0.3
aa(lp273
F0.2
aF-0.3
aa(lp274
F0.2
aF-0.3
aa(lp275
F0.2
aF-0.3
aa(lp276
F0.2
aF-0.3
aa(lp277
F0.2
aF-0.3
aa(lp278
F0.2
aF-0.3
aa(lp279
F0.2
aF-0.3
aa(lp280
F0.2
aF-0.3
aa(lp281
F0.2
aF-0.3
aa(lp282
F0.2
aF-0.3
aa(lp283
F0.2
aF-0.3
aa(lp284
F0.2
aF-0.3
aa(lp285
F0.2
aF-0.3
aa(lp286
F0.2
aF-0.3
aa(lp287
F0.2
aF-0.3
aasb.