(ihardBrainTrial
HardBrainTrial
p0
(dp1
S'ball_loc'
p2
(F4.728488
F4.348792
tp3
sS'robot_loc'
p4
(F5.365681609103058
F5.2724925182875415
tp5
sS'hammerMotors'
p6
(dp7
S'25k_limitCandActs_errThresh95/'
p8
(lp9
(lp10
F0.2767452299594879
aF0.834253191947937
aa(lp11
F0.2763982117176056
aF0.8334897756576538
aa(lp12
F0.27585676312446594
aF0.8327434062957764
aa(lp13
F0.27602913975715637
aF0.8321401476860046
aa(lp14
F0.2758886516094208
aF0.8311057090759277
aa(lp15
F0.8330826759338379
aF0.36628484725952154
aa(lp16
F0.8303765654563904
aF0.36771017313003546
aa(lp17
F0.8264188766479492
aF0.3694306612014771
aa(lp18
F0.8224063515663147
aF0.37102308869361883
aa(lp19
F0.8191365003585815
aF0.372113049030304
aa(lp20
F0.7163132667541503
aF0.07316688895225526
aa(lp21
F0.8117508292198181
aF0.37401899695396423
aa(lp22
F0.8061414957046509
aF0.3742283880710602
aa(lp23
F0.8014818429946899
aF0.37432530522346497
aa(lp24
F0.7974919676780701
aF0.374542236328125
aa(lp25
F0.7915683388710022
aF0.3747512400150299
aa(lp26
F0.7855191826820374
aF0.37495994567871094
aa(lp27
F0.8805018424987794
aF0.6750562369823456
aa(lp28
F0.7764755487442017
aF0.3754893839359284
aasS'25k'
p29
(lp30
(lp31
F0.3527056574821472
aF0.1673750877380371
aa(lp32
F0.35197561979293823
aF0.1700153648853302
aa(lp33
F0.3514493703842163
aF0.17203646898269653
aa(lp34
F0.35107022523880005
aF0.17417913675308228
aa(lp35
F0.3505931496620178
aF0.17708590626716614
aa(lp36
F0.3502662479877472
aF0.17930716276168823
aa(lp37
F0.35006633400917053
aF0.18163293600082397
aa(lp38
F0.5844748020172119
aF0.45305815339088445
aa(lp39
F0.5804544687271118
aF0.4524476528167725
aa(lp40
F0.5774534940719604
aF0.45217189192771917
aa(lp41
F0.48861160278320315
aF0.523511779308319
aa(lp42
F0.5857328176498413
aF0.8216761946678162
aa(lp43
F0.7351577877998352
aF0.18793615698814392
aa(lp44
F0.7326066493988037
aF0.18909509479999542
aa(lp45
F0.729587972164154
aF0.19044293463230133
aa(lp46
F0.5326693058013916
aF0.806639552116394
aa(lp47
F0.5291098356246948
aF0.8035008907318115
aa(lp48
F0.626503324508667
aF1.1011426329612732
aa(lp49
F0.5239927768707275
aF0.7989721298217773
aasS'50k'
p50
(lp51
(lp52
F0.21392790973186493
aF0.8142975568771362
aa(lp53
F0.21305248141288757
aF0.8127366304397583
aa(lp54
F0.2117689847946167
aF0.8114879131317139
aa(lp55
F0.2117324322462082
aF0.8100683093070984
aa(lp56
F0.210855633020401
aF0.8080735802650452
aa(lp57
F0.20960286259651184
aF0.8065203428268433
aa(lp58
F0.8434329032897949
aF0.8204372525215149
aa(lp59
F0.8397361636161804
aF0.8180469870567322
aa(lp60
F0.8359514474868774
aF0.8155857920646667
aa(lp61
F0.8327960968017578
aF0.8136599063873291
aa(lp62
F0.7301339745521545
aF0.5117732405662536
aa(lp63
F0.7619141936302185
aF0.4249403178691864
aa(lp64
F0.7568896412849426
aF0.4235420823097229
aa(lp65
F0.7524814009666443
aF0.4226680397987366
aa(lp66
F0.7492204904556274
aF0.4214475154876709
aa(lp67
F0.7440208196640015
aF0.4200531542301178
aa(lp68
F0.7387527823448181
aF0.41866058111190796
aa(lp69
F0.8341367602348329
aF0.7177904129028321
aa(lp70
F0.7309084534645081
aF0.41678872704505926
aasS'7k_1001/'
p71
(lp72
(lp73
F0.7335092425346375
aF0.013735032640397549
aa(lp74
F0.7318034768104553
aF0.014339745976030827
aa(lp75
F0.7305881977081299
aF0.014821148477494717
aa(lp76
F0.7290987372398376
aF0.015321572311222553
aa(lp77
F0.9884922504425049
aF0.9880355596542358
aa(lp78
F0.9880707263946533
aF0.9876232147216797
aa(lp79
F0.9876428246498108
aF0.987200915813446
aa(lp80
F0.9870331883430481
aF0.9866043329238892
aa(lp81
F0.9863879084587097
aF0.9859752058982849
aa(lp82
F0.9858726263046265
aF0.9854772090911865
aa(lp83
F0.8853522777557372
aF0.6849699139595031
aa(lp84
F0.9845500588417053
aF0.9842323064804077
aa(lp85
F0.9836373925209045
aF0.9833727478981018
aa(lp86
F0.9829098582267761
aF0.9826774597167969
aa(lp87
F0.9821683764457703
aF0.9819965958595276
aa(lp88
F0.9811181426048279
aF0.9810178279876709
aa(lp89
F0.9800075888633728
aF0.9799871444702148
aa(lp90
F1.0791228771209718
aF1.2791538119316102
aa(lp91
F0.9782682061195374
aF0.9783562421798706
aasS'25k_limitCandActs'
p92
(lp93
(lp94
F0.7728753685951233
aF0.20400558412075048
aa(lp95
F0.7695243954658508
aF0.20701681077480322
aa(lp96
F0.7668750286102295
aF0.20935158431530004
aa(lp97
F0.7644364237785339
aF0.21159079670906072
aa(lp98
F0.8682040572166443
aF0.6739131212234497
aa(lp99
F0.8656315207481384
aF0.6735929250717163
aa(lp100
F0.8630078434944153
aF0.6731557846069336
aa(lp101
F0.8594724535942078
aF0.6726188659667969
aa(lp102
F0.8558904528617859
aF0.6720575094223022
aa(lp103
F0.8531887531280518
aF0.6716518402099609
aa(lp104
F0.726867640018463
aF0.16595510840415956
aa(lp105
F0.8224793076515198
aF0.4656417667865753
aa(lp106
F0.8173159956932068
aF0.4654849171638489
aa(lp107
F0.8131383061408997
aF0.4656214118003845
aa(lp108
F0.8093549013137817
aF0.46525004506111145
aa(lp109
F0.8039030432701111
aF0.46509382128715515
aa(lp110
F0.7983354926109314
aF0.46493804454803467
aa(lp111
F0.8379052042961121
aF0.9888535022735596
aa(lp112
F0.6827027201652527
aF0.5528923273086548
aasS'20k_errThresh95/'
p113
(lp114
(lp115
F0.24038895964622498
aF0.5192067623138428
aa(lp116
F0.23985952138900757
aF0.5188447833061218
aa(lp117
F0.23915903270244598
aF0.5186203718185425
aa(lp118
F0.23918890953063965
aF0.5182132720947266
aa(lp119
F0.23882773518562317
aF0.5177385210990906
aa(lp120
F0.2382592111825943
aF0.5174643397331238
aa(lp121
F0.2384202927350998
aF0.5169553756713867
aa(lp122
F0.23824109137058258
aF0.5163917541503906
aa(lp123
F0.23813793063163757
aF0.5157998204231262
aa(lp124
F0.6378835439682007
aF0.828800618648529
aa(lp125
F0.5355722546577454
aF0.5265683650970459
aa(lp126
F0.6317456960678101
aF0.8235732913017273
aa(lp127
F0.6267858147621155
aF0.8201627731323242
aa(lp128
F0.622708797454834
aF0.8177920579910278
aa(lp129
F0.6192976832389832
aF0.8149516582489014
aa(lp130
F0.6142752766609192
aF0.8114140033721924
aa(lp131
F0.7862628698348999
aF0.25747984647750854
aa(lp132
F0.8823717594146729
aF0.5596239149570466
aa(lp133
F0.7789387106895447
aF0.2620764374732972
aassS'ball_color'
p134
S'red'
p135
sS'sensorLog'
p136
(lp137
(lp138
F0.31739418305819955
aF0.6962726436412232
aF0.6089970073150166
aF0.4859489018270857
aF0.4413951999999998
aF0.23951680000000017
aF0.33
aa(lp139
F0.3075176651367266
aF0.6946231954472101
aF0.5930840652559525
aF0.47639960524157204
aF0.4413951999999998
aF0.23951680000000017
aF0.33
aa(lp140
F0.29741438930889375
aF0.692022511608614
aF0.5772986654228301
aF0.4668503086560584
aF0.4413951999999998
aF0.23951680000000017
aF0.33
aa(lp141
F0.29228216628176373
aF0.6903682483242172
aF0.569471570624254
aF0.46207566036330155
aF0.4413951999999998
aF0.23951680000000017
aF0.33
aa(lp142
F0.2818660297635475
aF0.6863593213119558
aF0.5539838042091045
aF0.45252636377778793
aF0.4413951999999998
aF0.23951680000000017
aF0.33
aa(lp143
F0.2712611679580186
aF0.6814288996780853
aF0.5387642987364508
aF0.44297706719227425
aF0.4413951999999998
aF0.23951680000000017
aF0.33
aa(lp144
F0.2658933638991
aF0.6786235455577891
aF0.531272303791195
aF0.43820241889951744
aF0.4413951999999998
aF0.23951680000000017
aF0.33
aa(lp145
F0.25503868152852704
aF0.6723451715852413
aF0.5165575348640015
aF0.42865312231400376
aF0.4413951999999998
aF0.23951680000000017
aF0.33
aa(lp146
F0.24404217577629678
aF0.6651957387966352
aF0.5022457210334252
aF0.41910382572849014
aF0.4413951999999998
aF0.23951680000000017
aF0.33
aa(lp147
F0.2329261595622468
aF0.6572009774295487
aF0.48838836937435237
aF0.40955452914297646
aF0.4413951999999998
aF0.23951680000000017
aF0.33
aa(lp148
F0.22733104079759167
aF0.652895473857215
aF0.481645770543885
aF0.40477988085021965
aF0.4413951999999998
aF0.23951680000000017
aF0.33
aa(lp149
F0.21608378116617308
aF0.6436875907610424
aF0.46856306083958116
aF0.395230584264706
aF0.4413951999999998
aF0.23951680000000017
aF0.33
aa(lp150
F0.19915230636714884
aF0.6290053116093457
aF0.4495780488851032
aF0.395230584264706
aF0.4413951999999998
aF0.23951680000000017
aF0.33
aa(lp151
F0.18222810370425727
aF0.614323032457649
aF0.43059303693062534
aF0.395230584264706
aF0.4413951999999998
aF0.23951680000000017
aF0.33
aa(lp152
F0.17376939346099177
aF0.6069818928818005
aF0.42110053095338634
aF0.395230584264706
aF0.4413951999999998
aF0.23951680000000017
aF0.33
aa(lp153
F0.15686058380648665
aF0.5922996137301038
aF0.4021155189989084
aF0.395230584264706
aF0.4413951999999998
aF0.23951680000000017
aF0.33
aa(lp154
F0.1399667224751418
aF0.577617334578407
aF0.3831305070444305
aF0.395230584264706
aF0.4413951999999998
aF0.23951680000000017
aF0.33
aa(lp155
F0.1230939643068075
aF0.5629350554267102
aF0.3641454950899526
aF0.395230584264706
aF0.4413951999999998
aF0.23951680000000017
aF0.33
aa(lp156
F0.11466841052764148
aF0.5555939158508618
aF0.3546529891127136
aF0.395230584264706
aF0.4413951999999998
aF0.23951680000000017
aF0.33
aa(lp157
F0.10064812424096752
aF0.5433586832244479
aF0.3388321458173156
aF0.39045593597194916
aF0.4413951999999998
aF0.23951680000000017
aF0.33
aa(lp158
F0.08939346283350258
aF0.5330122119217581
aF0.32662997650598025
aF0.3809066393864355
aF0.4413951999999998
aF0.23951680000000017
aF0.33
aasS'error'
p159
(dp160
g8
F14.968721806646357
sg29
F10.091765279239123
sg50
F18.841328395669056
sg71
F29.684240631049335
sg92
F16.211191206839178
sg113
F13.763165361039883
ssS'motorLog'
p161
(lp162
(lp163
F0.2
aF-0.3
aa(lp164
F0.2
aF-0.3
aa(lp165
F0.2
aF-0.3
aa(lp166
F0.2
aF-0.3
aa(lp167
F0.2
aF-0.3
aa(lp168
F0.2
aF-0.3
aa(lp169
F0.2
aF-0.3
aa(lp170
F0.2
aF-0.3
aa(lp171
F0.2
aF-0.3
aa(lp172
F0.2
aF-0.3
aa(lp173
F0.2
aF-0.3
aa(lp174
F0.3
aI0
aa(lp175
F0.3
aI0
aa(lp176
F0.3
aI0
aa(lp177
F0.3
aI0
aa(lp178
F0.3
aI0
aa(lp179
F0.3
aI0
aa(lp180
F0.3
aI0
aa(lp181
F0.2
aF-0.3
aa(lp182
F0.2
aF-0.3
aa(lp183
F0.3
aI0
aasb.