(ihardBrainTrial
HardBrainTrial
p0
(dp1
S'ball_loc'
p2
(F4.872449
F4.24259993
tp3
sS'robot_loc'
p4
(F5.322239528388489
F5.555660873520698
tp5
sS'hammerMotors'
p6
(dp7
S'25k_limitCandActs_errThresh95/'
p8
(lp9
(lp10
F0.2950113117694855
aF0.8351758122444153
aa(lp11
F0.29143744707107544
aF0.8347736597061157
aa(lp12
F0.28844255208969116
aF0.8340424299240112
aa(lp13
F0.2862199544906616
aF0.8331813216209412
aa(lp14
F0.28521010279655457
aF0.8326641321182251
aa(lp15
F0.28306829929351807
aF0.8317399024963379
aa(lp16
F0.9410767316818238
aF0.6530336916446686
aa(lp17
F0.8377877473831177
aF0.3543917834758759
aa(lp18
F0.7334712982177733
aF0.056209009885787975
aa(lp19
F0.8290724158287048
aF0.35795384645462036
aa(lp20
F0.8246287107467651
aF0.3587481677532196
aa(lp21
F0.8208224773406982
aF0.3598129153251648
aa(lp22
F0.8151517510414124
aF0.36105456948280334
aa(lp23
F0.8104292154312134
aF0.3618518114089966
aa(lp24
F0.8063875436782837
aF0.3629204332828522
aa(lp25
F0.8003717064857483
aF0.3641664981842041
aa(lp26
F0.794217050075531
aF0.36541426181793213
aa(lp27
F0.7890992164611816
aF0.3662153482437134
aa(lp28
F0.784724771976471
aF0.3672889173030853
aa(lp29
F0.7782235741615295
aF0.36854052543640137
aasS'25k'
p30
(lp31
(lp32
F0.4743344783782959
aF0.20350898802280426
aa(lp33
F0.798183798789978
aF0.4903082251548767
aa(lp34
F0.3494665324687958
aF0.16413405537605286
aa(lp35
F0.3494546413421631
aF0.1662399023771286
aa(lp36
F0.3495979607105255
aF0.1685699075460434
aa(lp37
F0.3496854603290558
aF0.17157936096191406
aa(lp38
F0.4496735394001007
aF0.47376011610031127
aa(lp39
F0.5975462198257446
aF0.456391990184784
aa(lp40
F0.4928084254264832
aF0.15463815331459047
aa(lp41
F0.5875082015991211
aF0.45263439416885376
aa(lp42
F0.5975440740585327
aF0.8288722038269043
aa(lp43
F0.7461704015731812
aF0.17910313606262207
aa(lp44
F0.7422112822532654
aF0.18059520423412323
aa(lp45
F0.7394471168518066
aF0.18164601922035217
aa(lp46
F0.7361978888511658
aF0.1828513741493225
aa(lp47
F0.7321396470069885
aF0.18436752259731293
aa(lp48
F0.5368995070457458
aF0.8120291233062744
aa(lp49
F0.5331655144691467
aF0.8098869323730469
aa(lp50
F0.5293442606925964
aF0.8076093196868896
aa(lp51
F0.5243024230003357
aF0.8046197295188904
aasS'50k'
p52
(lp53
(lp54
F0.4607970416545868
aF0.23609909415245056
aa(lp55
F0.4555216431617737
aF0.23697936534881592
aa(lp56
F0.22031275928020477
aF0.814132034778595
aa(lp57
F0.21682904660701752
aF0.8119319677352905
aa(lp58
F0.8623132109642029
aF0.8321325182914734
aa(lp59
F0.8572916388511658
aF0.8296177983283997
aa(lp60
F0.9530367612838746
aF1.1275546431541443
aa(lp61
F0.8498038649559021
aF0.8257835507392883
aa(lp62
F0.7456616401672362
aF0.5233703970909118
aa(lp63
F0.8413059711456299
aF0.821090579032898
aa(lp64
F0.8366153836250305
aF0.8188481330871582
aa(lp65
F0.8326662182807922
aF0.8169072270393372
aa(lp66
F0.7673508524894714
aF0.4225700795650482
aa(lp67
F0.7629572749137878
aF0.4213832914829254
aa(lp68
F0.7596600651741028
aF0.4197477400302887
aa(lp69
F0.7544379234313965
aF0.4178692400455475
aa(lp70
F0.7491405010223389
aF0.4159933626651764
aa(lp71
F0.7445195913314819
aF0.41481220722198486
aa(lp72
F0.7410551309585571
aF0.4131847023963928
aa(lp73
F0.735573947429657
aF0.41131600737571716
aasS'7k_1001/'
p74
(lp75
(lp76
F0.7425488233566284
aF0.01111028902232647
aa(lp77
F0.7400197982788086
aF0.011748259887099266
aa(lp78
F0.7374073266983032
aF0.012412904761731625
aa(lp79
F0.7357044816017151
aF0.012928965501487255
aa(lp80
F0.73377525806427
aF0.013456059619784355
aa(lp81
F0.9899070858955383
aF0.9894729852676392
aa(lp82
F1.0894809126853944
aF1.2890539050102234
aa(lp83
F0.9890705943107605
aF0.988654375076294
aa(lp84
F0.8885213375091552
aF0.6881086349487304
aa(lp85
F0.9879136681556702
aF0.9875447154045105
aa(lp86
F0.9873912334442139
aF0.9870370626449585
aa(lp87
F0.9868621230125427
aF0.9865440130233765
aa(lp88
F0.9861115217208862
aF0.9858332872390747
aa(lp89
F0.9855124354362488
aF0.9852569699287415
aa(lp90
F0.9849057793617249
aF0.9846972823143005
aa(lp91
F0.9840453267097473
aF0.9838907122612
aa(lp92
F0.983136773109436
aF0.9830424189567566
aa(lp93
F0.9824119210243225
aF0.9823548197746277
aa(lp94
F0.9816781878471375
aF0.9816873073577881
aa(lp95
F0.9806380867958069
aF0.9807256460189819
aasS'25k_limitCandActs'
p96
(lp97
(lp98
F0.7925596833229065
aF0.19049394130706787
aa(lp99
F0.7879178524017334
aF0.19361612200737
aa(lp100
F0.7834133505821228
aF0.19682163000106812
aa(lp101
F0.7797814607620239
aF0.19934283196926117
aa(lp102
F0.776477038860321
aF0.20189091563224792
aa(lp103
F0.8779392838478088
aF0.6741581559181213
aa(lp104
F0.9751229643821717
aF0.9740862131118775
aa(lp105
F0.8723459243774414
aF0.6738244295120239
aa(lp106
F0.6697902321815491
aF0.2081082582473755
aa(lp107
F0.7673636078834534
aF0.5085106492042542
aa(lp108
F0.7654723525047302
aF0.5088541507720947
aa(lp109
F0.8317496180534363
aF0.47125962376594543
aa(lp110
F0.8263666033744812
aF0.4702077805995941
aa(lp111
F0.8219855427742004
aF0.469736248254776
aa(lp112
F0.8180388808250427
aF0.4686306416988373
aa(lp113
F0.8123170137405396
aF0.4675796926021576
aa(lp114
F0.8064584136009216
aF0.4665292203426361
aa(lp115
F0.8016972541809082
aF0.46605828404426575
aa(lp116
F0.7974132895469666
aF0.46495452523231506
aa(lp117
F0.7394993901252747
aF0.689878523349762
aasS'20k_errThresh95/'
p118
(lp119
(lp120
F0.24899491667747498
aF0.5216007828712463
aa(lp121
F0.24668584764003754
aF0.5200948715209961
aa(lp122
F0.24455243349075317
aF0.5184534192085266
aa(lp123
F0.24283833801746368
aF0.5171870589256287
aa(lp124
F0.24206316471099854
aF0.5160654187202454
aa(lp125
F0.24041396379470825
aF0.514473021030426
aa(lp126
F0.33872110247612
aF0.8132061839103699
aa(lp127
F0.23814168572425842
aF0.512220025062561
aa(lp128
F0.1373185306787491
aF0.2113080143928528
aa(lp129
F0.6460891962051392
aF0.8370027542114258
aa(lp130
F0.6416854858398438
aF0.8349019885063171
aa(lp131
F0.638117253780365
aF0.8323085904121399
aa(lp132
F0.6327601075172424
aF0.8291197419166565
aa(lp133
F0.6282865405082703
aF0.8269385695457458
aa(lp134
F0.6246635913848877
aF0.8242467641830444
aa(lp135
F0.6192272901535034
aF0.8209381699562073
aa(lp136
F0.6137616038322449
aF0.8175813555717468
aa(lp137
F0.6092014908790588
aF0.8152865767478943
aa(lp138
F0.6055116057395935
aF0.812455952167511
aa(lp139
F0.7827377319335938
aF0.2517993748188019
aassS'ball_color'
p140
S'red'
p141
sS'sensorLog'
p142
(lp143
(lp144
F0.3925751455059924
aF0.6788958113553957
aF0.7222643494082792
aF0.4594967136654404
aF0.49897959999999986
aF0.19703997199999995
aF0.33
aa(lp145
F0.36837737436195056
aF0.6728537745797762
aF0.6990373437553312
aF0.4594967136654404
aF0.49897959999999986
aF0.20794514131999975
aF0.33
aa(lp146
F0.3455994881016292
aF0.6668117378041568
aF0.6758103381023833
aF0.4594967136654404
aF0.49897959999999986
aF0.21677832846919998
aF0.33
aa(lp147
F0.32871114849441857
aF0.6607697010285374
aF0.6525833324494353
aF0.4594967136654404
aF0.49897959999999986
aF0.21677832846919998
aF0.33
aa(lp148
F0.32027023843736946
aF0.6577486826407277
aF0.6409698296229613
aF0.4594967136654404
aF0.49897959999999986
aF0.21677832846919998
aF0.33
aa(lp149
F0.30339584472625375
aF0.6517066458651083
aF0.6177428239700135
aF0.4594967136654404
aF0.49897959999999986
aF0.21677832846919998
aF0.33
aa(lp150
F0.2865328106266285
aF0.6456646090894889
aF0.5945158183170655
aF0.4594967136654404
aF0.49897959999999986
aF0.21677832846919998
aF0.33
aa(lp151
F0.27810619922939234
aF0.6426435907016792
aF0.5829023154905915
aF0.4594967136654404
aF0.49897959999999986
aF0.21677832846919998
aF0.33
aa(lp152
F0.2640701968357334
aF0.6376085600553296
aF0.5635464774464684
aF0.4547220653726836
aF0.49897959999999986
aF0.21677832846919998
aF0.33
aa(lp153
F0.25279633835214416
aF0.6328885692536786
aF0.5482604023729841
aF0.44517276878716994
aF0.49897959999999986
aF0.21677832846919998
aF0.33
aa(lp154
F0.23583991844995825
aF0.6247833766437403
aF0.5256704521128398
aF0.44517276878716994
aF0.49897959999999986
aF0.21677832846919998
aF0.33
aa(lp155
F0.22736249989741614
aF0.620730780338771
aF0.5143754769827676
aF0.44517276878716994
aF0.49897959999999986
aF0.21677832846919998
aF0.33
aa(lp156
F0.21040956444479833
aF0.6126255877288326
aF0.4917855267226233
aF0.44517276878716994
aF0.49897959999999986
aF0.21677832846919998
aF0.33
aa(lp157
F0.19345971999387263
aF0.6045203951188942
aF0.469195576462479
aF0.44517276878716994
aF0.49897959999999986
aF0.21677832846919998
aF0.33
aa(lp158
F0.18498622242005083
aF0.600467798813925
aF0.45790060133240684
aF0.44517276878716994
aF0.49897959999999986
aF0.21677832846919998
aF0.33
aa(lp159
F0.1680427949526976
aF0.5923626062039865
aF0.4353106510722625
aF0.44517276878716994
aF0.49897959999999986
aF0.21677832846919998
aF0.33
aa(lp160
F0.15110545782928847
aF0.5842574135940481
aF0.4127207008121182
aF0.44517276878716994
aF0.49897959999999986
aF0.21677832846919998
aF0.33
aa(lp161
F0.13417651745403905
aF0.5761522209841097
aF0.3901307505519739
aF0.44517276878716994
aF0.49897959999999986
aF0.21677832846919998
aF0.33
aa(lp162
F0.12571625615347296
aF0.5720996246791404
aF0.3788357754219017
aF0.44517276878716994
aF0.49897959999999986
aF0.21677832846919998
aF0.33
aa(lp163
F0.10880742397261683
aF0.5639944320692021
aF0.3562458251617574
aF0.44517276878716994
aF0.49897959999999986
aF0.21677832846919998
aF0.33
aa(lp164
F0.09192134660609917
aF0.5558892394592636
aF0.3336558749016131
aF0.44517276878716994
aF0.49897959999999986
aF0.21677832846919998
aF0.33
aa(lp165
F0.08349115634031865
aF0.5518366431542944
aF0.3223608997715409
aF0.44517276878716994
aF0.49897959999999986
aF0.21677832846919998
aF0.33
aasS'error'
p166
(dp167
g8
F10.510681754490118
sg30
F6.97341720065142
sg52
F13.770714423883911
sg74
F24.248673851378896
sg96
F10.930561000152215
sg118
F11.38653562279199
ssS'motorLog'
p168
(lp169
(lp170
F0.3
aI0
aa(lp171
F0.3
aI0
aa(lp172
F0.3
aI0
aa(lp173
F0.3
aI0
aa(lp174
F0.3
aI0
aa(lp175
F0.3
aI0
aa(lp176
F0.3
aI0
aa(lp177
F0.2
aF-0.3
aa(lp178
F0.2
aF-0.3
aa(lp179
F0.3
aI0
aa(lp180
F0.3
aI0
aa(lp181
F0.3
aI0
aa(lp182
F0.3
aI0
aa(lp183
F0.3
aI0
aa(lp184
F0.3
aI0
aa(lp185
F0.3
aI0
aa(lp186
F0.3
aI0
aa(lp187
F0.3
aI0
aa(lp188
F0.3
aI0
aa(lp189
F0.3
aI0
aa(lp190
F0.3
aI0
aa(lp191
F0.2
aF-0.3
aasb.