(ihardBrainTrial
HardBrainTrial
p0
(dp1
S'ball_loc'
p2
(F5.070363
F4.337163
tp3
sS'robot_loc'
p4
(F4.310277216127559
F5.62017978305453
tp5
sS'hammerMotors'
p6
(dp7
S'25k_limitCandActs_errThresh95/'
p8
(lp9
(lp10
F0.31418296694755554
aF0.7974352240562439
aa(lp11
F0.3126591145992279
aF0.7984235882759094
aa(lp12
F0.21121388077735903
aF0.49894214868545533
aa(lp13
F0.310058057308197
aF0.8000007271766663
aa(lp14
F0.3069339692592621
aF0.8015121221542358
aa(lp15
F0.3029274642467499
aF0.8031415939331055
aa(lp16
F0.2993584871292114
aF0.8041155934333801
aa(lp17
F0.29697397351264954
aF0.8055667281150818
aa(lp18
F0.8755143880844116
aF0.6272775530815125
aa(lp19
F0.8730456233024597
aF0.6247473359107971
aa(lp20
F0.8708691596984863
aF0.6227155923843384
aa(lp21
F0.8692644238471985
aF0.6209391355514526
aa(lp22
F0.8344671726226807
aF0.896281361579895
aa(lp23
F0.8231241106987
aF0.3147907853126526
aa(lp24
F0.819948136806488
aF0.31693610548973083
aa(lp25
F0.817302942276001
aF0.31960147619247437
aa(lp26
F0.8133409023284912
aF0.322829931974411
aa(lp27
F0.8093137741088867
aF0.32607510685920715
aa(lp28
F0.8059505224227905
aF0.32825997471809387
aa(lp29
F0.9031511306762696
aF0.6309735953807831
aa(lp30
F0.6992115616798401
aF0.03401194214820863
aa(lp31
F0.7955563068389893
aF0.3374634087085724
aa(lp32
F0.7918204665184021
aF0.33963286876678467
aasS'25k'
p33
(lp34
(lp35
F0.21362368762493134
aF0.5094034671783447
aa(lp36
F0.8287511467933655
aF0.725715696811676
aa(lp37
F0.7279904723167419
aF0.42493070363998414
aa(lp38
F0.5560379028320312
aF0.24094052612781525
aa(lp39
F0.5496957898139954
aF0.23979203402996063
aa(lp40
F0.5425035357475281
aF0.23807664215564728
aa(lp41
F0.5368553400039673
aF0.23689453303813934
aa(lp42
F0.5316830277442932
aF0.23551952838897705
aa(lp43
F0.5244523882865906
aF0.2338254600763321
aa(lp44
F0.5471097826957703
aF0.2913972735404968
aa(lp45
F0.5444532036781311
aF0.2910032570362091
aa(lp46
F0.5417744517326355
aF0.29044264554977417
aa(lp47
F0.5382125377655029
aF0.28980764746665955
aa(lp48
F0.3685668706893921
aF0.4831547737121582
aa(lp49
F0.36361849308013916
aF0.48138248920440674
aa(lp50
F0.3589251637458801
aF0.4794558584690094
aa(lp51
F0.5800305604934692
aF0.8196437358856201
aa(lp52
F0.5729146599769592
aF0.8183907270431519
aa(lp53
F0.567538857460022
aF0.817599356174469
aa(lp54
F0.6621892809867859
aF1.1164995312690735
aa(lp55
F0.45600285530090334
aF0.5154876232147216
aa(lp56
F0.5498071312904358
aF0.8141651153564453
aa(lp57
F0.5443890690803528
aF0.8132443428039551
aasS'50k'
p58
(lp59
(lp60
F0.20470312237739563
aF0.755180835723877
aa(lp61
F0.20392580330371857
aF0.7558534145355225
aa(lp62
F0.10268921554088595
aF0.45614994764328004
aa(lp63
F0.20245389640331268
aF0.7567142248153687
aa(lp64
F0.20025523006916046
aF0.7572855353355408
aa(lp65
F0.19720040261745453
aF0.757722795009613
aa(lp66
F0.2698095142841339
aF0.13867317140102386
aa(lp67
F0.2684464454650879
aF0.13930866122245789
aa(lp68
F0.26610246300697327
aF0.1402602642774582
aa(lp69
F0.8246201872825623
aF0.8054952025413513
aa(lp70
F0.8215654492378235
aF0.8058744072914124
aa(lp71
F0.8197318315505981
aF0.8062974810600281
aa(lp72
F0.8164145946502686
aF0.8068310618400574
aa(lp73
F0.8130505681037903
aF0.8073635697364807
aa(lp74
F0.774755597114563
aF0.41708046197891235
aa(lp75
F0.7723354697227478
aF0.4150323271751404
aa(lp76
F0.7685796618461609
aF0.41264358162879944
aa(lp77
F0.7647822499275208
aF0.4102593660354614
aa(lp78
F0.7615236639976501
aF0.40872642397880554
aa(lp79
F0.8590093016624452
aF0.706691998243332
aa(lp80
F0.6553856372833252
aF0.10495842695236207
aa(lp81
F0.7520295977592468
aF0.40336817502975464
aa(lp82
F0.7485108971595764
aF0.40183642506599426
aasS'7k_1001/'
p83
(lp84
(lp85
F0.009899025782942772
aF0.5025538206100464
aa(lp86
F0.01023834478110075
aF0.5021288990974426
aa(lp87
F-0.08948534019291399
aF0.20172746181488038
aa(lp88
F0.010806867852807045
aF0.501514732837677
aa(lp89
F0.013876188546419144
aF0.47754719853401184
aa(lp90
F0.4928043782711029
aF0.016131434589624405
aa(lp91
F0.4934042990207672
aF0.01644342951476574
aa(lp92
F0.49364057183265686
aF0.016789453104138374
aa(lp93
F0.4941980242729187
aF0.0172426775097847
aa(lp94
F0.49475547671318054
aF0.01770787686109543
aa(lp95
F0.49535536766052246
aF0.018049705773591995
aa(lp96
F0.4955916404724121
aF0.018428780138492584
aa(lp97
F0.981486439704895
aF0.9818382859230042
aa(lp98
F0.9799454808235168
aF0.016624752432107925
aa(lp99
F0.9795019030570984
aF0.01700231246650219
aa(lp100
F0.984403669834137
aF0.01603248529136181
aa(lp101
F0.9840378165245056
aF0.016532450914382935
aa(lp102
F0.9836636781692505
aF0.01704753004014492
aa(lp103
F0.983361542224884
aF0.017457103356719017
aa(lp104
F1.0830867052078248
aF0.31784927397966384
aa(lp105
F0.885852837562561
aF0.6856840968132019
aa(lp106
F0.9854055047035217
aF0.9853018522262573
aa(lp107
F0.9850457906723022
aF0.9849761128425598
aasS'25k_limitCandActs'
p108
(lp109
(lp110
F0.7318499088287354
aF0.5851109623908997
aa(lp111
F0.7305020093917847
aF0.5865227580070496
aa(lp112
F0.0662431061267853
aF0.22725672721862794
aa(lp113
F0.16643480956554413
aF0.5262817740440369
aa(lp114
F0.2037268429994583
aF0.8710245490074158
aa(lp115
F0.2036939561367035
aF0.8697878122329712
aa(lp116
F0.20342907309532166
aF0.8687175512313843
aa(lp117
F0.20364457368850708
aF0.8679140210151672
aa(lp118
F0.2036115825176239
aF0.8666523098945618
aa(lp119
F0.907517671585083
aF0.1264893114566803
aa(lp120
F0.9057265520095825
aF0.12693768739700317
aa(lp121
F0.9041522145271301
aF0.12751473486423492
aa(lp122
F0.9018484950065613
aF0.12820221483707428
aa(lp123
F0.8726226091384888
aF0.2166050374507904
aa(lp124
F0.8708381652832031
aF0.21854493021965027
aa(lp125
F0.7275406122207642
aF0.5599547624588013
aa(lp126
F0.7235151529312134
aF0.558147132396698
aa(lp127
F0.7194545269012451
aF0.5563383102416992
aa(lp128
F0.7163161635398865
aF0.5548073053359985
aa(lp129
F0.8132993936538697
aF0.8536232590675354
aa(lp130
F0.6094828486442566
aF0.25200040340423585
aa(lp131
F0.7515930533409119
aF0.6959700584411621
aa(lp132
F0.7495523691177368
aF0.695766031742096
aasS'20k_errThresh95/'
p133
(lp134
(lp135
F0.24741782248020172
aF0.29395502805709844
aa(lp136
F0.7709593772888184
aF0.8125758171081543
aa(lp137
F0.6687845826148987
aF0.5118714690208435
aa(lp138
F0.7668653130531311
aF0.8111034631729126
aa(lp139
F0.7633731365203857
aF0.8099337220191956
aa(lp140
F0.7594133615493774
aF0.8085700273513794
aa(lp141
F0.7560049295425415
aF0.8074218034744263
aa(lp142
F0.7533897161483765
aF0.806510865688324
aa(lp143
F0.7493183016777039
aF0.8051289916038513
aa(lp144
F0.2882387042045593
aF0.7486216425895691
aa(lp145
F0.28906333446502686
aF0.7461992502212524
aa(lp146
F0.29022079706192017
aF0.7439311146736145
aa(lp147
F0.8311360478401184
aF0.20288924872875214
aa(lp148
F0.8275349140167236
aF0.20540492236614227
aa(lp149
F0.8246694803237915
aF0.20727799832820892
aa(lp150
F0.8220210075378418
aF0.20922043919563293
aa(lp151
F0.818270206451416
aF0.21179185807704926
aa(lp152
F0.814459502696991
aF0.21438513696193695
aa(lp153
F0.8114296197891235
aF0.21631541848182678
aa(lp154
F0.9086317777633668
aF0.5183150947093964
aa(lp155
F0.7050370812416076
aF-0.0790151536464691
aa(lp156
F0.8014690279960632
aF0.22396224737167358
aa(lp157
F0.7981686592102051
aF0.22599752247333527
aassS'ball_color'
p158
S'red'
p159
sS'sensorLog'
p160
(lp161
(lp162
F0.42179259969665306
aF0.27411088645102344
aF0.748071913221812
aF0.6194606413330717
aF0.5781452000000001
aF0.23486520000000013
aF0.33
aa(lp163
F0.4107135786484738
aF0.2848461138276406
aF0.7362103240579518
aF0.609911344747558
aF0.5781452000000001
aF0.23486520000000013
aF0.33
aa(lp164
F0.39952532367127747
aF0.2948507551818288
aF0.7237263521061272
aF0.6003620481620443
aF0.5781452000000001
aF0.23486520000000013
aF0.33
aa(lp165
F0.3939003021263633
aF0.299567747937256
aF0.7172649297127801
aF0.5955873998692875
aF0.5781452000000001
aF0.23486520000000013
aF0.33
aa(lp166
F0.37978512309323875
aF0.3105703825200443
aF0.7005659585253852
aF0.5908127515765307
aF0.5781452000000001
aF0.23486520000000013
aF0.33
aa(lp167
F0.36283595724679085
aF0.3235335383432748
aF0.68036802320757
aF0.5908127515765307
aF0.5781452000000001
aF0.23486520000000013
aF0.33
aa(lp168
F0.3458888897022485
aF0.33649669416650524
aF0.6601700878897546
aF0.5908127515765307
aF0.5781452000000001
aF0.23486520000000013
aF0.33
aa(lp169
F0.3374162415972116
aF0.3429782720781205
aF0.6500711202308469
aF0.5908127515765307
aF0.5781452000000001
aF0.23486520000000013
aF0.33
aa(lp170
F0.32047295087395916
aF0.35594142790135097
aF0.6298731849130317
aF0.5908127515765307
aF0.5781452000000001
aF0.23486520000000013
aF0.33
aa(lp171
F0.3035327072823437
aF0.3689045837245814
aF0.6096752495952164
aF0.5908127515765307
aF0.5781452000000001
aF0.23486520000000013
aF0.33
aa(lp172
F0.2865960511564064
aF0.3818677395478119
aF0.589477314277401
aF0.5908127515765307
aF0.5781452000000001
aF0.23486520000000013
aF0.33
aa(lp173
F0.2781292732033034
aF0.38834931745942713
aF0.5793783466184934
aF0.5908127515765307
aF0.5781452000000001
aF0.23486520000000013
aF0.33
aa(lp174
F0.2611993199855435
aF0.40131247328265757
aF0.5591804113006781
aF0.5908127515765307
aF0.5781452000000001
aF0.23486520000000013
aF0.33
aa(lp175
F0.24427500262866353
aF0.41427562910588805
aF0.5389824759828628
aF0.5908127515765307
aF0.5781452000000001
aF0.23486520000000013
aF0.33
aa(lp176
F0.22735757972314777
aF0.4272387849291185
aF0.5187845406650474
aF0.5908127515765307
aF0.5781452000000001
aF0.23486520000000013
aF0.33
aa(lp177
F0.2189019532387467
aF0.43372036284073373
aF0.5086855730061398
aF0.5908127515765307
aF0.5781452000000001
aF0.23486520000000013
aF0.33
aa(lp178
F0.2019981615760113
aF0.4466835186639642
aF0.4884876376883245
aF0.5908127515765307
aF0.5781452000000001
aF0.23486520000000013
aF0.33
aa(lp179
F0.1851065893706892
aF0.45964667448719465
aF0.46828970237050915
aF0.5908127515765307
aF0.5781452000000001
aF0.23486520000000013
aF0.33
aa(lp180
F0.16823091742251248
aF0.47260983031042514
aF0.4480917670526939
aF0.5908127515765307
aF0.5781452000000001
aF0.23486520000000013
aF0.33
aa(lp181
F0.15980061843124962
aF0.4790914082220404
aF0.4379927993937862
aF0.5908127515765307
aF0.5781452000000001
aF0.23486520000000013
aF0.33
aa(lp182
F0.14295953902904524
aF0.4920545640452708
aF0.4177948640759709
aF0.5908127515765307
aF0.5781452000000001
aF0.23486520000000013
aF0.33
aa(lp183
F0.1317292426019075
aF0.5004927745422435
aF0.40420299121279835
aF0.5812634549910171
aF0.5781452000000001
aF0.23486520000000013
aF0.33
aa(lp184
F0.11482196514017577
aF0.5122214545599875
aF0.3832640785132003
aF0.5812634549910171
aF0.5781452000000001
aF0.23486520000000013
aF0.33
aa(lp185
F0.10637588467197587
aF0.5180857945688594
aF0.37279462216340137
aF0.5812634549910171
aF0.5781452000000001
aF0.23486520000000013
aF0.33
aa(lp186
F0.08950597277244164
aF0.5298144745866032
aF0.3518557094638034
aF0.5812634549910171
aF0.5781452000000001
aF0.23486520000000013
aF0.33
aasS'error'
p187
(dp188
g8
F14.303771215665371
sg33
F10.662825278378758
sg58
F13.081493010788808
sg83
F11.867629462302464
sg108
F13.614324767334878
sg133
F13.400771444089589
ssS'motorLog'
p189
(lp190
(lp191
F0.2
aF-0.3
aa(lp192
F0.2
aF-0.3
aa(lp193
F0.2
aF-0.3
aa(lp194
F0.3
aI0
aa(lp195
F0.3
aI0
aa(lp196
F0.3
aI0
aa(lp197
F0.3
aI0
aa(lp198
F0.3
aI0
aa(lp199
F0.3
aI0
aa(lp200
F0.3
aI0
aa(lp201
F0.3
aI0
aa(lp202
F0.3
aI0
aa(lp203
F0.3
aI0
aa(lp204
F0.3
aI0
aa(lp205
F0.3
aI0
aa(lp206
F0.3
aI0
aa(lp207
F0.3
aI0
aa(lp208
F0.3
aI0
aa(lp209
F0.3
aI0
aa(lp210
F0.3
aI0
aa(lp211
F0.2
aF-0.3
aa(lp212
F0.3
aI0
aa(lp213
F0.3
aI0
aa(lp214
F0.3
aI0
aa(lp215
F0.3
aI0
aasb.