(ihardBrainTrial
HardBrainTrial
p0
(dp1
S'ball_loc'
p2
(F4.922326
F4.154983799999999
tp3
sS'robot_loc'
p4
(F4.469689950483476
F5.553972219776168
tp5
sS'hammerMotors'
p6
(dp7
S'25k_limitCandActs_errThresh95/'
p8
(lp9
(lp10
F0.22328128814697268
aF1.0941617369651795
aa(lp11
F0.31947678327560425
aF0.7952386140823364
aa(lp12
F0.3160759210586548
aF0.7955897450447083
aa(lp13
F0.3139849901199341
aF0.7964429259300232
aa(lp14
F0.3103524148464203
aF0.7972428798675537
aa(lp15
F0.3070048391819
aF0.797591507434845
aa(lp16
F0.3049471974372864
aF0.7984384298324585
aa(lp17
F0.8666141033172607
aF0.6189334392547607
aa(lp18
F0.8634300231933594
aF0.6159608960151672
aa(lp19
F0.8284562230110168
aF0.8918511271476746
aa(lp20
F0.8264281749725342
aF0.8905197381973267
aa(lp21
F0.8233539462089539
aF0.8886518478393555
aa(lp22
F0.8207617998123169
aF0.8871793150901794
aa(lp23
F0.818662703037262
aF0.8857977986335754
aa(lp24
F0.797089159488678
aF0.3333125710487366
aa(lp25
F0.7918568253517151
aF0.3362061679363251
aa(lp26
F0.7874970436096191
aF0.33814141154289246
aa(lp27
F0.7838230729103088
aF0.3405696451663971
aa(lp28
F0.7783438563346863
aF0.3434937596321106
aa(lp29
F0.7727660536766052
aF0.3464297652244568
aa(lp30
F0.7681236863136292
aF0.34839293360710144
aa(lp31
F0.7642152905464172
aF0.3508557081222534
aa(lp32
F0.7591710686683655
aF0.35283276438713074
aa(lp33
F0.756658136844635
aF0.3535478711128235
aa(lp34
F0.7538154721260071
aF0.355640709400177
aa(lp35
F0.8474411129951478
aF0.058639419078826915
aa(lp36
F0.6421293258666992
aF0.6604899644851685
aasS'25k'
p37
(lp38
(lp39
F0.7186745643615722
aF1.0138243913650513
aa(lp40
F0.8180926442146301
aF0.7125721573829651
aa(lp41
F0.8171351552009583
aF0.7112716436386108
aa(lp42
F0.5343570113182068
aF0.25227171182632446
aa(lp43
F0.5275718569755554
aF0.2507469952106476
aa(lp44
F0.5222055315971375
aF0.24973556399345398
aa(lp45
F0.5173757076263428
aF0.2484714388847351
aa(lp46
F0.51056969165802
aF0.24696211516857147
aa(lp47
F0.5419198870658875
aF0.30922794342041016
aa(lp48
F0.5388839840888977
aF0.30881187319755554
aa(lp49
F0.5358763933181763
aF0.30826011300086975
aa(lp50
F0.7700648903846741
aF0.8700026273727417
aa(lp51
F0.7661511301994324
aF0.8682891130447388
aa(lp52
F0.7622635364532471
aF0.8667183518409729
aa(lp53
F0.7569624185562134
aF0.8644900321960449
aa(lp54
F0.5682747960090637
aF0.8071714043617249
aa(lp55
F0.563066840171814
aF0.8058459758758545
aa(lp56
F0.5578529238700867
aF0.8042393326759338
aa(lp57
F0.5508761405944824
aF0.8022659420967102
aa(lp58
F0.5438793301582336
aF0.8002777099609375
aa(lp59
F0.5386162996292114
aF0.798916757106781
aa(lp60
F0.5333528518676758
aF0.7972673177719116
aa(lp61
F0.5288609266281128
aF0.7964447736740112
aa(lp62
F0.5279644131660461
aF0.79660564661026
aa(lp63
F0.5250122547149658
aF0.7957958579063416
aa(lp64
F0.6190386772155761
aF0.4943752408027649
aa(lp65
F0.414046847820282
aF1.0932069301605225
aasS'50k'
p66
(lp67
(lp68
F0.12633914649486544
aF1.0635635733604432
aa(lp69
F0.22295767068862915
aF0.762783944606781
aa(lp70
F0.2193027138710022
aF0.7619906663894653
aa(lp71
F0.14053428173065186
aF0.3668060898780823
aa(lp72
F0.13989819586277008
aF0.36821281909942627
aa(lp73
F0.1392376571893692
aF0.3693636357784271
aa(lp74
F0.13894857466220856
aF0.3703271448612213
aa(lp75
F0.8164225220680237
aF0.798655092716217
aa(lp76
F0.8125340342521667
aF0.7983514666557312
aa(lp77
F0.8088654279708862
aF0.7980573177337646
aa(lp78
F0.8065829873085022
aF0.7978953719139099
aa(lp79
F0.8025364279747009
aF0.7975909113883972
aa(lp80
F0.5947428941726685
aF0.4601763188838959
aa(lp81
F0.5904717445373535
aF0.46181607246398926
aa(lp82
F0.5841065645217896
aF0.4643804132938385
aa(lp83
F0.5777131915092468
aF0.4669466018676758
aa(lp84
F0.5724102854728699
aF0.46915528178215027
aa(lp85
F0.747275173664093
aF0.4149550199508667
aa(lp86
F0.7425923943519592
aF0.41255447268486023
aa(lp87
F0.7378533482551575
aF0.41015806794166565
aa(lp88
F0.7337683439254761
aF0.4086275100708008
aa(lp89
F0.7306404709815979
aF0.40657156705856323
aa(lp90
F0.7269510626792908
aF0.4056186079978943
aa(lp91
F0.7268496751785278
aF0.40596306324005127
aa(lp92
F0.7260265946388245
aF0.4048249423503876
aa(lp93
F0.8224746942520142
aF0.1031919836997986
aa(lp94
F0.6191477417945862
aF0.7017882645130158
aasS'7k_1001/'
p95
(lp96
(lp97
F-0.08825370240956543
aF0.8019566416740418
aa(lp98
F0.029097942635416985
aF0.07728875428438187
aa(lp99
F0.029664810746908188
aF0.07852943241596222
aa(lp100
F0.015664614737033844
aF0.4831728935241699
aa(lp101
F0.49339765310287476
aF0.01848246529698372
aa(lp102
F0.4939571022987366
aF0.018974190577864647
aa(lp103
F0.49413368105888367
aF0.01952049322426319
aa(lp104
F0.49462437629699707
aF0.020244037732481956
aa(lp105
F0.4951150715351105
aF0.020993823185563087
aa(lp106
F0.49567458033561707
aF0.021550891920924187
aa(lp107
F0.49585115909576416
aF0.022169701755046844
aa(lp108
F0.976532518863678
aF0.01976737007498741
aa(lp109
F0.9758328795433044
aF0.020360486581921577
aa(lp110
F0.9809117913246155
aF0.01938905194401741
aa(lp111
F0.9802687764167786
aF0.02017604373395443
aa(lp112
F0.9796045422554016
aF0.020994288846850395
aa(lp113
F0.9790759086608887
aF0.02164509706199169
aa(lp114
F0.9785670042037964
aF0.022282853722572327
aa(lp115
F0.9778468608856201
aF0.023184489458799362
aa(lp116
F0.977103054523468
aF0.024121688678860664
aa(lp117
F0.9765111804008484
aF0.02486693114042282
aa(lp118
F0.9759414792060852
aF0.025597060099244118
aa(lp119
F0.975391149520874
aF0.026250889524817467
aa(lp120
F0.9753017425537109
aF0.026281068101525307
aa(lp121
F0.974993109703064
aF0.02662753500044346
aa(lp122
F1.074300265312195
aF-0.27255665250122546
aa(lp123
F0.8738142490386962
aF0.3280383713543415
aasS'25k_limitCandActs'
p124
(lp125
(lp126
F0.0707371771335602
aF0.8337649583816529
aa(lp127
F0.17086221277713776
aF0.5308456420898438
aa(lp128
F0.21196392178535461
aF0.8674614429473877
aa(lp129
F0.21246038377285004
aF0.866098940372467
aa(lp130
F0.21279411017894745
aF0.8640580177307129
aa(lp131
F0.21279752254486084
aF0.8623541593551636
aa(lp132
F0.21329541504383087
aF0.8609476089477539
aa(lp133
F0.9021905660629272
aF0.13409312069416046
aa(lp134
F0.8993796110153198
aF0.1353921741247177
aa(lp135
F0.8970887660980225
aF0.13628685474395752
aa(lp136
F0.8950287103652954
aF0.13736064732074738
aa(lp137
F0.8920366168022156
aF0.13868629932403564
aa(lp138
F0.8895991444587708
aF0.13959921896457672
aa(lp139
F0.8874079585075378
aF0.14069485664367676
aa(lp140
F0.7129477858543396
aF0.5532088279724121
aa(lp141
F0.7082692980766296
aF0.5507381558418274
aa(lp142
F0.7046493887901306
aF0.5486907958984375
aa(lp143
F0.7011683583259583
aF0.547027587890625
aa(lp144
F0.6963797807693481
aF0.544550895690918
aa(lp145
F0.6915483474731445
aF0.542072057723999
aa(lp146
F0.6878125667572021
aF0.5400183200836182
aa(lp147
F0.684222400188446
aF0.5383500456809998
aa(lp148
F0.6812213659286499
aF0.5357924103736877
aa(lp149
F0.68062424659729
aF0.5348943471908569
aa(lp150
F0.7257301807403564
aF0.6789808869361877
aa(lp151
F0.8230405807495118
aF0.3779800057411194
aa(lp152
F0.6206993103027344
aF0.9775351762771607
aasS'20k_errThresh95/'
p153
(lp154
(lp155
F0.6704521417617798
aF1.1134911060333252
aa(lp156
F0.7600850462913513
aF0.3483268916606903
aa(lp157
F0.756557822227478
aF0.3495886027812958
aa(lp158
F0.7533211708068848
aF0.35117998719215393
aa(lp159
F0.7552885413169861
aF0.8053408861160278
aa(lp160
F0.7512397170066833
aF0.8033348917961121
aa(lp161
F0.7481340169906616
aF0.8016144037246704
aa(lp162
F0.29538494348526
aF0.7432752847671509
aa(lp163
F0.2970121204853058
aF0.739446222782135
aa(lp164
F0.29800498485565186
aF0.7364237308502197
aa(lp165
F0.29946252703666687
aF0.7336336970329285
aa(lp166
F0.817652702331543
aF0.2148377150297165
aa(lp167
F0.8142633438110352
aF0.2169238030910492
aa(lp168
F0.8111070394515991
aF0.21912190318107605
aa(lp169
F0.806644082069397
aF0.22201195359230042
aa(lp170
F0.8021013736724854
aF0.22492912411689758
aa(lp171
F0.798494279384613
aF0.22708480060100555
aa(lp172
F0.7951375246047974
aF0.229355588555336
aa(lp173
F0.7903949618339539
aF0.23234030604362488
aa(lp174
F0.7855722308158875
aF0.23535190522670746
aa(lp175
F0.7817460894584656
aF0.2375766634941101
aa(lp176
F0.7781882286071777
aF0.2399194836616516
aa(lp177
F0.774770200252533
aF0.24093443155288696
aa(lp178
F0.7740321159362793
aF0.24063719809055328
aa(lp179
F0.7721734046936035
aF0.24128791689872742
aa(lp180
F0.8678447961807252
aF-0.05679931044578551
aa(lp181
F0.6641915082931519
aF0.5445447146892548
aassS'ball_color'
p182
S'red'
p183
sS'sensorLog'
p184
(lp185
(lp186
F0.41588921525134903
aF0.33787598019339027
aF0.7215888879104672
aF0.5395498993362895
aF0.5189304
aF0.1619935199999997
aF0.33
aa(lp187
F0.40173303133516874
aF0.34204288264111254
aF0.7061428745636181
aF0.5490991959218032
aF0.5189304
aF0.16624504799999967
aF0.33
aa(lp188
F0.384763051405594
aF0.3493299827378998
aF0.6832759077297897
aF0.5490991959218032
aF0.5189304
aF0.16624504799999967
aF0.33
aa(lp189
F0.37627808115481276
aF0.3529735327862934
aF0.6718424243128756
aF0.5490991959218032
aF0.5189304
aF0.16624504799999967
aF0.33
aa(lp190
F0.35930818473667414
aF0.3602606328830806
aF0.6489754574790471
aF0.5490991959218032
aF0.5189304
aF0.16624504799999967
aF0.33
aa(lp191
F0.3423383543805613
aF0.3675477329798678
aF0.6261084906452187
aF0.5490991959218032
aF0.5189304
aF0.16624504799999967
aF0.33
aa(lp192
F0.3338534671238389
aF0.37119128302826143
aF0.6146750072283045
aF0.5490991959218032
aF0.5189304
aF0.16624504799999967
aF0.33
aa(lp193
F0.3168837559292855
aF0.3784783831250486
aF0.591808040394476
aF0.5490991959218032
aF0.5189304
aF0.16624504799999967
aF0.33
aa(lp194
F0.2999141411022569
aF0.38576548322183585
aF0.5689410735606476
aF0.5490991959218032
aF0.5189304
aF0.16624504799999967
aF0.33
aa(lp195
F0.2829446399816908
aF0.39305258331862303
aF0.5460741067268191
aF0.5490991959218032
aF0.5189304
aF0.16624504799999967
aF0.33
aa(lp196
F0.2744599386522643
aF0.39669613336701665
aF0.5346406233099049
aF0.5490991959218032
aF0.5189304
aF0.16624504799999967
aF0.33
aa(lp197
F0.2574906506774272
aF0.4039832334638039
aF0.5117736564760765
aF0.5490991959218032
aF0.5189304
aF0.16624504799999967
aF0.33
aa(lp198
F0.24052154258522393
aF0.41127033356059106
aF0.4889066896422481
aF0.5490991959218032
aF0.5189304
aF0.16624504799999967
aF0.33
aa(lp199
F0.23203706832794
aF0.4149138836089847
aF0.47747320622533385
aF0.5490991959218032
aF0.5189304
aF0.16624504799999967
aF0.33
aa(lp200
F0.21506831086780764
aF0.4222009837057719
aF0.45460623939150546
aF0.5490991959218032
aF0.5189304
aF0.16624504799999967
aF0.33
aa(lp201
F0.1980998626977047
aF0.4294880838025591
aF0.431739272557677
aF0.5490991959218032
aF0.5189304
aF0.16624504799999967
aF0.33
aa(lp202
F0.18113181074062515
aF0.43677518389934633
aF0.4088723057238486
aF0.5490991959218032
aF0.5189304
aF0.16624504799999967
aF0.33
aa(lp203
F0.17264796984860764
aF0.44041873394773995
aF0.3974388223069344
aF0.5490991959218032
aF0.5189304
aF0.16624504799999967
aF0.33
aa(lp204
F0.1556807591007634
aF0.44770583404452713
aF0.37457185547310595
aF0.5490991959218032
aF0.5189304
aF0.16624504799999967
aF0.33
aa(lp205
F0.13871436845382962
aF0.45499293414131436
aF0.3517048886392775
aF0.5490991959218032
aF0.5189304
aF0.16624504799999967
aF0.33
aa(lp206
F0.12174914076456697
aF0.4622800342381016
aF0.3288379218054491
aF0.5490991959218032
aF0.5189304
aF0.16624504799999967
aF0.33
aa(lp207
F0.11326712633238786
aF0.46592358428649516
aF0.3174044383885349
aF0.5490991959218032
aF0.5189304
aF0.16624504799999967
aF0.33
aa(lp208
F0.09630482422484692
aF0.4732106843832824
aF0.29453747155470644
aF0.5490991959218032
aF0.5189304
aF0.16624504799999967
aF0.33
aa(lp209
F0.10303522005183667
aF0.476854234431676
aF0.28310398813779225
aF0.5490991959218032
aF0.5282119827647385
aF0.14674088892093878
aF0.33
aa(lp210
F0.10750611719301244
aF0.4775829444413546
aF0.2808172914544095
aF0.5490991959218032
aF0.5319710237844575
aF0.13884170449391925
aF0.33
aa(lp211
F0.10112470177369191
aF0.4848700445381418
aF0.25795032462058104
aF0.5490991959218032
aF0.5383989839281768
aF0.1253340991237156
aF0.33
aa(lp212
F0.09277155829620369
aF0.492157144634929
aF0.2350833577867526
aF0.5490991959218032
aF0.5436056316445896
aF0.11439293877385062
aF0.33
aa(lp213
F0.08515080487252899
aF0.4972427537525146
aF0.21991500308945575
aF0.5586484925073169
aF0.5458253077763235
aF0.10972854936153986
aF0.33
aa(lp214
F0.08292021124341058
aF0.5015653448517963
aF0.20872057562806176
aF0.5586484925073169
aF0.5496209539615883
aF0.10175244346648818
aF0.33
aasS'error'
p215
(dp216
g8
F15.577033587624374
sg37
F15.240268888393093
sg66
F11.838546889212909
sg95
F8.636895241094102
sg124
F13.190187913649282
sg153
F11.3536012045525
ssS'motorLog'
p217
(lp218
(lp219
F0.2
aF0.3
aa(lp220
F0.3
aI0
aa(lp221
F0.3
aI0
aa(lp222
F0.3
aI0
aa(lp223
F0.3
aI0
aa(lp224
F0.3
aI0
aa(lp225
F0.3
aI0
aa(lp226
F0.3
aI0
aa(lp227
F0.3
aI0
aa(lp228
F0.3
aI0
aa(lp229
F0.3
aI0
aa(lp230
F0.3
aI0
aa(lp231
F0.3
aI0
aa(lp232
F0.3
aI0
aa(lp233
F0.3
aI0
aa(lp234
F0.3
aI0
aa(lp235
F0.3
aI0
aa(lp236
F0.3
aI0
aa(lp237
F0.3
aI0
aa(lp238
F0.3
aI0
aa(lp239
F0.3
aI0
aa(lp240
F0.3
aI0
aa(lp241
F0.3
aI0
aa(lp242
F0.3
aI0
aa(lp243
F0.3
aI0
aa(lp244
F0.3
aI0
aa(lp245
F0.2
aF0.3
aa(lp246
F0.3
aI0
aa(lp247
F0.3
aI0
aasb.