(ihardBrainTrial
HardBrainTrial
p0
(dp1
S'ball_loc'
p2
(F4.629088
F4.215790837
tp3
sS'robot_loc'
p4
(F4.983995267157209
F5.286786542789318
tp5
sS'hammerMotors'
p6
(dp7
S'25k_limitCandActs_errThresh95/'
p8
(lp9
(lp10
F0.8047334551811218
aF0.546085774898529
aa(lp11
F0.8021200895309448
aF0.5468273758888245
aa(lp12
F0.7998857498168945
aF0.546988308429718
aa(lp13
F0.7966858148574829
aF0.5472861528396606
aa(lp14
F0.26809086799621584
aF0.41085673570632936
aa(lp15
F0.36593589186668396
aF0.7094455361366272
aa(lp16
F0.8063985705375671
aF0.3467557430267334
aa(lp17
F0.8003814816474915
aF0.3480777144432068
aa(lp18
F0.7953749299049377
aF0.3489305078983307
aa(lp19
F0.8473123908042908
aF0.2503418028354645
aa(lp20
F0.8438783288002014
aF0.2540053129196167
aa(lp21
F0.840381920337677
aF0.25770366191864014
aa(lp22
F0.8375372886657715
aF0.26091575622558594
aa(lp23
F0.835019588470459
aF0.26331570744514465
aa(lp24
F0.8313658237457275
aF0.2670994997024536
aa(lp25
F0.927648937702179
aF0.5709165215492249
aa(lp26
F0.8247418999671936
aF0.2740692496299744
aa(lp27
F0.7222638964653014
aF-0.023495393991470326
aa(lp28
F0.7382120490074158
aF0.36236175894737244
aa(lp29
F0.7313467264175415
aF0.3638134300708771
aa(lp30
F0.7252562046051025
aF0.36573711037635803
aa(lp31
F0.7164182066917419
aF0.36802735924720764
aa(lp32
F0.7086600065231323
aF0.37036198377609253
aa(lp33
F0.7022990584373474
aF0.37234896421432495
aa(lp34
F0.6951309442520142
aF0.3735886812210083
aa(lp35
F0.6915526986122131
aF0.3744906783103943
aasS'25k'
p36
(lp37
(lp38
F0.3615865111351013
aF0.5524763464927673
aa(lp39
F0.3612215220928192
aF0.5523859262466431
aa(lp40
F0.3611661195755005
aF0.5524271130561829
aa(lp41
F0.862960159778595
aF0.7997686862945557
aa(lp42
F0.7606801033020019
aF0.497612726688385
aa(lp43
F0.8588197231292725
aF0.7957339286804199
aa(lp44
F0.8845396041870117
aF0.4027153253555298
aa(lp45
F0.878288209438324
aF0.40204888582229614
aa(lp46
F0.7881484031677246
aF0.16924189031124115
aa(lp47
F0.5464048385620117
aF0.8296732306480408
aa(lp48
F0.5412470102310181
aF0.8269782662391663
aa(lp49
F0.5360812544822693
aF0.8242499232292175
aa(lp50
F0.5322425365447998
aF0.8222405910491943
aa(lp51
F0.5283210873603821
aF0.8200947046279907
aa(lp52
F0.5231422781944275
aF0.8172827363014221
aa(lp53
F0.6179618000984192
aF1.1144375681877137
aa(lp54
F0.5144648551940918
aF0.8125799298286438
aa(lp55
F0.4118997097015381
aF0.5110174536705017
aa(lp56
F0.5084632635116577
aF0.8081543445587158
aa(lp57
F0.5058397054672241
aF0.8057053685188293
aa(lp58
F0.5035120248794556
aF0.8028503060340881
aa(lp59
F0.5000193119049072
aF0.7992123961448669
aa(lp60
F0.49844908714294434
aF0.7959509491920471
aa(lp61
F0.4963221251964569
aF0.7928264141082764
aa(lp62
F0.4934673309326172
aF0.7903136610984802
aa(lp63
F0.4929914176464081
aF0.7890885472297668
aasS'50k'
p64
(lp65
(lp66
F0.8450236916542053
aF0.8141427040100098
aa(lp67
F0.8420565724372864
aF0.8127202987670898
aa(lp68
F0.8396185636520386
aF0.811227560043335
aa(lp69
F0.8359609246253967
aF0.8090061545372009
aa(lp70
F0.7321794271469115
aF0.5066903352737426
aa(lp71
F0.8286041021347046
aF0.8048457503318787
aa(lp72
F0.8245224952697754
aF0.802829384803772
aa(lp73
F0.77447909116745
aF0.43042346835136414
aa(lp74
F0.7701842784881592
aF0.42920324206352234
aa(lp75
F0.7669563293457031
aF0.42752355337142944
aa(lp76
F0.7618458271026611
aF0.42559322714805603
aa(lp77
F0.7566596269607544
aF0.4236654043197632
aa(lp78
F0.7521365284919739
aF0.42245063185691833
aa(lp79
F0.7487400770187378
aF0.42077869176864624
aa(lp80
F0.7433683276176453
aF0.4188578128814697
aa(lp81
F0.8379247546195985
aF0.7169401824474335
aa(lp82
F0.7333831787109375
aF0.4160077273845673
aa(lp83
F0.6308938503265381
aF0.1158543348312378
aa(lp84
F0.7521150708198547
aF0.6195099949836731
aa(lp85
F0.7469990253448486
aF0.6150215268135071
aa(lp86
F0.7442550659179688
aF0.611015260219574
aa(lp87
F0.7384975552558899
aF0.6051604747772217
aa(lp88
F0.7341174483299255
aF0.6003870368003845
aa(lp89
F0.7316548228263855
aF0.5964452028274536
aa(lp90
F0.7261135578155518
aF0.5919636487960815
aa(lp91
F0.7241933941841125
aF0.59002286195755
aasS'7k_1001/'
p92
(lp93
(lp94
F0.5138244032859802
aF0.49563962221145635
aa(lp95
F0.5138700008392334
aF0.49532139301300054
aa(lp96
F0.5138930678367615
aF0.4952369630336762
aa(lp97
F0.9907084107398987
aF0.9907707571983337
aa(lp98
F0.8902630448341369
aF0.6903534054756164
aa(lp99
F0.9898853302001953
aF0.9900142550468445
aa(lp100
F0.9894633293151855
aF0.9896365404129028
aa(lp101
F0.9888646006584167
aF0.9890919327735901
aa(lp102
F0.9883866906166077
aF0.9886502027511597
aa(lp103
F0.9879029989242554
aF0.9882215857505798
aa(lp104
F0.9872169494628906
aF0.9876036643981934
aa(lp105
F0.9833385944366455
aF0.01760818064212799
aa(lp106
F0.9827015399932861
aF0.0183437280356884
aa(lp107
F0.9820488691329956
aF0.019086522981524467
aa(lp108
F0.9811353087425232
aF0.020138641819357872
aa(lp109
F1.0801765680313111
aF0.32124700881540774
aa(lp110
F0.9794527292251587
aF0.022094903513789177
aa(lp111
F0.8786916971206664
aF-0.2770944695919752
aa(lp112
F0.9775537252426147
aF0.024103153496980667
aa(lp113
F0.9765118360519409
aF0.025194944813847542
aa(lp114
F0.9754208326339722
aF0.026302341371774673
aa(lp115
F0.973828911781311
aF0.027939075604081154
aa(lp116
F0.9724324345588684
aF0.029317812994122505
aa(lp117
F0.9711949229240417
aF0.03056659922003746
aa(lp118
F0.9699395298957825
aF0.03190220519900322
aa(lp119
F0.9693339467048645
aF0.032481931149959564
aasS'25k_limitCandActs'
p120
(lp121
(lp122
F0.8843790888786316
aF0.8505520224571228
aa(lp123
F0.8825439214706421
aF0.8493220210075378
aa(lp124
F0.8808475732803345
aF0.8478593230247498
aa(lp125
F0.7857445478439331
aF0.5293965935707092
aa(lp126
F0.6834740281105042
aF0.22952706813812257
aa(lp127
F0.7817102074623108
aF0.52977055311203
aa(lp128
F0.6131581664085388
aF0.12035971134901047
aa(lp129
F0.8541297912597656
aF0.4757292866706848
aa(lp130
F0.8503056764602661
aF0.4751960039138794
aa(lp131
F0.7535941004753113
aF0.6867992281913757
aa(lp132
F0.7072128057479858
aF0.5535678863525391
aa(lp133
F0.7021206617355347
aF0.5501379370689392
aa(lp134
F0.6981810331344604
aF0.5473462343215942
aa(lp135
F0.6943899393081665
aF0.5449846386909485
aa(lp136
F0.6891764402389526
aF0.5415442585945129
aa(lp137
F0.7839171648025512
aF0.8381006002426148
aa(lp138
F0.6801040172576904
aF0.5355217456817627
aa(lp139
F0.5772103309631348
aF0.23373920917510987
aa(lp140
F0.6730649471282959
aF0.5311504006385803
aa(lp141
F0.6693854928016663
aF0.5282323956489563
aa(lp142
F0.6660789251327515
aF0.5260832905769348
aa(lp143
F0.6611611247062683
aF0.5226203203201294
aa(lp144
F0.6579263210296631
aF0.5201413035392761
aa(lp145
F0.6975564956665039
aF0.6511971354484558
aa(lp146
F0.6934634447097778
aF0.648432731628418
aa(lp147
F0.6916723847389221
aF0.6471428871154785
aasS'20k_errThresh95/'
p148
(lp149
(lp150
F0.2270430475473404
aF0.493467926979065
aa(lp151
F0.2257179170846939
aF0.49329409003257757
aa(lp152
F0.22542031109333038
aF0.49294435977935797
aa(lp153
F0.22490233182907104
aF0.49254068732261663
aa(lp154
F0.12445523738861086
aF0.1920923113822937
aa(lp155
F0.22365978360176086
aF0.491678386926651
aa(lp156
F0.8793967962265015
aF0.848121166229248
aa(lp157
F0.875998318195343
aF0.8458964228630066
aa(lp158
F0.8298448920249939
aF0.20627295970916748
aa(lp159
F0.8265790939331055
aF0.20852555334568024
aa(lp160
F0.8219876289367676
aF0.21140967309474945
aa(lp161
F0.8173022866249084
aF0.21432220935821533
aa(lp162
F0.8136014342308044
aF0.21641328930854797
aa(lp163
F0.8100976943969727
aF0.21874366700649261
aa(lp164
F0.8051770925521851
aF0.221725732088089
aa(lp165
F0.9001631498336793
aF0.5247343957424164
aa(lp166
F0.7964890003204346
aF0.22684520483016973
aa(lp167
F0.693748676776886
aF-0.0711743265390396
aa(lp168
F0.7894277572631836
aF0.23172445595264435
aa(lp169
F0.7855404019355774
aF0.23316164314746857
aa(lp170
F0.7819117903709412
aF0.23500123620033264
aa(lp171
F0.7767292261123657
aF0.2372349202632904
aa(lp172
F0.7727611660957336
aF0.23854924738407135
aa(lp173
F0.769004762172699
aF0.24061982333660126
aa(lp174
F0.7648061513900757
aF0.24229414761066437
aa(lp175
F0.7631919980049133
aF0.24263857305049896
aassS'ball_color'
p176
S'green'
p177
sS'sensorLog'
p178
(lp179
(lp180
F0.31912266859297
aF0.5435981068628838
aF0.6147146171157271
aF0.4932662094906786
aF0.40163520000000014
aF0.18631633480000004
aF0.67
aa(lp181
F0.3016540304992993
aF0.5426817573623282
aF0.5987426821073225
aF0.483716912905165
aF0.40163520000000014
aF0.1961309871880001
aF0.67
aa(lp182
F0.2933689283653836
aF0.5418647072562063
aF0.5907845146597197
aF0.47894226461240813
aF0.40163520000000014
aF0.20031512846920024
aF0.67
aa(lp183
F0.2822850763735678
aF0.5395165321202935
aF0.5749595825002775
aF0.4693929680268945
aF0.40163520000000014
aF0.20031512846920024
aF0.67
aa(lp184
F0.2710968591242801
aF0.5362236560972171
aF0.5593039326633491
aF0.45984367144138083
aF0.40163520000000014
aF0.20031512846920024
aF0.67
aa(lp185
F0.25983367445768946
aF0.5319979299847812
aF0.5438739085822742
aF0.45029437485586715
aF0.40163520000000014
aF0.20031512846920024
aF0.67
aa(lp186
F0.2513595114162589
aF0.5283108414071535
aF0.5324543911747511
aF0.45029437485586715
aF0.40163520000000014
aF0.20031512846920024
aF0.67
aa(lp187
F0.23441359852598168
aF0.520936664251898
aF0.5096153563597049
aF0.45029437485586715
aF0.40163520000000014
aF0.20031512846920024
aF0.67
aa(lp188
F0.21747153001804737
aF0.5135624870966424
aF0.48677632154465866
aF0.45029437485586715
aF0.40163520000000014
aF0.20031512846920024
aF0.67
aa(lp189
F0.2090022295709777
aF0.5098753985190146
aF0.47535680413713555
aF0.45029437485586715
aF0.40163520000000014
aF0.20031512846920024
aF0.67
aa(lp190
F0.19206786082045588
aF0.5025012213637592
aF0.4525177693220893
aF0.45029437485586715
aF0.40163520000000014
aF0.20031512846920024
aF0.67
aa(lp191
F0.17514049889920663
aF0.4951270442085036
aF0.4296787345070431
aF0.45029437485586715
aF0.40163520000000014
aF0.20031512846920024
aF0.67
aa(lp192
F0.15822239269202903
aF0.4877528670532481
aF0.40683969969199685
aF0.45029437485586715
aF0.40163520000000014
aF0.20031512846920024
aF0.67
aa(lp193
F0.1497677907510773
aF0.4840657784756203
aF0.39542018228447373
aF0.45029437485586715
aF0.40163520000000014
aF0.20031512846920024
aF0.67
aa(lp194
F0.1328703215206545
aF0.4766916013203648
aF0.3725811474694275
aF0.45029437485586715
aF0.40163520000000014
aF0.20031512846920024
aF0.67
aa(lp195
F0.11599419612875632
aF0.4693174241651093
aF0.34974211265438127
aF0.45029437485586715
aF0.40163520000000014
aF0.20031512846920024
aF0.67
aa(lp196
F0.0991503138175635
aF0.4619432470098538
aF0.32690307783933503
aF0.45029437485586715
aF0.40163520000000014
aF0.20031512846920024
aF0.67
aa(lp197
F0.09354586287829793
aF0.4594851879581018
aF0.31929006623431955
aF0.44551972656311034
aF0.40163520000000014
aF0.20031512846920024
aF0.67
aa(lp198
F0.09237847644552602
aF0.45388973630896423
aF0.30430229371262596
aF0.43597042997759666
aF0.39710153735794584
aF0.18664743286796437
aF0.67
aa(lp199
F0.08319701527302215
aF0.4444926651032137
aF0.2822184749134678
aF0.43597042997759666
aF0.39361288395488536
aF0.17613014110281355
aF0.67
aa(lp200
F0.08996589277298751
aF0.43979412950033847
aF0.2711765655138887
aF0.43597042997759666
aF0.3855045630981596
aF0.1561097731520391
aF0.67
aa(lp201
F0.08474244693062333
aF0.43039705829458796
aF0.2490927467147305
aF0.43597042997759666
aF0.37926521019890913
aF0.14070410001391842
aF0.67
aa(lp202
F0.08915981279354769
aF0.42099998708883746
aF0.2270089279155723
aF0.43597042997759666
aF0.36330462930705
aF0.1148920686797819
aF0.67
aa(lp203
F0.10134225666517775
aF0.4163014514859622
aF0.2159670185159932
aF0.43597042997759666
aF0.3523984239690094
aF0.08768253369507377
aF0.67
aa(lp204
F0.09052429245070567
aF0.4069043802802117
aF0.19388319971683501
aF0.43597042997759666
aF0.3496583793855432
aF0.07937472654272497
aF0.67
aa(lp205
F0.09252708870076344
aF0.40220584467733644
aF0.1828412903172559
aF0.43597042997759666
aF0.34497290314781603
aF0.06516837631220848
aF0.67
aa(lp206
F0.09932882437939396
aF0.4012661375567614
aF0.18063290843734023
aF0.43597042997759666
aF0.341177667395257
aF0.053661232625490204
aF0.67
aa(lp207
F0.10125867308198781
aF0.4003264304361863
aF0.17842452655742455
aF0.43597042997759666
aF0.3395596984691661
aF0.048755555580099676
aF0.67
aasS'error'
p208
(dp209
g8
F12.840739847511701
sg36
F20.26585384414174
sg64
F18.90480869233062
sg92
F22.035389741897223
sg120
F17.633696057228672
sg148
F11.1398638855424
ssS'motorLog'
p210
(lp211
(lp212
F0.2
aF-0.3
aa(lp213
F0.2
aF-0.3
aa(lp214
F0.2
aF-0.3
aa(lp215
F0.2
aF-0.3
aa(lp216
F0.2
aF-0.3
aa(lp217
F0.3
aI0
aa(lp218
F0.3
aI0
aa(lp219
F0.3
aI0
aa(lp220
F0.3
aI0
aa(lp221
F0.3
aI0
aa(lp222
F0.3
aI0
aa(lp223
F0.3
aI0
aa(lp224
F0.3
aI0
aa(lp225
F0.3
aI0
aa(lp226
F0.3
aI0
aa(lp227
F0.3
aI0
aa(lp228
F0.2
aF-0.3
aa(lp229
F0.2
aF-0.3
aa(lp230
F0.3
aI0
aa(lp231
F0.3
aI0
aa(lp232
F0.3
aI0
aa(lp233
F0.3
aI0
aa(lp234
F0.3
aI0
aa(lp235
F0.3
aI0
aa(lp236
F0.3
aI0
aa(lp237
F0.3
aI0
aa(lp238
F0.3
aI0
aa(lp239
F0.3
aI0
aasb.