(ihardBrainTrial
HardBrainTrial
p0
(dp1
S'ball_loc'
p2
(F4.740026
F4.1624860706406
tp3
sS'robot_loc'
p4
(F4.650038753634926
F5.48964785241363
tp5
sS'hammerMotors'
p6
(dp7
S'25k_limitCandActs_errThresh95/'
p8
(lp9
(lp10
F0.3031741678714752
aF0.8288741707801819
aa(lp11
F0.30170938372612
aF0.8279906511306763
aa(lp12
F0.3008851706981659
aF0.8273133635520935
aa(lp13
F0.29919055104255676
aF0.8263717889785767
aa(lp14
F0.2973625361919403
aF0.8255165815353394
aa(lp15
F0.295500248670578
aF0.8248248100280762
aa(lp16
F0.2943747639656067
aF0.8244085311889648
aa(lp17
F0.29222288727760315
aF0.8237941265106201
aa(lp18
F0.2899467945098877
aF0.8232848644256592
aa(lp19
F0.2877241373062134
aF0.8228394985198975
aa(lp20
F0.2863084375858307
aF0.8227273225784302
aa(lp21
F0.2837400436401367
aF0.8224985599517822
aa(lp22
F0.28106340765953064
aF0.8223876357078552
aa(lp23
F0.8337026834487915
aF0.8899446129798889
aa(lp24
F0.8322262167930603
aF0.8889675736427307
aa(lp25
F0.8301660418510437
aF0.8876922726631165
aa(lp26
F0.8285433053970337
aF0.8867521286010742
aa(lp27
F0.8271481990814209
aF0.8859233856201172
aa(lp28
F0.8251972198486328
aF0.8848510980606079
aa(lp29
F0.823305070400238
aF0.8838726878166199
aa(lp30
F0.8218146562576294
aF0.8831605315208435
aa(lp31
F0.7205968141555785
aF1.1825960755348206
aa(lp32
F0.8185256719589233
aF0.8813543915748596
aa(lp33
F0.764316201210022
aF0.3275286555290222
aa(lp34
F0.7605166435241699
aF0.3300091624259949
aa(lp35
F0.7548540830612183
aF0.33300113677978516
aa(lp36
F0.7491017580032349
aF0.33600667119026184
aa(lp37
F0.7443189024925232
aF0.3380201756954193
aa(lp38
F0.740306556224823
aF0.3405399024486542
aa(lp39
F0.7336952686309814
aF0.34383624792099
aa(lp40
F0.7275816202163696
aF0.3462716042995453
aa(lp41
F0.7227948307991028
aF0.34889015555381775
aa(lp42
F0.7162458300590515
aF0.3519405722618103
aasS'25k'
p43
(lp44
(lp45
F0.5772612690925598
aF0.3002787232398987
aa(lp46
F0.576049268245697
aF0.29875490069389343
aa(lp47
F0.5750294923782349
aF0.2968961000442505
aa(lp48
F0.5732150077819824
aF0.2945592403411865
aa(lp49
F0.5711426138877869
aF0.29215767979621887
aa(lp50
F0.5692312121391296
aF0.29046866297721863
aa(lp51
F0.5675587058067322
aF0.2884363532066345
aa(lp52
F0.5648596882820129
aF0.28587818145751953
aa(lp53
F0.5619196891784668
aF0.28326016664505005
aa(lp54
F0.5593550801277161
aF0.28141218423843384
aa(lp55
F0.5570728182792664
aF0.27922558784484863
aa(lp56
F0.5535619258880615
aF0.27646762132644653
aa(lp57
F0.8375300765037537
aF0.2780658006668091
aa(lp58
F0.8354926109313965
aF0.2781449556350708
aa(lp59
F0.8337137699127197
aF0.27821454405784607
aa(lp60
F0.8310935497283936
aF0.27829650044441223
aa(lp61
F0.8289270997047424
aF0.2783694565296173
aa(lp62
F0.7678327560424805
aF0.8781102895736694
aa(lp63
F0.7639303803443909
aF0.876976490020752
aa(lp64
F0.7600823044776917
aF0.8758671879768372
aa(lp65
F0.7572318315505981
aF0.874993622303009
aa(lp66
F0.6544462680816651
aF1.174261200428009
aa(lp67
F0.7500684857368469
aF0.8727548122406006
aa(lp68
F0.7460870742797852
aF0.8711293339729309
aa(lp69
F0.742143988609314
aF0.869644820690155
aa(lp70
F0.736770749092102
aF0.8675357699394226
aa(lp71
F0.7313260436058044
aF0.8653979301452637
aa(lp72
F0.527182400226593
aF0.8114601373672485
aa(lp73
F0.521841824054718
aF0.8099866509437561
aa(lp74
F0.5155931711196899
aF0.8086848258972168
aa(lp75
F0.5125679969787598
aF0.8083096146583557
aa(lp76
F0.5087722539901733
aF0.807538628578186
aa(lp77
F0.5025447607040405
aF0.8063033819198608
aasS'50k'
p78
(lp79
(lp80
F0.12379910051822662
aF0.3531438708305359
aa(lp81
F0.12415599822998047
aF0.35437318682670593
aa(lp82
F0.12455103546380997
aF0.3555509150028229
aa(lp83
F0.12497047334909439
aF0.357146680355072
aa(lp84
F0.12532013654708862
aF0.3587278723716736
aa(lp85
F0.1254783719778061
aF0.35993263125419617
aa(lp86
F0.12570665776729584
aF0.3610583543777466
aa(lp87
F0.8454694747924805
aF0.6564117074012756
aa(lp88
F0.8427943587303162
aF0.6527432799339294
aa(lp89
F0.8402270674705505
aF0.6497960090637207
aa(lp90
F0.8384964466094971
aF0.6473996043205261
aa(lp91
F0.7879082560539246
aF0.1305743306875229
aa(lp92
F0.7845901846885681
aF0.13193002343177795
aa(lp93
F0.7816676497459412
aF0.13290394842624664
aa(lp94
F0.7794731259346008
aF0.13405098021030426
aa(lp95
F0.775981605052948
aF0.1355159729719162
aa(lp96
F0.7729305624961853
aF0.1365688145160675
aa(lp97
F0.8182142376899719
aF0.6286025047302246
aa(lp98
F0.8144250512123108
aF0.625964879989624
aa(lp99
F0.5484574437141418
aF0.4356544017791748
aa(lp100
F0.545333743095398
aF0.436702162027359
aa(lp101
F0.4428079962730408
aF0.7376049935817719
aa(lp102
F0.5380325317382812
aF0.43922463059425354
aa(lp103
F0.5326244235038757
aF0.44148480892181396
aa(lp104
F0.5282241702079773
aF0.4431701600551605
aa(lp105
F0.5216726660728455
aF0.44580453634262085
aa(lp106
F0.5151137113571167
aF0.4484419822692871
aa(lp107
F0.5096818208694458
aF0.4507114589214325
aa(lp108
F0.5052661895751953
aF0.4524035155773163
aa(lp109
F0.49818935990333557
aF0.455216646194458
aa(lp110
F0.4930214583873749
aF0.45767340064048767
aa(lp111
F0.7523394227027893
aF0.6030811071395874
aa(lp112
F0.7459347248077393
aF0.6013513803482056
aasS'7k_1001/'
p113
(lp114
(lp115
F0.02860589697957039
aF0.0748361349105835
aa(lp116
F0.02904318831861019
aF0.0755653828382492
aa(lp117
F0.012750417925417423
aF0.49378061294555664
aa(lp118
F0.013093500398099422
aF0.4935224950313568
aa(lp119
F0.013450670056045055
aF0.49331244826316833
aa(lp120
F0.013730760663747787
aF0.4930707812309265
aa(lp121
F0.9845497012138367
aF0.9829705953598022
aa(lp122
F0.9841469526290894
aF0.9825764894485474
aa(lp123
F0.9837371706962585
aF0.9821768999099731
aa(lp124
F0.9834172129631042
aF0.9818515181541443
aa(lp125
F0.9831130504608154
aF0.9815714955329895
aa(lp126
F0.49849218130111694
aF0.01758953556418419
aa(lp127
F0.49875912070274353
aF0.0180018600076437
aa(lp128
F0.4990391433238983
aF0.018299855291843414
aa(lp129
F0.4991961419582367
aF0.018612904474139214
aa(lp130
F0.4995109438896179
aF0.019011594355106354
aa(lp131
F0.4998302757740021
aF0.019295843318104744
aa(lp132
F0.500016450881958
aF0.019589940086007118
aa(lp133
F0.9838789105415344
aF0.016295883804559708
aa(lp134
F0.9836567640304565
aF0.01659696362912655
aa(lp135
F0.9834936261177063
aF0.01682608760893345
aa(lp136
F0.8833591580390929
aF0.31702214777469634
aa(lp137
F0.9830194115638733
aF0.017481857910752296
aa(lp138
F0.9826062321662903
aF0.017998525872826576
aa(lp139
F0.982212483882904
aF0.018502643331885338
aa(lp140
F0.9816537499427795
aF0.019215425476431847
aa(lp141
F0.9810777902603149
aF0.019955109804868698
aa(lp142
F0.9806182980537415
aF0.02054334431886673
aa(lp143
F0.9801804423332214
aF0.021117206662893295
aa(lp144
F0.9795454740524292
aF0.021865688264369965
aa(lp145
F0.9791898131370544
aF0.022186562418937683
aa(lp146
F0.9788994193077087
aF0.022486884146928787
aa(lp147
F0.9783438444137573
aF0.023167816922068596
aasS'25k_limitCandActs'
p148
(lp149
(lp150
F0.1595863252878189
aF0.5113728642463684
aa(lp151
F0.16018736362457275
aF0.5089290738105774
aa(lp152
F0.23009878396987915
aF0.8794659376144409
aa(lp153
F0.2301497608423233
aF0.8777377605438232
aa(lp154
F0.230170339345932
aF0.8760003447532654
aa(lp155
F0.23004698753356934
aF0.8746169209480286
aa(lp156
F0.23013757169246674
aF0.8733929395675659
aa(lp157
F0.2300691157579422
aF0.8716650009155273
aa(lp158
F0.22996018826961517
aF0.8699544668197632
aa(lp159
F0.22971142828464508
aF0.8685956597328186
aa(lp160
F0.9005833864212036
aF0.12337871640920639
aa(lp161
F0.8988888263702393
aF0.12417787313461304
aa(lp162
F0.8971748948097229
aF0.12493402510881424
aa(lp163
F0.89578777551651
aF0.12541958689689636
aa(lp164
F0.8945825695991516
aF0.12597617506980896
aa(lp165
F0.8928505778312683
aF0.1266021877527237
aa(lp166
F0.891452968120575
aF0.12698563933372498
aa(lp167
F0.8902661204338074
aF0.12742601335048676
aa(lp168
F0.888563871383667
aF0.12789183855056763
aa(lp169
F0.8868882060050964
aF0.12828600406646729
aa(lp170
F0.8855423927307129
aF0.1284932643175125
aa(lp171
F0.7844439983367919
aF0.4287344694137573
aa(lp172
F0.8821613788604736
aF0.1294882595539093
aa(lp173
F0.8796182870864868
aF0.13025788962841034
aa(lp174
F0.8773443102836609
aF0.13119101524353027
aa(lp175
F0.6928604245185852
aF0.5312613248825073
aa(lp176
F0.6881061792373657
aF0.5289181470870972
aa(lp177
F0.6844313740730286
aF0.5269697308540344
aa(lp178
F0.6809000968933105
aF0.5254009962081909
aa(lp179
F0.6768224835395813
aF0.5223871469497681
aa(lp180
F0.6748992800712585
aF0.5201628804206848
aa(lp181
F0.67250657081604
aF0.5186846256256104
aa(lp182
F0.7124621272087097
aF0.662259578704834
aasS'20k_errThresh95/'
p183
(lp184
(lp185
F0.7979231476783752
aF0.8154458999633789
aa(lp186
F0.7957725524902344
aF0.8131230473518372
aa(lp187
F0.7941107749938965
aF0.811180591583252
aa(lp188
F0.7431972026824951
aF0.37915554642677307
aa(lp189
F0.7403597831726074
aF0.3795483112335205
aa(lp190
F0.7381204962730408
aF0.37968069314956665
aa(lp191
F0.735958993434906
aF0.3802277743816376
aa(lp192
F0.7329429984092712
aF0.3807365894317627
aa(lp193
F0.7298733592033386
aF0.3812864124774933
aa(lp194
F0.7274613380432129
aF0.3815387785434723
aa(lp195
F0.7251923084259033
aF0.3821808099746704
aa(lp196
F0.7220370173454285
aF0.38281843066215515
aa(lp197
F0.29954636096954346
aF0.7303605675697327
aa(lp198
F0.2999422252178192
aF0.7282657027244568
aa(lp199
F0.3006669282913208
aF0.726445734500885
aa(lp200
F0.30139216780662537
aF0.7238610982894897
aa(lp201
F0.30176734924316406
aF0.7218142747879028
aa(lp202
F0.8296340703964233
aF0.19566164910793304
aa(lp203
F0.8271697163581848
aF0.19639495015144348
aa(lp204
F0.824714720249176
aF0.19712109863758087
aa(lp205
F0.8227997422218323
aF0.19758117198944092
aa(lp206
F0.7210725188255309
aF0.49818462431430816
aa(lp207
F0.8178837895393372
aF0.1997840404510498
aa(lp208
F0.8145778775215149
aF0.20173533260822296
aa(lp209
F0.8115045428276062
aF0.2037837952375412
aa(lp210
F0.8071572184562683
aF0.20648322999477386
aa(lp211
F0.8027340173721313
aF0.20920902490615845
aa(lp212
F0.799220621585846
aF0.21122807264328003
aa(lp213
F0.7959564924240112
aF0.2133471518754959
aa(lp214
F0.7917725443840027
aF0.2147730439901352
aa(lp215
F0.7893695831298828
aF0.21469134092330933
aa(lp216
F0.7870591282844543
aF0.21555227041244507
aa(lp217
F0.7829406261444092
aF0.21728916466236115
aassS'ball_color'
p218
S'green'
p219
sS'sensorLog'
p220
(lp221
(lp222
F0.37623993403572675
aF0.41001550145397053
aF0.695859140965452
aF0.3775201405073254
aF0.44601040000000014
aF0.16499442825624017
aF0.67
aa(lp223
F0.36863429081807636
aF0.399057201182255
aF0.6842033244142705
aF0.3870694370928391
aF0.44601040000000014
aF0.16499442825624017
aF0.67
aa(lp224
F0.3647146754951528
aF0.3938451787782885
aF0.6781341545813732
aF0.3918440853855959
aF0.44601040000000014
aF0.16499442825624017
aF0.67
aa(lp225
F0.3566471511794347
aF0.3839788375548455
aF0.6655405961016395
aF0.4013933819711096
aF0.44601040000000014
aF0.16499442825624017
aF0.67
aa(lp226
F0.3482826310166886
aF0.3748854106406977
aF0.6523780738784133
aF0.4109426785566232
aF0.44601040000000014
aF0.16499442825624017
aF0.67
aa(lp227
F0.33963041245218845
aF0.36659762455301353
aF0.6386939587778795
aF0.4204919751421369
aF0.44601040000000014
aF0.16499442825624017
aF0.67
aa(lp228
F0.33519945976609256
aF0.36276528404921393
aF0.6316716253862683
aF0.4252666234348937
aF0.44601040000000014
aF0.16499442825624017
aF0.67
aa(lp229
F0.3261342470346466
aF0.35574094925686095
aF0.6172979993634161
aF0.43481592002040736
aF0.44601040000000014
aF0.16499442825624017
aF0.67
aa(lp230
F0.31680688071647833
aF0.3495911546784157
aF0.6025290308495762
aF0.44436521660592104
aF0.44601040000000014
aF0.16499442825624017
aF0.67
aa(lp231
F0.30722860886254005
aF0.3443380329333795
aF0.5874178721828262
aF0.45391451319143467
aF0.44601040000000014
aF0.16499442825624017
aF0.67
aa(lp232
F0.30234908090942714
aF0.3420537603604153
aF0.5797509237147324
aF0.4586891614841915
aF0.44601040000000014
aF0.16499442825624017
aF0.67
aa(lp233
F0.2924170384972944
aF0.33818006841927045
aF0.5642287809804003
aF0.46823845806970515
aF0.44601040000000014
aF0.16499442825624017
aF0.67
aa(lp234
F0.2822653429655076
aF0.33524411689957356
aF0.5485022876333805
aF0.47778775465521883
aF0.44601040000000014
aF0.16499442825624017
aF0.67
aa(lp235
F0.2719080012367492
aF0.3332564720563479
aF0.5326280420671473
aF0.48733705124073246
aF0.44601040000000014
aF0.16499442825624017
aF0.67
aa(lp236
F0.2666568760968825
aF0.3326206341721164
aF0.5246533502119736
aF0.4921116995334893
aF0.44601040000000014
aF0.16499442825624017
aF0.67
aa(lp237
F0.2560197044810558
aF0.33206778801935466
aF0.5086647053209503
aF0.5016609961190029
aF0.44601040000000014
aF0.16499442825624017
aF0.67
aa(lp238
F0.24521698694363958
aF0.33247467989700963
aF0.49267168048761256
aF0.5112102927045167
aF0.44601040000000014
aF0.16499442825624017
aF0.67
aa(lp239
F0.23975931541822965
aF0.33303770484471507
aF0.4846915173997889
aF0.5159849409972734
aF0.44601040000000014
aF0.16499442825624017
aF0.67
aa(lp240
F0.22874393992469372
aF0.3348803797916144
aF0.46879979145954104
aF0.5255342375827871
aF0.44601040000000014
aF0.16499442825624017
aF0.67
aa(lp241
F0.21761369181004273
aF0.33767267047578464
aF0.45304715621793895
aF0.5350835341683008
aF0.44601040000000014
aF0.16499442825624017
aF0.67
aa(lp242
F0.2063933028322349
aF0.3414045276660751
aF0.4374903041510471
aF0.5446328307538144
aF0.44601040000000014
aF0.16499442825624017
aF0.67
aa(lp243
F0.20075799132085603
aF0.34361872746873523
aF0.42980282607082465
aF0.5494074790465713
aF0.44601040000000014
aF0.16499442825624017
aF0.67
aa(lp244
F0.189456906092822
aF0.3487337081304759
aF0.4146443506478182
aF0.5589567756320849
aF0.44601040000000014
aF0.16499442825624017
aF0.67
aa(lp245
F0.1724863549932981
aF0.35742224129568356
aF0.39227228343360887
aF0.5589567756320849
aF0.44601040000000014
aF0.16499442825624017
aF0.67
aa(lp246
F0.16400108034760896
aF0.3617665078782874
aF0.3810862498265042
aF0.5589567756320849
aF0.44601040000000014
aF0.16499442825624017
aF0.67
aa(lp247
F0.1470305333861256
aF0.37045504104349514
aF0.3587141826122949
aF0.5589567756320849
aF0.44601040000000014
aF0.16499442825624017
aF0.67
aa(lp248
F0.1300599905445367
aF0.3791435742087028
aF0.33634211539808556
aF0.5589567756320849
aF0.44601040000000014
aF0.16499442825624017
aF0.67
aa(lp249
F0.11308945367757349
aF0.3878321073739105
aF0.3139700481838762
aF0.5589567756320849
aF0.44601040000000014
aF0.16499442825624017
aF0.67
aa(lp250
F0.10460418839329319
aF0.3921763739565144
aF0.30278401457677157
aF0.5589567756320849
aF0.44601040000000014
aF0.16499442825624017
aF0.67
aa(lp251
F0.08763366717239819
aF0.40086490712172207
aF0.28041194736256225
aF0.5589567756320849
aF0.44601040000000014
aF0.16499442825624017
aF0.67
aa(lp252
F0.09179060106083828
aF0.40955344028692975
aF0.2580398801483529
aF0.5589567756320849
aF0.4512188770622
aF0.13509672147641288
aF0.67
aa(lp253
F0.10390465053278586
aF0.41389770686953364
aF0.24685384654124826
aF0.5589567756320849
aF0.46263347224855095
aF0.10822781010796412
aF0.67
aa(lp254
F0.09306308775743975
aF0.4225862400347413
aF0.22448177932703892
aF0.5589567756320849
aF0.46670913176513373
aF0.10048723496751819
aF0.67
aa(lp255
F0.08657550092903117
aF0.431274773199949
aF0.2021097121128296
aF0.5589567756320849
aF0.4736785095384903
aF0.0872508514773557
aF0.67
aa(lp256
F0.09093934253715209
aF0.43996330636515674
aF0.17973764489862026
aF0.5589567756320849
aF0.48043986718914056
aF0.0576656330951975
aF0.67
aasS'error'
p257
(dp258
g8
F14.798510649511464
sg43
F16.147156464435064
sg78
F9.252442283188927
sg113
F14.680510371504266
sg148
F13.3216187598097
sg183
F10.585991349683312
ssS'motorLog'
p259
(lp260
(lp261
F0.2
aF0.3
aa(lp262
F0.2
aF0.3
aa(lp263
F0.2
aF0.3
aa(lp264
F0.2
aF0.3
aa(lp265
F0.2
aF0.3
aa(lp266
F0.2
aF0.3
aa(lp267
F0.2
aF0.3
aa(lp268
F0.2
aF0.3
aa(lp269
F0.2
aF0.3
aa(lp270
F0.2
aF0.3
aa(lp271
F0.2
aF0.3
aa(lp272
F0.2
aF0.3
aa(lp273
F0.2
aF0.3
aa(lp274
F0.2
aF0.3
aa(lp275
F0.2
aF0.3
aa(lp276
F0.2
aF0.3
aa(lp277
F0.2
aF0.3
aa(lp278
F0.2
aF0.3
aa(lp279
F0.2
aF0.3
aa(lp280
F0.2
aF0.3
aa(lp281
F0.2
aF0.3
aa(lp282
F0.2
aF0.3
aa(lp283
F0.3
aI0
aa(lp284
F0.3
aI0
aa(lp285
F0.3
aI0
aa(lp286
F0.3
aI0
aa(lp287
F0.3
aI0
aa(lp288
F0.3
aI0
aa(lp289
F0.3
aI0
aa(lp290
F0.3
aI0
aa(lp291
F0.3
aI0
aa(lp292
F0.3
aI0
aa(lp293
F0.3
aI0
aa(lp294
F0.3
aI0
aa(lp295
F0.3
aI0
aasb.