(ihardBrainTrial
HardBrainTrial
p0
(dp1
S'ball_loc'
p2
(F4.893721
F4.5504597679700005
tp3
sS'robot_loc'
p4
(F4.3085570364851655
F5.601776224477961
tp5
sS'hammerMotors'
p6
(dp7
S'25k_limitCandActs_errThresh95/'
p8
(lp9
(lp10
F0.07779975533485411
aF0.9175567746162414
aa(lp11
F0.6473668217658997
aF0.8209162354469299
aa(lp12
F0.29594266414642334
aF0.8261284828186035
aa(lp13
F0.29414480924606323
aF0.8253814578056335
aa(lp14
F0.2923179566860199
aF0.8247661590576172
aa(lp15
F0.29120293259620667
aF0.8244527578353882
aa(lp16
F0.2890826165676117
aF0.8239683508872986
aa(lp17
F0.28683918714523315
aF0.823596715927124
aa(lp18
F0.28466007113456726
aF0.8232511878013611
aa(lp19
F0.28325241804122925
aF0.8232582807540894
aa(lp20
F0.28072038292884827
aF0.8231827616691589
aa(lp21
F0.2783239483833313
aF0.8230521082878113
aa(lp22
F0.27672433853149414
aF0.8233000040054321
aa(lp23
F0.27393674850463867
aF0.8235337734222412
aa(lp24
F0.27135753631591797
aF0.8236290812492371
aa(lp25
F0.26958581805229187
aF0.8241190910339355
aa(lp26
F0.834850013256073
aF0.8839514255523682
aa(lp27
F0.8332614302635193
aF0.883171796798706
aa(lp28
F0.8320046663284302
aF0.8826109766960144
aa(lp29
F0.8309969902038574
aF0.8821895718574524
aa(lp30
F0.8295755982398987
aF0.8816658854484558
aa(lp31
F0.8284501433372498
aF0.8812963366508484
aa(lp32
F0.8275909423828125
aF0.8810862302780151
aa(lp33
F0.826374351978302
aF0.8808409571647644
aa(lp34
F0.8252489566802979
aF0.8807109594345093
aa(lp35
F0.8243579268455505
aF0.8806325793266296
aa(lp36
F0.8237420916557312
aF0.8807345032691956
aa(lp37
F0.7837702631950378
aF0.3036908805370331
aa(lp38
F0.7823036909103394
aF0.30418094992637634
aa(lp39
F0.7813671827316284
aF0.30483874678611755
aa(lp40
F0.7799355983734131
aF0.3056944012641907
aasS'25k'
p41
(lp42
(lp43
F0.2696391224861145
aF0.5357782065868377
aa(lp44
F0.6179378032684326
aF0.2889636158943176
aa(lp45
F0.616573691368103
aF0.28704404830932617
aa(lp46
F0.6143236756324768
aF0.28463026881217957
aa(lp47
F0.6123026609420776
aF0.28293105959892273
aa(lp48
F0.8006952404975891
aF0.1274023950099945
aa(lp49
F0.7972782850265503
aF0.12822787463665009
aa(lp50
F0.7938520312309265
aF0.1290510892868042
aa(lp51
F0.7912198901176453
aF0.1296522319316864
aa(lp52
F0.7887223362922668
aF0.130270853638649
aa(lp53
F0.7853275537490845
aF0.13106675446033478
aa(lp54
F0.7827361822128296
aF0.13163171708583832
aa(lp55
F0.7803053259849548
aF0.13222217559814453
aa(lp56
F0.7770230174064636
aF0.13295957446098328
aa(lp57
F0.7745352387428284
aF0.13346412777900696
aa(lp58
F0.7722312211990356
aF0.13400402665138245
aa(lp59
F0.7691434025764465
aF0.13465219736099243
aa(lp60
F0.7661558985710144
aF0.13525640964508057
aa(lp61
F0.763917863368988
aF0.13563752174377441
aa(lp62
F0.7618897557258606
aF0.13607043027877808
aa(lp63
F0.7592064738273621
aF0.1365453153848648
aa(lp64
F0.7572171688079834
aF0.13681304454803467
aa(lp65
F0.7554506659507751
aF0.13714592158794403
aa(lp66
F0.7531414031982422
aF0.1374664455652237
aa(lp67
F0.7530817985534668
aF0.8846911191940308
aa(lp68
F0.7510164976119995
aF0.8841549754142761
aa(lp69
F0.749075710773468
aF0.8837593793869019
aa(lp70
F0.7465959191322327
aF0.8832082152366638
aa(lp71
F0.7455795407295227
aF0.8831930756568909
aa(lp72
F0.7452940940856934
aF0.8836753368377686
aa(lp73
F0.74440598487854
aF0.8839107751846313
aasS'50k'
p74
(lp75
(lp76
F0.3576096773147583
aF0.4348873168230057
aa(lp77
F0.8706827759742737
aF0.6690882444381714
aa(lp78
F0.86971116065979
aF0.6666688323020935
aa(lp79
F0.8678286075592041
aF0.6631683111190796
aa(lp80
F0.8659582138061523
aF0.6603431701660156
aa(lp81
F0.8647477030754089
aF0.6580389142036438
aa(lp82
F0.8625258803367615
aF0.6547158360481262
aa(lp83
F0.8601732850074768
aF0.6514822244644165
aa(lp84
F0.8579376935958862
aF0.6488867998123169
aa(lp85
F0.8564068675041199
aF0.6468210220336914
aa(lp86
F0.8537436723709106
aF0.643853485584259
aa(lp87
F0.8512752652168274
aF0.6414803862571716
aa(lp88
F0.8495327234268188
aF0.6396341919898987
aa(lp89
F0.8465895652770996
aF0.6369877457618713
aa(lp90
F0.8439203500747681
aF0.6348786950111389
aa(lp91
F0.8419873118400574
aF0.6332862377166748
aa(lp92
F0.8388047814369202
aF0.6310068368911743
aa(lp93
F0.8355403542518616
aF0.6288847923278809
aa(lp94
F0.8326600193977356
aF0.6272011399269104
aa(lp95
F0.8305097222328186
aF0.6260074377059937
aa(lp96
F0.8270809650421143
aF0.6242989301681519
aa(lp97
F0.8241118788719177
aF0.6229471564292908
aa(lp98
F0.8218520283699036
aF0.6220583915710449
aa(lp99
F0.8183254599571228
aF0.6207826733589172
aa(lp100
F0.8147805333137512
aF0.6196826696395874
aa(lp101
F0.8117907047271729
aF0.6188147068023682
aa(lp102
F0.8094567060470581
aF0.6183628439903259
aa(lp103
F0.5447656512260437
aF0.4257001578807831
aa(lp104
F0.5415056347846985
aF0.42686179280281067
aa(lp105
F0.5391247868537903
aF0.42756789922714233
aa(lp106
F0.5357591509819031
aF0.42887449264526367
aasS'7k_1001/'
p107
(lp108
(lp109
F-0.09457580447196962
aF0.6883633553981781
aa(lp110
F0.0113971633836627
aF0.5023040175437927
aa(lp111
F0.01159465592354536
aF0.5023799538612366
aa(lp112
F0.011871426366269588
aF0.5022972226142883
aa(lp113
F0.012089308351278305
aF0.5020936131477356
aa(lp114
F0.012304172851145267
aF0.5021224617958069
aa(lp115
F0.012602905742824078
aF0.5019730925559998
aa(lp116
F0.012908481992781162
aF0.501798152923584
aa(lp117
F0.01314627006649971
aF0.5015249252319336
aa(lp118
F0.013376842252910137
aF0.5014897584915161
aa(lp119
F0.49643731117248535
aF0.01554285641759634
aa(lp120
F0.49671271443367004
aF0.01577180251479149
aa(lp121
F0.49686822295188904
aF0.01601208932697773
aa(lp122
F0.49717894196510315
aF0.016315046697854996
aa(lp123
F0.49749308824539185
aF0.016528785228729248
aa(lp124
F0.49767836928367615
aF0.01674945093691349
aa(lp125
F0.4980323910713196
aF0.017022615298628807
aa(lp126
F0.49840232729911804
aF0.017280180007219315
aa(lp127
F0.4987601339817047
aF0.017456742003560066
aa(lp128
F0.4989849627017975
aF0.017632804811000824
aa(lp129
F0.985860288143158
aF0.014327307231724262
aa(lp130
F0.9857801198959351
aF0.0144626684486866
aa(lp131
F0.98572838306427
aF0.014568070881068707
aa(lp132
F0.9856660962104797
aF0.01470685563981533
aa(lp133
F0.9856252670288086
aF0.014826808124780655
aa(lp134
F0.9855988025665283
aF0.01491473987698555
aa(lp135
F0.9856056571006775
aF0.014969049021601677
aa(lp136
F0.98562091588974
aF0.015037402510643005
aa(lp137
F0.9857219457626343
aF0.014977849088609219
aa(lp138
F0.9859541058540344
aF0.014745772816240788
aa(lp139
F0.9861787557601929
aF0.014547500759363174
aasS'25k_limitCandActs'
p140
(lp141
(lp142
F0.08378507494926452
aF0.89617360830307
aa(lp143
F0.22555388510227203
aF0.8806556463241577
aa(lp144
F0.22559675574302673
aF0.8795531392097473
aa(lp145
F0.22549885511398315
aF0.8779997229576111
aa(lp146
F0.225290909409523
aF0.8767663240432739
aa(lp147
F0.22528105974197388
aF0.875696063041687
aa(lp148
F0.22508502006530762
aF0.8741886615753174
aa(lp149
F0.22484570741653442
aF0.8727127313613892
aa(lp150
F0.2245061993598938
aF0.8715432286262512
aa(lp151
F0.22440126538276672
aF0.8705742359161377
aa(lp152
F0.22404541075229645
aF0.8692097067832947
aa(lp153
F0.2236039638519287
aF0.8681301474571228
aa(lp154
F0.9029924273490906
aF0.12009377032518387
aa(lp155
F0.9015541672706604
aF0.1206219270825386
aa(lp156
F0.9003901481628418
aF0.12093654274940491
aa(lp157
F0.8994160890579224
aF0.12129896134138107
aa(lp158
F0.8980131149291992
aF0.12166773527860641
aa(lp159
F0.8966359496116638
aF0.12196622788906097
aa(lp160
F0.8955249190330505
aF0.1221076175570488
aa(lp161
F0.8946332931518555
aF0.12227517366409302
aa(lp162
F0.8933500051498413
aF0.12238455563783646
aa(lp163
F0.8923168182373047
aF0.12238646298646927
aa(lp164
F0.8915194272994995
aF0.12239807099103928
aa(lp165
F0.8903715014457703
aF0.12230415642261505
aa(lp166
F0.8892887234687805
aF0.12212644517421722
aa(lp167
F0.8884192705154419
aF0.12192060053348541
aa(lp168
F0.8877999186515808
aF0.12170129269361496
aa(lp169
F0.8869057297706604
aF0.12131191045045853
aa(lp170
F0.8867999911308289
aF0.12084726244211197
aa(lp171
F0.8873610496520996
aF0.1201169341802597
aa(lp172
F0.8875552415847778
aF0.11921711266040802
aasS'20k_errThresh95/'
p173
(lp174
(lp175
F0.37514095306396483
aF0.6031445086002349
aa(lp176
F0.7580670118331909
aF0.3684346377849579
aa(lp177
F0.7562038898468018
aF0.3688890337944031
aa(lp178
F0.7536002397537231
aF0.3692825138568878
aa(lp179
F0.7515474557876587
aF0.3694213330745697
aa(lp180
F0.7495880722999573
aF0.3699532449245453
aa(lp181
F0.7468563318252563
aF0.37044957280158997
aa(lp182
F0.7440905570983887
aF0.3709815442562103
aa(lp183
F0.7419189214706421
aF0.3712298572063446
aa(lp184
F0.7399010062217712
aF0.3718389868736267
aa(lp185
F0.7749356031417847
aF0.7857893705368042
aa(lp186
F0.7724892497062683
aF0.7839869260787964
aa(lp187
F0.2345825433731079
aF0.4697535037994385
aa(lp188
F0.23267057538032532
aF0.46835726499557495
aa(lp189
F0.23096439242362976
aF0.46709948778152466
aa(lp190
F0.22967073321342468
aF0.46637019515037537
aa(lp191
F0.22759032249450684
aF0.46512043476104736
aa(lp192
F0.2254517376422882
aF0.4639331102371216
aa(lp193
F0.8410864472389221
aF0.1871565580368042
aa(lp194
F0.8396602869033813
aF0.1876021921634674
aa(lp195
F0.8376813530921936
aF0.1881094127893448
aa(lp196
F0.83614182472229
aF0.18842630088329315
aa(lp197
F0.8347793221473694
aF0.18884038925170898
aa(lp198
F0.8328999876976013
aF0.1893024444580078
aa(lp199
F0.8310737609863281
aF0.18974006175994873
aa(lp200
F0.8296670317649841
aF0.19000014662742615
aa(lp201
F0.8284499049186707
aF0.19034311175346375
aa(lp202
F0.8267881870269775
aF0.19070468842983246
aa(lp203
F0.8259804248809814
aF0.19007983803749084
aa(lp204
F0.8259278535842896
aF0.1890244036912918
aa(lp205
F0.8253626823425293
aF0.18817342817783356
aassS'ball_color'
p206
S'green'
p207
sS'sensorLog'
p208
(lp209
(lp210
I-1
aI0
aI0
aI0
aI0
aI0
aI0
aa(lp211
F0.33773342055650707
aF0.2734228145940662
aF0.7407104897911843
aF0.41379075626325285
aF0.5074884000000001
aF0.3243680484692003
aF0.67
aa(lp212
F0.3349736282195316
aF0.26929828264304306
aF0.733855693208864
aF0.41856540455600966
aF0.5074884000000001
aF0.3243680484692003
aF0.67
aa(lp213
F0.3292286832481617
aF0.2616751506906585
aF0.7197904785444372
aF0.42811470114152333
aF0.5074884000000001
aF0.3243680484692003
aF0.67
aa(lp214
F0.3231876006168067
aF0.2549091428830632
aF0.7052934601383154
aF0.437663997727037
aF0.5074884000000001
aF0.3243680484692003
aF0.67
aa(lp215
F0.3200576988942833
aF0.25185529297961684
aF0.6978992731804936
aF0.4424386460197938
aF0.5074884000000001
aF0.3243680484692003
aF0.67
aa(lp216
F0.3135827012674219
aF0.24641963999410094
aF0.6828528091127826
aF0.4519879426053075
aF0.5074884000000001
aF0.3243680484692003
aF0.67
aa(lp217
F0.3068256692809893
aF0.2418960145179078
aF0.6675074770254344
aF0.4615372391908211
aF0.5074884000000001
aF0.3243680484692003
aF0.67
aa(lp218
F0.29979269522514357
aF0.23830069671782184
aF0.6519185035429931
aF0.4710865357763348
aF0.5074884000000001
aF0.3243680484692003
aF0.67
aa(lp219
F0.29617470224568504
aF0.23685532857599476
aF0.6440501548639759
aF0.4758611840690916
aF0.5074884000000001
aF0.3243680484692003
aF0.67
aa(lp220
F0.2887397833377949
aF0.23467567630704061
aF0.6282011321715096
aF0.4854104806546053
aF0.5074884000000001
aF0.3243680484692003
aF0.67
aa(lp221
F0.28104523452796865
aF0.2334503171347233
aF0.6122499284796656
aF0.49495977724011897
aF0.5074884000000001
aF0.3243680484692003
aF0.67
aa(lp222
F0.2771027594919501
aF0.233197010251358
aF0.6042539397588857
aF0.4997344255328758
aF0.5074884000000001
aF0.3243680484692003
aF0.67
aa(lp223
F0.2690318558711058
aF0.23341028148055223
aF0.5882571613425085
aF0.5092837221183895
aF0.5074884000000001
aF0.3243680484692003
aF0.67
aa(lp224
F0.26071910934656733
aF0.23458239986129642
aF0.5723019570874264
aF0.5188330187039031
aF0.5074884000000001
aF0.3243680484692003
aF0.67
aa(lp225
F0.2564743825638194
aF0.23552684296289605
aF0.5643579009932236
aF0.52360766699666
aF0.5074884000000001
aF0.3243680484692003
aF0.67
aa(lp226
F0.24781301554298693
aF0.23812824807821684
aF0.5485726200091594
aF0.5331569635821736
aF0.5074884000000001
aF0.3243680484692003
aF0.67
aa(lp227
F0.23892897604947572
aF0.24167152076012818
aF0.5329717346810284
aF0.5427062601676872
aF0.5074884000000001
aF0.3243680484692003
aF0.67
aa(lp228
F0.22983029882672312
aF0.24614390905325081
aF0.5176113913490774
aF0.5522555567532009
aF0.5074884000000001
aF0.3243680484692003
aF0.67
aa(lp229
F0.2252030369690308
aF0.24872362074158225
aF0.5100387374150142
aF0.5570302050459577
aF0.5074884000000001
aF0.3243680484692003
aF0.67
aa(lp230
F0.21579790592001308
aF0.25455847345906796
aF0.49514253326479113
aF0.5665795016314714
aF0.5074884000000001
aF0.3243680484692003
aF0.67
aa(lp231
F0.2061990903700704
aF0.2612760626742876
aF0.48062301538521124
aF0.576128798216985
aF0.5074884000000001
aF0.3243680484692003
aF0.67
aa(lp232
F0.2013297669181509
aF0.26495845024289866
aF0.47352090148901527
aF0.5809034465097419
aF0.5074884000000001
aF0.3243680484692003
aF0.67
aa(lp233
F0.19145682167579955
aF0.27295384478311957
aF0.4596639151476033
aF0.5904527430952555
aF0.5074884000000001
aF0.3243680484692003
aF0.67
aa(lp234
F0.18141232204228952
aF0.28176577234892514
aF0.4463112997897468
aF0.6000020396807692
aF0.5074884000000001
aF0.3243680484692003
aF0.67
aa(lp235
F0.1712054382691851
aF0.291362519516818
aF0.4335111104116397
aF0.6095513362662829
aF0.5074884000000001
aF0.3243680484692003
aF0.67
aa(lp236
F0.16604401763067494
aF0.2964445143504122
aF0.42733265360501527
aF0.6143259845590396
aF0.5074884000000001
aF0.3243680484692003
aF0.67
aa(lp237
F0.15561115053198105
aF0.30715288337106444
aF0.4154468117232888
aF0.6238752811445534
aF0.5074884000000001
aF0.3243680484692003
aF0.67
aa(lp238
F0.14503963183149673
aF0.31855470580891454
aF0.4042244746487036
aF0.633424577730067
aF0.5074884000000001
aF0.3243680484692003
aF0.67
aa(lp239
F0.1496083500519916
aF0.3245029323653437
aF0.3988748390692091
aF0.6381992260228239
aF0.5191273358013699
aF0.315888946310859
aF0.67
aa(lp240
F0.14849583131752211
aF0.33686725595851286
aF0.3887227010479215
aF0.6477485226083377
aF0.530167895376341
aF0.3066441616042521
aF0.67
aa(lp241
F0.14496664966834227
aF0.34981809331523656
aF0.3793302457736303
aF0.6572978191938514
aF0.5386636059692812
aF0.29953029977251794
aF0.67
aa(lp242
F0.14259769271669023
aF0.3564989672496587
aF0.37492957270325106
aF0.6620724674866084
aF0.5422854615378505
aF0.29649754814951557
aF0.67
aasS'error'
p243
(dp244
g8
F14.019605247225572
sg41
F12.072477676528715
sg74
F14.423201035963691
sg107
F10.10420762736248
sg140
F13.534959787573799
sg173
F9.562588294310487
ssS'motorLog'
p245
(lp246
(lp247
I0
aF0.5
aa(lp248
F0.2
aF0.3
aa(lp249
F0.2
aF0.3
aa(lp250
F0.2
aF0.3
aa(lp251
F0.2
aF0.3
aa(lp252
F0.2
aF0.3
aa(lp253
F0.2
aF0.3
aa(lp254
F0.2
aF0.3
aa(lp255
F0.2
aF0.3
aa(lp256
F0.2
aF0.3
aa(lp257
F0.2
aF0.3
aa(lp258
F0.2
aF0.3
aa(lp259
F0.2
aF0.3
aa(lp260
F0.2
aF0.3
aa(lp261
F0.2
aF0.3
aa(lp262
F0.2
aF0.3
aa(lp263
F0.2
aF0.3
aa(lp264
F0.2
aF0.3
aa(lp265
F0.2
aF0.3
aa(lp266
F0.2
aF0.3
aa(lp267
F0.2
aF0.3
aa(lp268
F0.2
aF0.3
aa(lp269
F0.2
aF0.3
aa(lp270
F0.2
aF0.3
aa(lp271
F0.2
aF0.3
aa(lp272
F0.2
aF0.3
aa(lp273
F0.2
aF0.3
aa(lp274
F0.2
aF0.3
aa(lp275
F0.2
aF0.3
aa(lp276
F0.2
aF0.3
aa(lp277
F0.2
aF0.3
aa(lp278
F0.2
aF0.3
aa(lp279
F0.2
aF0.3
aasb.