(ihardBrainTrial
HardBrainTrial
p0
(dp1
S'ball_loc'
p2
(F4.729699
F4.082924
tp3
sS'robot_loc'
p4
(F4.51975216300744
F5.260917479559315
tp5
sS'hammerMotors'
p6
(dp7
S'25k_limitCandActs_errThresh95/'
p8
(lp9
(lp10
F0.3154386878013611
aF0.7865137457847595
aa(lp11
F0.3123244345188141
aF0.7864227294921875
aa(lp12
F0.8243745565414429
aF0.8871432542800903
aa(lp13
F0.8208836317062378
aF0.8847488164901733
aa(lp14
F0.8179762363433838
aF0.8828788995742798
aa(lp15
F0.8155463337898254
aF0.8810746073722839
aa(lp16
F0.9119205832481385
aF0.5785694241523742
aa(lp17
F0.7087211251258849
aF1.1766903281211853
aa(lp18
F0.8068116903305054
aF0.8755012154579163
aa(lp19
F0.7849776148796082
aF0.3383546471595764
aa(lp20
F0.7791830897331238
aF0.3410336673259735
aa(lp21
F0.7743604779243469
aF0.342818945646286
aa(lp22
F0.7702831625938416
aF0.34507128596305847
aa(lp23
F0.7642115950584412
aF0.34777554869651794
aa(lp24
F0.7580299973487854
aF0.35048964619636536
aa(lp25
F0.7528918981552124
aF0.35229796171188354
aa(lp26
F0.748552680015564
aF0.35457897186279297
aasS'25k'
p27
(lp28
(lp29
F0.5197060108184814
aF0.26172003149986267
aa(lp30
F0.5147073864936829
aF0.2608540654182434
aa(lp31
F0.8284884095191956
aF0.27085357904434204
aa(lp32
F0.8238088488578796
aF0.27312156558036804
aa(lp33
F0.8200286030769348
aF0.27487680315971375
aa(lp34
F0.765385627746582
aF0.8612189888954163
aa(lp35
F0.859628176689148
aF0.5587201833724975
aa(lp36
F0.6546241879463196
aF1.1567642569541932
aa(lp37
F0.7511963844299316
aF0.8554452657699585
aa(lp38
F0.7468693256378174
aF0.8536434769630432
aa(lp39
F0.740977942943573
aF0.8510943651199341
aa(lp40
F0.7364671230316162
aF0.8490692377090454
aa(lp41
F0.7319753170013428
aF0.8472021818161011
aa(lp42
F0.7258645296096802
aF0.8445613384246826
aa(lp43
F0.5441574454307556
aF0.7868728637695312
aa(lp44
F0.5390602350234985
aF0.7852351069450378
aa(lp45
F0.5339473485946655
aF0.7833186984062195
aasS'50k'
p46
(lp47
(lp48
F0.8162943720817566
aF0.67400062084198
aa(lp49
F0.8109407424926758
aF0.6715514659881592
aa(lp50
F0.8068618178367615
aF0.6693775057792664
aa(lp51
F0.8003716468811035
aF0.6662773489952087
aa(lp52
F0.7946712374687195
aF0.6637994647026062
aa(lp53
F0.7903324961662292
aF0.6616004109382629
aa(lp54
F0.6988537073135376
aF0.1625605344772339
aa(lp55
F0.4936008095741272
aF0.7646286070346833
aa(lp56
F0.5901090502738953
aF0.46571654081344604
aa(lp57
F0.5858451724052429
aF0.4672392010688782
aa(lp58
F0.579513430595398
aF0.46962329745292664
aa(lp59
F0.5742756724357605
aF0.4716770648956299
aa(lp60
F0.5699670910835266
aF0.4732019603252411
aa(lp61
F0.56357342004776
aF0.4755893051624298
aa(lp62
F0.5571585297584534
aF0.4779777526855469
aa(lp63
F0.5518576502799988
aF0.4800350069999695
aa(lp64
F0.5475010275840759
aF0.4815623164176941
aasS'7k_1001/'
p65
(lp66
(lp67
F0.4938400387763977
aF0.022381791844964027
aa(lp68
F0.49435514211654663
aF0.023068422451615334
aa(lp69
F0.4944875240325928
aF0.023831892758607864
aa(lp70
F0.49491918087005615
aF0.024849094450473785
aa(lp71
F0.4954342544078827
aF0.025609368458390236
aa(lp72
F0.49556663632392883
aF0.02645457535982132
aa(lp73
F0.5959982633590698
aF-0.2724195711314678
aa(lp74
F0.8772084355354308
aF0.3229093823581934
aa(lp75
F0.9768253564834595
aF0.0233940239995718
aa(lp76
F0.9761915802955627
aF0.02414497174322605
aa(lp77
F0.9752978086471558
aF0.025206994265317917
aa(lp78
F0.974588930606842
aF0.026051905006170273
aa(lp79
F0.9738956093788147
aF0.026885822415351868
aa(lp80
F0.9729180335998535
aF0.02806493453681469
aa(lp81
F0.971904993057251
aF0.029294200241565704
aa(lp82
F0.9711016416549683
aF0.030271854251623154
aa(lp83
F0.9703159928321838
aF0.031236516311764717
aasS'25k_limitCandActs'
p84
(lp85
(lp86
F0.22478371858596802
aF0.8536131978034973
aa(lp87
F0.22498483955860138
aF0.8514237999916077
aa(lp88
F0.8944745063781738
aF0.14331330358982086
aa(lp89
F0.89121413230896
aF0.1450529396533966
aa(lp90
F0.8885670900344849
aF0.14626681804656982
aa(lp91
F0.8861582279205322
aF0.1476951539516449
aa(lp92
F0.9826751112937928
aF-0.15052138566970824
aa(lp93
F0.7798929452896117
aF0.45055227279663085
aa(lp94
F0.8780157566070557
aF0.15122608840465546
aa(lp95
F0.8754786849021912
aF0.15259583294391632
aa(lp96
F0.8718073964118958
aF0.15429998934268951
aa(lp97
F0.868826687335968
aF0.1554841846227646
aa(lp98
F0.6917654871940613
aF0.5429751873016357
aa(lp99
F0.6867249011993408
aF0.5402477979660034
aa(lp100
F0.6816397905349731
aF0.5375180244445801
aa(lp101
F0.6777082681655884
aF0.535269021987915
aa(lp102
F0.6739305257797241
aF0.533419132232666
aasS'20k_errThresh95/'
p103
(lp104
(lp105
F0.7459235191345215
aF0.7943630814552307
aa(lp106
F0.30357304215431213
aF0.7378258109092712
aa(lp107
F0.30520033836364746
aF0.7348018884658813
aa(lp108
F0.30701783299446106
aF0.7305362224578857
aa(lp109
F0.30811452865600586
aF0.7271581292152405
aa(lp110
F0.3097551465034485
aF0.7240575551986694
aa(lp111
F0.9066708445549012
aF-0.07463351190090178
aa(lp112
F0.7027924299240111
aF0.5273618578910828
aa(lp113
F0.8001800179481506
aF0.2284095138311386
aa(lp114
F0.7967110276222229
aF0.23075111210346222
aa(lp115
F0.791813313961029
aF0.23381724953651428
aa(lp116
F0.7879290580749512
aF0.23607340455055237
aa(lp117
F0.7843047380447388
aF0.23846930265426636
aa(lp118
F0.7791910171508789
aF0.24160577356815338
aa(lp119
F0.7739909887313843
aF0.24477024376392365
aa(lp120
F0.7698708176612854
aF0.24709801375865936
aa(lp121
F0.7660295367240906
aF0.24956922233104706
aassS'ball_color'
p122
S'red'
p123
sS'sensorLog'
p124
(lp125
(lp126
F0.33843715071179253
aF0.357900865202976
aF0.604366991823726
aF0.5214033710348379
aF0.44187960000000004
aF0.13316960000000008
aF0.33
aa(lp127
F0.3214822617435791
aF0.36111869780446393
aF0.580583687735589
aF0.5214033710348379
aF0.44187960000000004
aF0.13316960000000008
aF0.33
aa(lp128
F0.3130054543178063
aF0.3627276141052079
aF0.5686920356915206
aF0.5214033710348379
aF0.44187960000000004
aF0.13316960000000008
aF0.33
aa(lp129
F0.2960532959900343
aF0.36594544670669577
aF0.5449087316033836
aF0.5214033710348379
aF0.44187960000000004
aF0.13316960000000008
aF0.33
aa(lp130
F0.2791033745773061
aF0.3691632793081837
aF0.5211254275152466
aF0.5214033710348379
aF0.44187960000000004
aF0.13316960000000008
aF0.33
aa(lp131
F0.27062938406127046
aF0.37077219560892766
aF0.5092337754711782
aF0.5214033710348379
aF0.44187960000000004
aF0.13316960000000008
aF0.33
aa(lp132
F0.2536836674901949
aF0.37399002821041555
aF0.4854504713830412
aF0.5214033710348379
aF0.44187960000000004
aF0.13316960000000008
aF0.33
aa(lp133
F0.23674151048174794
aF0.3772078608119035
aF0.46166716729490426
aF0.5214033710348379
aF0.44187960000000004
aF0.13316960000000008
aF0.33
aa(lp134
F0.22544104978704094
aF0.3795903972750686
aF0.4458473719636881
aF0.5309526676203515
aF0.44187960000000004
aF0.13316960000000008
aF0.33
aa(lp135
F0.21695578891521802
aF0.38190948949540376
aF0.43407359554006
aF0.5309526676203515
aF0.44187960000000004
aF0.13316960000000008
aF0.33
aa(lp136
F0.19998527239103328
aF0.3865476739360741
aF0.41052604269280374
aF0.5309526676203515
aF0.44187960000000004
aF0.13316960000000008
aF0.33
aa(lp137
F0.18301476443942327
aF0.39118585837674436
aF0.38697848984554745
aF0.5309526676203515
aF0.44187960000000004
aF0.13316960000000008
aF0.33
aa(lp138
F0.17452951445979703
aF0.3935049505970795
aF0.3752047134219193
aF0.5309526676203515
aF0.44187960000000004
aF0.13316960000000008
aF0.33
aa(lp139
F0.15755902464502095
aF0.39814313503774984
aF0.35165716057466306
aF0.5309526676203515
aF0.44187960000000004
aF0.13316960000000008
aF0.33
aa(lp140
F0.1405885524380232
aF0.4027813194784201
aF0.32810960772740677
aF0.5309526676203515
aF0.44187960000000004
aF0.13316960000000008
aF0.33
aa(lp141
F0.12361810509046788
aF0.40741950391909043
aF0.30456205488015053
aF0.5309526676203515
aF0.44187960000000004
aF0.13316960000000008
aF0.33
aa(lp142
F0.11513289417421739
aF0.4097385961394256
aF0.2927882784565224
aF0.5309526676203515
aF0.44187960000000004
aF0.13316960000000008
aF0.33
aa(lp143
F0.0981625088844346
aF0.41437678058009586
aF0.2692407256092661
aF0.5309526676203515
aF0.44187960000000004
aF0.13316960000000008
aF0.33
aa(lp144
F0.08119219777818885
aF0.4190149650207662
aF0.24569317276200983
aF0.5309526676203515
aF0.44187960000000004
aF0.13316960000000008
aF0.33
aasS'error'
p145
(dp146
g8
F10.90695093654042
sg27
F11.316747373302324
sg46
F7.354744673518844
sg65
F4.943386645630608
sg84
F7.378001404469084
sg103
F6.797221552993076
ssS'motorLog'
p147
(lp148
(lp149
F0.3
aI0
aa(lp150
F0.3
aI0
aa(lp151
F0.3
aI0
aa(lp152
F0.3
aI0
aa(lp153
F0.3
aI0
aa(lp154
F0.3
aI0
aa(lp155
F0.3
aI0
aa(lp156
F0.2
aF0.3
aa(lp157
F0.3
aI0
aa(lp158
F0.3
aI0
aa(lp159
F0.3
aI0
aa(lp160
F0.3
aI0
aa(lp161
F0.3
aI0
aa(lp162
F0.3
aI0
aa(lp163
F0.3
aI0
aa(lp164
F0.3
aI0
aa(lp165
F0.3
aI0
aa(lp166
F0.3
aI0
aa(lp167
F0.3
aI0
aasb.