(ihardBrainTrial
HardBrainTrial
p0
(dp1
S'ball_loc'
p2
(F5.087759
F4.5131957
tp3
sS'robot_loc'
p4
(F5.25874462963937
F5.196282868623795
tp5
sS'hammerMotors'
p6
(dp7
S'25k_limitCandActs_errThresh95/'
p8
(lp9
(lp10
F0.8391495943069458
aF0.3489554226398468
aa(lp11
F0.8359799981117249
aF0.34977295994758606
aa(lp12
F0.8309423327445984
aF0.3509078919887543
aa(lp13
F0.8266140222549438
aF0.3517166078090668
aa(lp14
F0.8228422999382019
aF0.35289010405540466
aasS'25k'
p15
(lp16
(lp17
F0.7581422328948975
aF0.16234678030014038
aa(lp18
F0.7550053000450134
aF0.16291984915733337
aa(lp19
F0.751169741153717
aF0.1639397144317627
aa(lp20
F0.7485111951828003
aF0.16478700935840607
aa(lp21
F0.7453160285949707
aF0.1658812016248703
aasS'50k'
p22
(lp23
(lp24
F0.7825751900672913
aF0.4168347120285034
aa(lp25
F0.7787969708442688
aF0.41426390409469604
aa(lp26
F0.7733603119850159
aF0.4117458164691925
aa(lp27
F0.7688537836074829
aF0.41034162044525146
aa(lp28
F0.7656118273735046
aF0.40866780281066895
aasS'7k_1001/'
p29
(lp30
(lp31
F0.9896518588066101
aF0.9893301129341125
aa(lp32
F0.9892083406448364
aF0.9889286160469055
aa(lp33
F0.9885861277580261
aF0.9883521199226379
aa(lp34
F0.9880930185317993
aF0.9878849387168884
aa(lp35
F0.9875990152359009
aF0.9874294996261597
aasS'25k_limitCandActs'
p36
(lp37
(lp38
F0.8430870771408081
aF0.4723130464553833
aa(lp39
F0.839268684387207
aF0.47111591696739197
aa(lp40
F0.8338344097137451
aF0.4700307548046112
aa(lp41
F0.8294715285301208
aF0.46955153346061707
aa(lp42
F0.8256370425224304
aF0.4683434069156647
aasS'20k_errThresh95/'
p43
(lp44
(lp45
F0.6439086198806763
aF0.8444199562072754
aa(lp46
F0.6397204399108887
aF0.8417800068855286
aa(lp47
F0.6338869333267212
aF0.8386173248291016
aa(lp48
F0.6292113065719604
aF0.8364972472190857
aa(lp49
F0.6255771517753601
aF0.8339455723762512
aassS'ball_color'
p50
S'red'
p51
sS'sensorLog'
p52
(lp53
(lp54
F0.1906945184130767
aF0.6499651777836221
aF0.5670449211742771
aF0.4524418525030059
aF0.5851036000000001
aF0.3052782799999999
aF0.33
aa(lp55
F0.17391332611790414
aF0.6464325037114961
aF0.555576694899036
aF0.4524418525030059
aF0.5851036000000001
aF0.3173951347999999
aF0.33
aa(lp56
F0.15024347801336976
aF0.6393671555672441
aF0.532640242348554
aF0.4524418525030059
aF0.5851036000000001
aF0.327209787188
aF0.33
aa(lp57
F0.13042637277731708
aF0.6323018074229921
aF0.509703789798072
aF0.4524418525030059
aF0.5851036000000001
aF0.3313939284692001
aF0.33
aa(lp58
F0.12194837020381892
aF0.6287691333508661
aF0.49823556352283094
aF0.4524418525030059
aF0.5851036000000001
aF0.3313939284692001
aF0.33
aa(lp59
F0.10499589303594528
aF0.6217037852066142
aF0.4752991109723489
aF0.4524418525030059
aF0.5851036000000001
aF0.3313939284692001
aF0.33
aa(lp60
F0.0880503839484776
aF0.6146384370623622
aF0.45236265842186685
aF0.4524418525030059
aF0.5851036000000001
aF0.3313939284692001
aF0.33
aasS'error'
p61
(dp62
g8
F2.0260263600668558
sg15
F1.1543938372886244
sg22
F1.9731035778051096
sg29
F7.25557054824208
sg36
F2.5331507852190005
sg43
F4.0796546887286524
ssS'motorLog'
p63
(lp64
(lp65
F0.3
aI0
aa(lp66
F0.3
aI0
aa(lp67
F0.3
aI0
aa(lp68
F0.3
aI0
aa(lp69
F0.3
aI0
aa(lp70
F0.3
aI0
aa(lp71
F0.3
aI0
aasb.