(ihardBrainTrial
HardBrainTrial
p0
(dp1
S'ball_loc'
p2
(F4.826957
F4.467186
tp3
sS'robot_loc'
p4
(F4.965239578805866
F5.142047263557869
tp5
sS'hammerMotors'
p6
(dp7
S'25k_limitCandActs_errThresh95/'
p8
(lp9
(lp10
F0.8147410750389099
aF0.3439665138721466
aa(lp11
F0.8571923971176147
aF0.23513220250606537
aa(lp12
F0.8559885621070862
aF0.23672007024288177
aa(lp13
F0.854900062084198
aF0.23794881999492645
aa(lp14
F0.8533275127410889
aF0.2398996204137802
aa(lp15
F0.8517267107963562
aF0.24190188944339752
aa(lp16
F0.8502782583236694
aF0.24418415129184723
aa(lp17
F0.8490256071090698
aF0.24616572260856628
aa(lp18
F0.8474238514900208
aF0.2484705150127411
aa(lp19
F0.8459469676017761
aF0.2509276568889618
aa(lp20
F0.8448799252510071
aF0.2523881793022156
aa(lp21
F0.8431552648544312
aF0.2549111545085907
aa(lp22
F0.7415473699569701
aF0.55717693567276
aa(lp23
F0.8399201035499573
aF0.2591871917247772
aa(lp24
F0.8375923037528992
aF0.26158711314201355
aa(lp25
F0.8341857194900513
aF0.26533764600753784
aa(lp26
F0.8313151001930237
aF0.26929569244384766
aa(lp27
F0.8290898203849792
aF0.2719520032405853
aa(lp28
F0.8257020115852356
aF0.2764296233654022
aa(lp29
F0.8231731057167053
aF0.27949270606040955
aasS'25k'
p30
(lp31
(lp32
F0.7999998331069946
aF0.1560041755437851
aa(lp33
F0.7980045080184937
aF0.15668657422065735
aa(lp34
F0.5541887879371643
aF0.840770959854126
aa(lp35
F0.5525426268577576
aF0.8395086526870728
aa(lp36
F0.5502474308013916
aF0.8378461003303528
aa(lp37
F0.5477473735809326
aF0.8361830115318298
aa(lp38
F0.5460996627807617
aF0.8350231647491455
aa(lp39
F0.5449846982955933
aF0.833600640296936
aa(lp40
F0.5430938601493835
aF0.8316739201545715
aa(lp41
F0.5415955781936646
aF0.8303931951522827
aa(lp42
F0.5400338768959045
aF0.8288590908050537
aa(lp43
F0.5370670557022095
aF0.8272078633308411
aa(lp44
F0.43401637077331545
aF1.1255125284194947
aa(lp45
F0.5308354496955872
aF0.8241230249404907
aa(lp46
F0.5261280536651611
aF0.8222192525863647
aa(lp47
F0.5198703408241272
aF0.8197805285453796
aa(lp48
F0.5157411694526672
aF0.8182282447814941
aa(lp49
F0.5124108195304871
aF0.8162986636161804
aa(lp50
F0.5076413154602051
aF0.8140077590942383
aa(lp51
F0.5044643878936768
aF0.8122099041938782
aasS'50k'
p52
(lp53
(lp54
F0.7801652550697327
aF0.4285358488559723
aa(lp55
F0.7775174379348755
aF0.42697739601135254
aa(lp56
F0.7751671075820923
aF0.42576685547828674
aa(lp57
F0.7734013199806213
aF0.4245084822177887
aa(lp58
F0.7705714106559753
aF0.42277950048446655
aa(lp59
F0.7676814794540405
aF0.42098796367645264
aa(lp60
F0.7652897834777832
aF0.42018377780914307
aa(lp61
F0.764162540435791
aF0.4202512204647064
aa(lp62
F0.7620505690574646
aF0.41973623633384705
aa(lp63
F0.7600122094154358
aF0.4195176959037781
aa(lp64
F0.7588545083999634
aF0.4191455841064453
aa(lp65
F0.7561221718788147
aF0.4177681505680084
aa(lp66
F0.6535023093223572
aF0.7163439869880677
aa(lp67
F0.7507554292678833
aF0.41478416323661804
aa(lp68
F0.7474342584609985
aF0.4128590226173401
aa(lp69
F0.7422137260437012
aF0.4106373190879822
aa(lp70
F0.7379744052886963
aF0.4100080132484436
aa(lp71
F0.7358933687210083
aF0.4096865952014923
aa(lp72
F0.7318064570426941
aF0.4092489182949066
aa(lp73
F0.7288668751716614
aF0.4094301164150238
aasS'7k_1001/'
p74
(lp75
(lp76
F0.9901648759841919
aF0.9903376698493958
aa(lp77
F0.9899006485939026
aF0.9901039004325867
aa(lp78
F0.9896957874298096
aF0.9899109601974487
aa(lp79
F0.9894890785217285
aF0.989740788936615
aa(lp80
F0.9892058372497559
aF0.989491879940033
aa(lp81
F0.9862193465232849
aF0.014662813395261765
aa(lp82
F0.9859358668327332
aF0.014974243938922882
aa(lp83
F0.9856120347976685
aF0.015277037397027016
aa(lp84
F0.9852272272109985
aF0.015674760565161705
aa(lp85
F0.9849031567573547
aF0.01600637473165989
aa(lp86
F0.9846155047416687
aF0.016297025606036186
aa(lp87
F0.9842517971992493
aF0.016709042713046074
aa(lp88
F0.8839088320732116
aF0.31710760220885276
aa(lp89
F0.983570396900177
aF0.01752479560673237
aa(lp90
F0.9830324053764343
aF0.01816747337579727
aa(lp91
F0.9822764992713928
aF0.01907769776880741
aa(lp92
F0.9816270470619202
aF0.019805224612355232
aa(lp93
F0.9809893369674683
aF0.02046571671962738
aa(lp94
F0.9800869226455688
aF0.021424811333417892
aa(lp95
F0.9794196486473083
aF0.02212062105536461
aasS'25k_limitCandActs'
p96
(lp97
(lp98
F0.8604331612586975
aF0.4772337079048157
aa(lp99
F0.8580273389816284
aF0.47733208537101746
aa(lp100
F0.8560830950737
aF0.47745513916015625
aa(lp101
F0.7200465798377991
aF0.561687171459198
aa(lp102
F0.7174400091171265
aF0.5593388080596924
aa(lp103
F0.7147632241249084
aF0.5569908618927002
aa(lp104
F0.7127871513366699
aF0.5548442006111145
aa(lp105
F0.7112913131713867
aF0.5531948804855347
aa(lp106
F0.7089983820915222
aF0.5511273145675659
aa(lp107
F0.7071588635444641
aF0.549152672290802
aa(lp108
F0.7055348753929138
aF0.547885537147522
aa(lp109
F0.7028451561927795
aF0.5456016063690186
aa(lp110
F0.600177013874054
aF0.8435425639152527
aa(lp111
F0.6974254846572876
aF0.5416855216026306
aa(lp112
F0.6936302185058594
aF0.5395563840866089
aa(lp113
F0.6884081959724426
aF0.5364352464675903
aa(lp114
F0.684755265712738
aF0.5334560871124268
aa(lp115
F0.6817079186439514
aF0.5313670635223389
aa(lp116
F0.6773613691329956
aF0.5279427170753479
aa(lp117
F0.6741533875465393
aF0.5256744623184204
aasS'20k_errThresh95/'
p118
(lp119
(lp120
F0.8408026695251465
aF0.20568978786468506
aa(lp121
F0.8386242389678955
aF0.20623214542865753
aa(lp122
F0.8368861079216003
aF0.20653146505355835
aa(lp123
F0.8351997137069702
aF0.2071300595998764
aa(lp124
F0.8328196406364441
aF0.20777945220470428
aa(lp125
F0.8303685784339905
aF0.20846492052078247
aa(lp126
F0.8284990191459656
aF0.20840853452682495
aa(lp127
F0.8268619775772095
aF0.20834121108055115
aa(lp128
F0.8244591355323792
aF0.2086544781923294
aa(lp129
F0.8225631713867188
aF0.20847752690315247
aa(lp130
F0.8207953572273254
aF0.20888689160346985
aa(lp131
F0.8181749582290649
aF0.20934787392616272
aa(lp132
F0.715536081790924
aF0.5099667191505433
aa(lp133
F0.8129750490188599
aF0.21095283329486847
aa(lp134
F0.8095108866691589
aF0.21323536336421967
aa(lp135
F0.8046265244483948
aF0.2162001132965088
aa(lp136
F0.8009633421897888
aF0.2175072282552719
aa(lp137
F0.7978113889694214
aF0.21887347102165222
aa(lp138
F0.7932621240615845
aF0.2204686999320984
aa(lp139
F0.7897985577583313
aF0.22183866798877716
aassS'ball_color'
p140
S'green'
p141
sS'sensorLog'
p142
(lp143
(lp144
F0.19484553813950417
aF0.5360958315223463
aF0.5568189054231475
aF0.38646432999920377
aF0.48078280000000007
aF0.2868744
aF0.67
aa(lp145
F0.184976154650827
aF0.5258095198756237
aF0.5445659793633701
aF0.39601362658471745
aF0.48078280000000007
aF0.2868744
aF0.67
aa(lp146
F0.17494046352496942
aF0.5162764525735639
aF0.5317182934964805
aF0.40556292317023107
aF0.48078280000000007
aF0.2868744
aF0.67
aa(lp147
F0.16986307805667122
aF0.5118032163736352
aF0.5250857858334885
aF0.41033757146298794
aF0.48078280000000007
aF0.2868744
aF0.67
aa(lp148
F0.15959496068390724
aF0.5034634633064293
aF0.5114332797229644
aF0.41988686804850156
aF0.48078280000000007
aF0.2868744
aF0.67
aa(lp149
F0.1491834655968486
aF0.49595737625669045
aF0.4973052557450114
aF0.42943616463401524
aF0.48078280000000007
aF0.2868744
aF0.67
aa(lp150
F0.13863801806460221
aF0.48931196903219637
aF0.48275255952951535
aF0.4389854612195289
aF0.48078280000000007
aF0.2868744
aF0.67
aa(lp151
F0.14331520827344144
aF0.4863196176229586
aF0.4753332716227394
aF0.4437601095122857
aF0.4775350692824688
aF0.27284542123508615
aF0.67
aa(lp152
F0.14647112082803448
aF0.4810090813585141
aF0.46024219449405557
aF0.4533094060977994
aF0.4723828402111504
aF0.2532804433512073
aF0.67
aa(lp153
F0.14236687716160454
aF0.4766130226387261
aF0.4448598321250291
aF0.46285870268331303
aF0.46984321299169024
aF0.24363651065833877
aF0.67
aa(lp154
F0.14967891088629356
aF0.47476299663932336
aF0.4370766834176273
aF0.4676333509760699
aF0.4650037707475995
aF0.22562382759066396
aF0.67
aa(lp155
F0.14250891421672107
aF0.47176727435583565
aF0.4213614661960907
aF0.4771826475615835
aF0.46348228332787117
aF0.21999379206399006
aF0.67
aa(lp156
F0.13811813751624102
aF0.4697192901422603
aF0.405494892369936
aF0.4867319441470972
aF0.46088053984013583
aF0.21036643131337804
aF0.67
aa(lp157
F0.12974400120391344
aF0.46862641453020865
aF0.3895340644710938
aF0.4962812407326108
aF0.4597713755111538
aF0.206262135414433
aF0.67
aa(lp158
F0.12126153718715801
aF0.4683460521995677
aF0.37753734004467
aF0.4962812407326108
aF0.4597713755111538
aF0.206262135414433
aF0.67
aa(lp159
F0.1042979841904115
aF0.46778532753828583
aF0.3535438911918224
aF0.4962812407326108
aF0.4597713755111538
aF0.206262135414433
aF0.67
aa(lp160
F0.08733715481617657
aF0.467224602877004
aF0.32955044233897474
aF0.4962812407326108
aF0.4597713755111538
aF0.206262135414433
aF0.67
aa(lp161
F0.09412915932657057
aF0.4669442405463631
aF0.31755371791255094
aF0.4962812407326108
aF0.45882172361849916
aF0.18468302140846013
aF0.67
aa(lp162
F0.08892298080926309
aF0.4663835158850812
aF0.29356026905970334
aF0.4962812407326108
aF0.4580909664871015
aF0.1680778931808639
aF0.67
aa(lp163
F0.09219276644854445
aF0.4658227912237994
aF0.2695668202068557
aF0.4962812407326108
aF0.45828320659164634
aF0.13940474034435688
aF0.67
aa(lp164
F0.0898781718653275
aF0.46554242889315844
aF0.2575700957804319
aF0.4962812407326108
aF0.4584872348218578
aF0.13065911992718354
aF0.67
aa(lp165
F0.09363203208400778
aF0.46498170423187657
aF0.23357664692758426
aF0.4962812407326108
aF0.4602468986169786
aF0.10124563589908142
aF0.67
aasS'error'
p166
(dp167
g8
F7.911596948728648
sg30
F10.558522462152027
sg52
F6.958077667708593
sg74
F14.10287656616057
sg96
F7.813714250183424
sg118
F7.2593799494194435
ssS'motorLog'
p168
(lp169
(lp170
F0.2
aF0.3
aa(lp171
F0.2
aF0.3
aa(lp172
F0.2
aF0.3
aa(lp173
F0.2
aF0.3
aa(lp174
F0.2
aF0.3
aa(lp175
F0.2
aF0.3
aa(lp176
F0.2
aF0.3
aa(lp177
F0.2
aF0.3
aa(lp178
F0.2
aF0.3
aa(lp179
F0.2
aF0.3
aa(lp180
F0.2
aF0.3
aa(lp181
F0.2
aF0.3
aa(lp182
F0.2
aF0.3
aa(lp183
F0.3
aI0
aa(lp184
F0.3
aI0
aa(lp185
F0.3
aI0
aa(lp186
F0.3
aI0
aa(lp187
F0.3
aI0
aa(lp188
F0.3
aI0
aa(lp189
F0.3
aI0
aa(lp190
F0.3
aI0
aa(lp191
F0.3
aI0
aasb.