(ihardBrainTrial
HardBrainTrial
p0
(dp1
S'ball_loc'
p2
(F4.7784771624065785
F4.118279021165532
tp3
sS'robot_loc'
p4
(F4.386327486013276
F5.330815602120063
tp5
sS'hammerMotors'
p6
(dp7
S'25k_limitCandActs_errThresh95/'
p8
(lp9
(lp10
F0.6311569213867188
aF0.8033061623573303
aa(lp11
F0.6300139427185059
aF0.8013470768928528
aa(lp12
F0.6281062364578247
aF0.7985999584197998
aa(lp13
F0.6264734268188477
aF0.7964497208595276
aa(lp14
F0.30528512597084045
aF0.8094151020050049
aa(lp15
F0.3033415377140045
aF0.8086392283439636
aa(lp16
F0.3012648820877075
aF0.8079723119735718
aa(lp17
F0.2991998493671417
aF0.8074086904525757
aa(lp18
F0.2979072332382202
aF0.8071874380111694
aa(lp19
F0.29551243782043457
aF0.8068143129348755
aa(lp20
F0.2931981086730957
aF0.8064619898796082
aa(lp21
F0.29169660806655884
aF0.806489109992981
aa(lp22
F0.2890109121799469
aF0.8064330816268921
aa(lp23
F0.28621819615364075
aF0.8065081834793091
aa(lp24
F0.2836078107357025
aF0.8064814805984497
aa(lp25
F0.2818416655063629
aF0.8068700432777405
aa(lp26
F0.27880850434303284
aF0.8072783946990967
aa(lp27
F0.2760314643383026
aF0.8074955344200134
aa(lp28
F0.2741028666496277
aF0.8081409931182861
aa(lp29
F0.2708725929260254
aF0.8088812828063965
aa(lp30
F0.8075677752494812
aF0.8686650395393372
aa(lp31
F0.8061500787734985
aF0.8680698871612549
aa(lp32
F0.8050251007080078
aF0.8676444888114929
aa(lp33
F0.8034394979476929
aF0.8671157360076904
aa(lp34
F0.8021866083145142
aF0.8667423129081726
aa(lp35
F0.8012423515319824
aF0.8665594458580017
aa(lp36
F0.7999080419540405
aF0.8663508296012878
aa(lp37
F0.7986852526664734
aF0.8662745356559753
aa(lp38
F0.7300232648849487
aF0.32559993863105774
aa(lp39
F0.6285754084587097
aF0.626729029417038
aa(lp40
F0.725755512714386
aF0.3292171359062195
aa(lp41
F0.7225723266601562
aF0.33155933022499084
aa(lp42
F0.7199897170066833
aF0.33444303274154663
aa(lp43
F0.7162614464759827
aF0.3374321758747101
aa(lp44
F0.7134427428245544
aF0.33868563175201416
aa(lp45
F0.7111337184906006
aF0.3408496677875519
aa(lp46
F0.7071613073348999
aF0.34390789270401
aasS'25k'
p47
(lp48
(lp49
F0.5776009559631348
aF0.3030954599380493
aa(lp50
F0.5764222145080566
aF0.30194249749183655
aa(lp51
F0.574563205242157
aF0.2999752163887024
aa(lp52
F0.5728920102119446
aF0.2983381450176239
aa(lp53
F0.5714300870895386
aF0.2963552474975586
aa(lp54
F0.5690256953239441
aF0.29386040568351746
aa(lp55
F0.7700309753417969
aF0.14857830107212067
aa(lp56
F0.767034649848938
aF0.14929765462875366
aa(lp57
F0.7641716599464417
aF0.150028258562088
aa(lp58
F0.7602532505989075
aF0.1509929895401001
aa(lp59
F0.7572405934333801
aF0.1516990065574646
aa(lp60
F0.754392147064209
aF0.15242309868335724
aa(lp61
F0.7505165934562683
aF0.1533568799495697
aa(lp62
F0.7466835379600525
aF0.15426823496818542
aa(lp63
F0.7437627911567688
aF0.15490882098674774
aa(lp64
F0.7410455942153931
aF0.15558075904846191
aa(lp65
F0.7373827695846558
aF0.15641114115715027
aa(lp66
F0.7346118688583374
aF0.15697191655635834
aa(lp67
F0.7320683598518372
aF0.15757589042186737
aa(lp68
F0.7286660671234131
aF0.15829059481620789
aa(lp69
F0.7253922820091248
aF0.15894974768161774
aa(lp70
F0.7229456305503845
aF0.15935519337654114
aa(lp71
F0.7207515835762024
aF0.15982338786125183
aa(lp72
F0.7178561091423035
aF0.1603221595287323
aa(lp73
F0.7157161831855774
aF0.1605888456106186
aa(lp74
F0.7215413451194763
aF0.8626329898834229
aa(lp75
F0.7183344960212708
aF0.8617947101593018
aa(lp76
F0.7152876853942871
aF0.8610185384750366
aa(lp77
F0.7130942940711975
aF0.8604134917259216
aa(lp78
F0.6110449075698853
aF1.159980583190918
aa(lp79
F0.7080028653144836
aF0.8589774966239929
aa(lp80
F0.705270528793335
aF0.8578112125396729
aa(lp81
F0.7026157975196838
aF0.8567951321601868
aa(lp82
F0.7007949352264404
aF0.8564012050628662
aa(lp83
F0.7012491226196289
aF0.8572787642478943
aa(lp84
F0.5050401091575623
aF0.8051723837852478
aa(lp85
F0.4995196461677551
aF0.8058987259864807
aasS'50k'
p86
(lp87
(lp88
F0.27709299325942993
aF0.5327037572860718
aa(lp89
F0.2757473587989807
aF0.5324782729148865
aa(lp90
F0.2728726267814636
aF0.5312346816062927
aa(lp91
F0.2698519229888916
aF0.5300130844116211
aa(lp92
F0.2670454680919647
aF0.529136598110199
aa(lp93
F0.2630363702774048
aF0.5277755856513977
aa(lp94
F0.25894153118133545
aF0.5264474153518677
aa(lp95
F0.25567030906677246
aF0.5253070592880249
aa(lp96
F0.25266480445861816
aF0.5245214104652405
aa(lp97
F0.24840840697288513
aF0.5232844352722168
aa(lp98
F0.24503052234649658
aF0.5222147107124329
aa(lp99
F0.8291690349578857
aF0.6180711984634399
aa(lp100
F0.8259689807891846
aF0.6148790717124939
aa(lp101
F0.8226357698440552
aF0.6118153929710388
aa(lp102
F0.8195817470550537
aF0.6093719005584717
aa(lp103
F0.8174014687538147
aF0.6074792742729187
aa(lp104
F0.81376713514328
aF0.6047728657722473
aa(lp105
F0.8105040192604065
aF0.6026216745376587
aa(lp106
F0.8081207275390625
aF0.6010071039199829
aa(lp107
F0.8042411208152771
aF0.5987015962600708
aa(lp108
F0.8002819418907166
aF0.5965662002563477
aa(lp109
F0.7968197464942932
aF0.594876766204834
aa(lp110
F0.7942203879356384
aF0.5936920642852783
aa(lp111
F0.7901163697242737
aF0.5920006036758423
aa(lp112
F0.7865933179855347
aF0.5906667113304138
aa(lp113
F0.7839009761810303
aF0.5898074507713318
aa(lp114
F0.7797397971153259
aF0.5885776281356812
aa(lp115
F0.7755832076072693
aF0.5875352621078491
aa(lp116
F0.7721103429794312
aF0.5867176055908203
aa(lp117
F0.6693943977355957
aF0.8863247513771058
aa(lp118
F0.7642167806625366
aF0.5857796669006348
aa(lp119
F0.7587795853614807
aF0.5857700705528259
aa(lp120
F0.7541342377662659
aF0.5858039855957031
aa(lp121
F0.7489829063415527
aF0.5869389772415161
aa(lp122
F0.48500141501426697
aF0.45585381984710693
aa(lp123
F0.48120853304862976
aF0.45712900161743164
aa(lp124
F0.4745667278766632
aF0.45975202322006226
aasS'7k_1001/'
p125
(lp126
(lp127
F0.01514546200633049
aF0.5041708946228027
aa(lp128
F0.015466142445802689
aF0.5043492317199707
aa(lp129
F0.015881463885307312
aF0.5044795274734497
aa(lp130
F0.0161772258579731
aF0.5043312311172485
aa(lp131
F0.016473041847348213
aF0.5044223666191101
aa(lp132
F0.016887443140149117
aF0.5043497085571289
aa(lp133
F0.01731644570827484
aF0.5042499303817749
aa(lp134
F0.017653020098805428
aF0.5040252804756165
aa(lp135
F0.017984233796596527
aF0.5040505528450012
aa(lp136
F0.01844327338039875
aF0.5038855075836182
aa(lp137
F0.018800539895892143
aF0.5036119818687439
aa(lp138
F0.49747607111930847
aF0.021701719611883163
aa(lp139
F0.4977474510669708
aF0.022174889221787453
aa(lp140
F0.4980383515357971
aF0.022641362622380257
aa(lp141
F0.49833768606185913
aF0.02297465316951275
aa(lp142
F0.49850994348526
aF0.02332206629216671
aa(lp143
F0.49884676933288574
aF0.023758772760629654
aa(lp144
F0.4991823136806488
aF0.024065976962447166
aa(lp145
F0.49938374757766724
aF0.02438046783208847
aa(lp146
F0.4997616112232208
aF0.024768179282546043
aa(lp147
F0.9798009991645813
aF0.020215580239892006
aa(lp148
F0.9796438813209534
aF0.020449990406632423
aa(lp149
F0.9795247316360474
aF0.020643437281250954
aa(lp150
F0.9793750047683716
aF0.020901091396808624
aa(lp151
F0.9792683124542236
aF0.02109391614794731
aa(lp152
F0.9792061448097229
aF0.021240726113319397
aa(lp153
F0.9791327714920044
aF0.021432919427752495
aa(lp154
F0.9790920615196228
aF0.021595502272248268
aa(lp155
F0.9790676832199097
aF0.021713420748710632
aa(lp156
F0.8790943264961242
aF0.3217800512909889
aa(lp157
F0.9790005683898926
aF0.02204653061926365
aa(lp158
F0.9787846207618713
aF0.022400999441742897
aa(lp159
F0.9786140322685242
aF0.022727685049176216
aa(lp160
F0.9786362051963806
aF0.022833632305264473
aa(lp161
F0.9790370464324951
aF0.02236601896584034
aa(lp162
F0.9792813062667847
aF0.022123189643025398
aa(lp163
F0.9793199896812439
aF0.022170232608914375
aasS'25k_limitCandActs'
p164
(lp165
(lp166
F0.23663806915283203
aF0.8660398721694946
aa(lp167
F0.23728403449058533
aF0.864559531211853
aa(lp168
F0.23753850162029266
aF0.8625737428665161
aa(lp169
F0.23742184042930603
aF0.8611181974411011
aa(lp170
F0.2374947965145111
aF0.8598199486732483
aa(lp171
F0.23742136359214783
aF0.8579895496368408
aa(lp172
F0.23730920255184174
aF0.8561730980873108
aa(lp173
F0.23706994950771332
aF0.8547308444976807
aa(lp174
F0.2370627224445343
aF0.8534931540489197
aa(lp175
F0.23684272170066833
aF0.8517488241195679
aa(lp176
F0.2365041971206665
aF0.850365936756134
aa(lp177
F0.23642387986183167
aF0.849217414855957
aa(lp178
F0.23608265817165375
aF0.8475989699363708
aa(lp179
F0.8849518895149231
aF0.13746468722820282
aa(lp180
F0.8835182785987854
aF0.13790233433246613
aa(lp181
F0.8822950124740601
aF0.13840490579605103
aa(lp182
F0.8805351853370667
aF0.13894735276699066
aa(lp183
F0.8791146874427795
aF0.13926087319850922
aa(lp184
F0.8779323697090149
aF0.13962307572364807
aa(lp185
F0.8762335777282715
aF0.13997553288936615
aa(lp186
F0.8745734095573425
aF0.1402451992034912
aa(lp187
F0.8732379674911499
aF0.14035451412200928
aa(lp188
F0.8721737265586853
aF0.14048734307289124
aa(lp189
F0.8706463575363159
aF0.14053651690483093
aa(lp190
F0.8694210052490234
aF0.14048418402671814
aa(lp191
F0.8684844374656677
aF0.14043641090393066
aa(lp192
F0.8671409487724304
aF0.14025142788887024
aa(lp193
F0.8658850193023682
aF0.1399705857038498
aa(lp194
F0.864881694316864
aF0.13968059420585632
aa(lp195
F0.7641822934150695
aF0.4393686383962631
aa(lp196
F0.8625531792640686
aF0.13922955095767975
aa(lp197
F0.8606029748916626
aF0.13925816118717194
aa(lp198
F0.7091688513755798
aF0.6602592468261719
aa(lp199
F0.7088837027549744
aF0.6608702540397644
aa(lp200
F0.7098901867866516
aF0.6614910364151001
aa(lp201
F0.7106744647026062
aF0.6623694896697998
aa(lp202
F0.7105095386505127
aF0.6628542542457581
aasS'20k_errThresh95/'
p203
(lp204
(lp205
F0.7307695150375366
aF0.3801824748516083
aa(lp206
F0.7285718321800232
aF0.3807907700538635
aa(lp207
F0.7256767153739929
aF0.38131794333457947
aa(lp208
F0.7235067486763
aF0.3813900649547577
aa(lp209
F0.7213964462280273
aF0.38187745213508606
aa(lp210
F0.7184497117996216
aF0.3823099732398987
aa(lp211
F0.7154402732849121
aF0.38278666138648987
aa(lp212
F0.7130728363990784
aF0.38298511505126953
aa(lp213
F0.7108321189880371
aF0.38357770442962646
aa(lp214
F0.7077134847640991
aF0.3841509521007538
aa(lp215
F0.7052672505378723
aF0.38442644476890564
aa(lp216
F0.7029945254325867
aF0.3850710988044739
aa(lp217
F0.6998384594917297
aF0.38571953773498535
aa(lp218
F0.6966883540153503
aF0.3863917291164398
aa(lp219
F0.6942272782325745
aF0.38675329089164734
aa(lp220
F0.6920011043548584
aF0.38743630051612854
aa(lp221
F0.23178517818450928
aF0.4604252278804779
aa(lp222
F0.22995741665363312
aF0.4591910243034363
aa(lp223
F0.8157910108566284
aF0.19961829483509064
aa(lp224
F0.8133437633514404
aF0.2002691626548767
aa(lp225
F0.8109157085418701
aF0.20091231167316437
aa(lp226
F0.8090234994888306
aF0.2013193815946579
aa(lp227
F0.8073300123214722
aF0.201852947473526
aa(lp228
F0.8049907088279724
aF0.2024575173854828
aa(lp229
F0.8031794428825378
aF0.20283281803131104
aa(lp230
F0.8015820980072021
aF0.20331940054893494
aa(lp231
F0.7993905544281006
aF0.2038574516773224
aa(lp232
F0.7972750067710876
aF0.20436090230941772
aa(lp233
F0.7956560850143433
aF0.2046552449464798
aa(lp234
F0.6942654490470886
aF0.5050406783819199
aa(lp235
F0.7916689515113831
aF0.20628181099891663
aa(lp236
F0.7889297604560852
aF0.20794685184955597
aa(lp237
F0.7864211201667786
aF0.20965777337551117
aa(lp238
F0.7840681076049805
aF0.21002022922039032
aa(lp239
F0.7839776873588562
aF0.20860271155834198
aa(lp240
F0.7832885384559631
aF0.2085530161857605
aa(lp241
F0.7811160087585449
aF0.20872828364372253
aassS'ball_color'
p242
S'green'
p243
sS'sensorLog'
p244
(lp245
(lp246
F0.3580160565953124
aF0.29685169160796576
aF0.6231051612720375
aF0.3894792020861935
aF0.4576103242361743
aF0.14299303312812447
aF0.67
aa(lp247
F0.3568895938416133
aF0.29173215640973604
aF0.6169577748880457
aF0.39425385037895033
aF0.45420783758236283
aF0.1391063153238452
aF0.67
aa(lp248
F0.35370912076900624
aF0.2820576178769631
aF0.6042162793518944
aF0.403803146964464
aF0.4483895854043453
aF0.13246002787852723
aF0.67
aa(lp249
F0.34704982190225514
aF0.27316451941081255
aF0.5909175875368614
aF0.41335244354997763
aF0.4483895854043453
aF0.13246002787852723
aF0.67
aa(lp250
F0.34360470258466963
aF0.2690211250151446
aF0.5840741758963162
aF0.4181270918427345
aF0.4483895854043453
aF0.13246002787852723
aF0.67
aa(lp251
F0.33648760810364164
aF0.261359286419404
aF0.5700300086496373
aF0.4276763884282481
aF0.4483895854043453
aF0.13246002787852723
aF0.67
aa(lp252
F0.32907371497515564
aF0.25455337953201784
aF0.5555516787818625
aF0.4372256850137618
aF0.4483895854043453
aF0.13246002787852723
aF0.67
aa(lp253
F0.3213701115417825
aF0.24862789826828297
aF0.5406912926457963
aF0.4467749815992754
aF0.4483895854043453
aF0.13246002787852723
aF0.67
aa(lp254
F0.3174119706366028
aF0.2460021073626187
aF0.5331344929184162
aF0.4515496298920323
aF0.4483895854043453
aF0.13246002787852723
aF0.67
aa(lp255
F0.3092877904063233
aF0.2414362380500222
aF0.5178016770733027
aF0.4610989264775459
aF0.4483895854043453
aF0.13246002787852723
aF0.67
aa(lp256
F0.3008930227372866
aF0.23779800190559933
aF0.5022226642009386
aF0.4706482230630596
aF0.4483895854043453
aF0.13246002787852723
aF0.67
aa(lp257
F0.29659672498932493
aF0.23633096984010749
aF0.49435832589954176
aF0.4754228713558164
aF0.4483895854043453
aF0.13246002787852723
aF0.67
aa(lp258
F0.2878115990253991
aF0.23410767768363208
aF0.4785153660653812
aF0.4849721679413301
aF0.4483895854043453
aF0.13246002787852723
aF0.67
aa(lp259
F0.2787770828213265
aF0.23283839359875386
aF0.46256759749947385
aF0.49452146452684376
aF0.4483895854043453
aF0.13246002787852723
aF0.67
aa(lp260
F0.2695022740939052
aF0.2325276856375158
aF0.44657241494713346
aF0.5040707611123574
aF0.4483895854043453
aF0.13246002787852723
aF0.67
aa(lp261
F0.26477770674582507
aF0.2327322820992382
aF0.4385750316070748
aF0.5088454094051142
aF0.4483895854043453
aF0.13246002787852723
aF0.67
aa(lp262
F0.255160360042419
aF0.2338604554580364
aF0.4226166598482653
aF0.5183947059906279
aF0.4483895854043453
aF0.13246002787852723
aF0.67
aa(lp263
F0.2453271998764604
aF0.235943526621476
aF0.40675465433673175
aF0.5279440025761415
aF0.4483895854043453
aF0.13246002787852723
aF0.67
aa(lp264
F0.24033297619735317
aF0.23734093971648917
aF0.39887764750406446
aF0.5327186508688984
aF0.4483895854043453
aF0.13246002787852723
aF0.67
aa(lp265
F0.23019609798449003
aF0.2408412341775225
aF0.3832670631778477
aF0.542267947454412
aF0.4483895854043453
aF0.13246002787852723
aF0.67
aa(lp266
F0.21987088136935165
aF0.24527130317814355
aF0.3678944611544555
aF0.5518172440399257
aF0.4483895854043453
aF0.13246002787852723
aF0.67
aa(lp267
F0.20936940227937012
aF0.25061520325384984
aF0.3528151662007538
aF0.5613665406254393
aF0.4483895854043453
aF0.13246002787852723
aF0.67
aa(lp268
F0.20405655202323886
aF0.253623956516838
aF0.3454025145967421
aF0.5661411889181962
aF0.4483895854043453
aF0.13246002787852723
aF0.67
aa(lp269
F0.1933151187408216
aF0.26030153355554864
aF0.33086455156157263
aF0.5756904855037098
aF0.4483895854043453
aF0.13246002787852723
aF0.67
aa(lp270
F0.18243153256648925
aF0.2678388490706872
aF0.31675316328312453
aF0.5852397820892234
aF0.4483895854043453
aF0.13246002787852723
aF0.67
aa(lp271
F0.17694132012462335
aF0.27192155009015656
aF0.30987337023495626
aF0.5900144303819803
aF0.4483895854043453
aF0.13246002787852723
aF0.67
aa(lp272
F0.1658747870663172
aF0.2806966711826693
aF0.29649653749579097
aF0.5995637269674939
aF0.4483895854043453
aF0.13246002787852723
aF0.67
aa(lp273
F0.15470940964525925
aF0.2902581302802581
aF0.2836699672509823
aF0.6091130235530077
aF0.4483895854043453
aF0.13246002787852723
aF0.67
aa(lp274
F0.1434670075116942
aF0.3005715164553081
aF0.2714398213023784
aF0.6186623201385213
aF0.4483895854043453
aF0.13246002787852723
aF0.67
aa(lp275
F0.1378248346762894
aF0.30599868523770796
aF0.2655622504599858
aF0.6234369684312782
aF0.4483895854043453
aF0.13246002787852723
aF0.67
aa(lp276
F0.12651741222095902
aF0.3173695581596981
aF0.25430855536407043
aF0.6329862650167918
aF0.4483895854043453
aF0.13246002787852723
aF0.67
aa(lp277
F0.10954874972557206
aF0.33516997152411176
aF0.23821056530145662
aF0.6329862650167918
aF0.4483895854043453
aF0.13246002787852723
aF0.67
aa(lp278
F0.10106465777963138
aF0.34407017820631863
aF0.2301615702701497
aF0.6329862650167918
aF0.4483895854043453
aF0.13246002787852723
aF0.67
aa(lp279
F0.08409719390965419
aF0.36187059157073237
aF0.21406358020753585
aF0.6329862650167918
aF0.4483895854043453
aF0.13246002787852723
aF0.67
aa(lp280
F0.0883642617900746
aF0.37967100493514605
aF0.19796559014492204
aF0.6329862650167918
aF0.4735300407249536
aF0.1154612452670424
aF0.67
aa(lp281
F0.10058407530781359
aF0.3885712116173529
aF0.1899165951136151
aF0.6329862650167918
aF0.49800331964630723
aF0.09903796097433908
aF0.67
aa(lp282
F0.08979162208274227
aF0.40637162498176665
aF0.17381860505100127
aF0.6329862650167918
aF0.5052735051784474
aF0.09417258264082182
aF0.67
aa(lp283
F0.09335378292532995
aF0.42417203834618034
aF0.15772061498838746
aF0.6329862650167918
aF0.525477927946438
aF0.07306263069324323
aF0.67
aa(lp284
F0.09643502913983883
aF0.4330722450283872
aF0.14967161995708053
aF0.6329862650167918
aF0.5359902642761231
aF0.06018804043445893
aF0.67
aasS'error'
p285
(dp286
g8
F14.04743248615237
sg47
F15.92431141443514
sg86
F12.249749394520052
sg125
F12.177482680472233
sg164
F15.770721056103762
sg203
F10.733447248085199
ssS'motorLog'
p287
(lp288
(lp289
F0.2
aF0.3
aa(lp290
F0.2
aF0.3
aa(lp291
F0.2
aF0.3
aa(lp292
F0.2
aF0.3
aa(lp293
F0.2
aF0.3
aa(lp294
F0.2
aF0.3
aa(lp295
F0.2
aF0.3
aa(lp296
F0.2
aF0.3
aa(lp297
F0.2
aF0.3
aa(lp298
F0.2
aF0.3
aa(lp299
F0.2
aF0.3
aa(lp300
F0.2
aF0.3
aa(lp301
F0.2
aF0.3
aa(lp302
F0.2
aF0.3
aa(lp303
F0.2
aF0.3
aa(lp304
F0.2
aF0.3
aa(lp305
F0.2
aF0.3
aa(lp306
F0.2
aF0.3
aa(lp307
F0.2
aF0.3
aa(lp308
F0.2
aF0.3
aa(lp309
F0.2
aF0.3
aa(lp310
F0.2
aF0.3
aa(lp311
F0.2
aF0.3
aa(lp312
F0.2
aF0.3
aa(lp313
F0.2
aF0.3
aa(lp314
F0.2
aF0.3
aa(lp315
F0.2
aF0.3
aa(lp316
F0.2
aF0.3
aa(lp317
F0.2
aF0.3
aa(lp318
F0.2
aF0.3
aa(lp319
F0.3
aI0
aa(lp320
F0.3
aI0
aa(lp321
F0.3
aI0
aa(lp322
F0.3
aI0
aa(lp323
F0.3
aI0
aa(lp324
F0.3
aI0
aa(lp325
F0.3
aI0
aa(lp326
F0.3
aI0
aa(lp327
F0.3
aI0
aasb.