(ihardBrainTrial
HardBrainTrial
p0
(dp1
S'ball_loc'
p2
(F4.83301
F4.3210508
tp3
sS'robot_loc'
p4
(F4.957849887109358
F5.213821504656757
tp5
sS'hammerMotors'
p6
(dp7
S'25k_limitCandActs_errThresh95/'
p8
(lp9
(lp10
F0.9320143818855287
aF0.6388825058937073
aa(lp11
F0.8287822008132935
aF0.34062847495079046
aa(lp12
F0.7244207501411437
aF0.042921823263168346
aa(lp13
F0.8209583163261414
aF0.3446020185947418
aa(lp14
F0.8171714544296265
aF0.34624072909355164
aa(lp15
F0.8115248084068298
aF0.3481869101524353
aa(lp16
F0.8057456612586975
aF0.35013800859451294
aa(lp17
F0.800931990146637
aF0.3514205813407898
aa(lp18
F0.7968276143074036
aF0.35307371616363525
aa(lp19
F0.7907160520553589
aF0.3550366759300232
aa(lp20
F0.8856314182281495
aF0.6563267588615418
aa(lp21
F0.7815678715705872
aF0.3580126762390137
aa(lp22
F0.6768282890319824
aF0.05978236794471742
aa(lp23
F0.7734423279762268
aF0.361516535282135
aasS'25k'
p24
(lp25
(lp26
F0.7103387475013733
aF1.1268271684646607
aa(lp27
F0.606046199798584
aF0.8252986669540405
aa(lp28
F0.501983368396759
aF0.5237001895904541
aa(lp29
F0.5987176299095154
aF0.8224809169769287
aa(lp30
F0.5697416067123413
aF0.8181555867195129
aa(lp31
F0.563845157623291
aF0.8155572414398193
aa(lp32
F0.5579314827919006
aF0.8129305243492126
aa(lp33
F0.5535107851028442
aF0.8110290765762329
aa(lp34
F0.5490331053733826
aF0.808937132358551
aa(lp35
F0.5430855751037598
aF0.8062394857406616
aa(lp36
F0.6386431217193603
aF1.1042871952056885
aa(lp37
F0.5345571041107178
aF0.8023751974105835
aa(lp38
F0.43122693300247195
aF0.5008326888084411
aa(lp39
F0.5291774868965149
aF0.7991884350776672
aasS'50k'
p40
(lp41
(lp42
F0.8805771231651307
aF0.7294888079166413
aa(lp43
F0.7775240540504456
aF0.4276625514030457
aa(lp44
F0.6735502123832703
aF0.12644762992858888
aa(lp45
F0.7702773809432983
aF0.42583414912223816
aa(lp46
F0.7670957446098328
aF0.42395591735839844
aa(lp47
F0.7620816826820374
aF0.4217906892299652
aa(lp48
F0.7569946050643921
aF0.41962864995002747
aa(lp49
F0.7525736689567566
aF0.4182603359222412
aa(lp50
F0.7492287755012512
aF0.4163920283317566
aa(lp51
F0.7439628839492798
aF0.4142388701438904
aa(lp52
F0.839390790462494
aF0.7128765165805817
aa(lp53
F0.736132800579071
aF0.41131839156150823
aa(lp54
F0.6323316335678101
aF0.11120335459709169
aa(lp55
F0.7306418418884277
aF0.4113447368144989
aasS'7k_1001/'
p56
(lp57
(lp58
F1.0878175854682923
aF1.2874750971794129
aa(lp59
F0.9873809814453125
aF0.9870640635490417
aa(lp60
F0.8867970347404479
aF0.6864919781684875
aa(lp61
F0.9863190650939941
aF0.9860511422157288
aa(lp62
F0.9857919216156006
aF0.9855659008026123
aa(lp63
F0.9850452542304993
aF0.9848669171333313
aa(lp64
F0.984260082244873
aF0.9841346740722656
aa(lp65
F0.9836344718933105
aF0.9835415482521057
aa(lp66
F0.9830060601234436
aF0.9829707741737366
aa(lp67
F0.9821162819862366
aF0.9821488261222839
aa(lp68
F1.0814075827598573
aF1.2814831614494324
aa(lp69
F0.9807264804840088
aF0.9808489680290222
aa(lp70
F0.8799879193305968
aF0.6801623821258544
aa(lp71
F0.979422926902771
aF0.9796267747879028
aasS'25k_limitCandActs'
p72
(lp73
(lp74
F0.9445462584495545
aF0.7860184490680695
aa(lp75
F0.841219961643219
aF0.4844790697097779
aa(lp76
F0.7370678424835204
aF0.18301562666893006
aa(lp77
F0.8336307406425476
aF0.4821315109729767
aa(lp78
F0.8298653960227966
aF0.48050394654273987
aa(lp79
F0.8243765234947205
aF0.4788079261779785
aa(lp80
F0.7100074291229248
aF0.5628979206085205
aa(lp81
F0.7061083912849426
aF0.5602855086326599
aa(lp82
F0.7023571729660034
aF0.5580912828445435
aa(lp83
F0.6971949934959412
aF0.5548812747001648
aa(lp84
F0.7932016611099243
aF0.8522603392601014
aa(lp85
F0.6896117925643921
aF0.5502638816833496
aa(lp86
F0.5863445639610291
aF0.24795467853546144
aa(lp87
F0.6842173337936401
aF0.5467592477798462
aasS'20k_errThresh95/'
p88
(lp89
(lp90
F0.7973575949668884
aF0.7318478107452393
aa(lp91
F0.694038450717926
aF0.42898514866828924
aa(lp92
F0.36248346567153933
aF-0.014507043361663807
aa(lp93
F0.4599136412143707
aF0.2885386645793915
aa(lp94
F0.4569580852985382
aF0.2913745045661926
aa(lp95
F0.4523337185382843
aF0.2955411672592163
aa(lp96
F0.8055275082588196
aF0.23444035649299622
aa(lp97
F0.8016449213027954
aF0.2367228865623474
aa(lp98
F0.797991931438446
aF0.23920880258083344
aa(lp99
F0.7928503751754761
aF0.24242256581783295
aa(lp100
F0.888784682750702
aF0.5447552382946015
aa(lp101
F0.785251259803772
aF0.2472475022077561
aa(lp102
F0.6818353772163391
aF-0.050831708312034596
aa(lp103
F0.7794384360313416
aF0.2508028745651245
aassS'ball_color'
p104
S'red'
p105
sS'sensorLog'
p106
(lp107
(lp108
F0.24934006267330489
aF0.5327932422438245
aF0.5775361184956221
aF0.4978748591777906
aF0.4832039999999999
aF0.22842032000000004
aF0.33
aa(lp109
F0.23795226651053214
aF0.5326330151620834
aF0.5655371882398754
aF0.4978748591777906
aF0.4832039999999999
aF0.23267184800000001
aF0.33
aa(lp110
F0.2239450111578034
aF0.5323659700258482
aF0.5455389711469639
aF0.49310021088503375
aF0.4832039999999999
aF0.23267184800000001
aF0.33
aa(lp111
F0.2126891607745312
aF0.5314329622985241
aF0.5295680005784409
aF0.48355091429952013
aF0.4832039999999999
aF0.23267184800000001
aF0.33
aa(lp112
F0.20421857884429526
aF0.5301949372552468
aF0.5176320341746585
aF0.48355091429952013
aF0.4832039999999999
aF0.23267184800000001
aF0.33
aa(lp113
F0.1872814075492016
aF0.5277188871686921
aF0.4937601013670939
aF0.48355091429952013
aF0.4832039999999999
aF0.23267184800000001
aF0.33
aa(lp114
F0.1703508828331903
aF0.5252428370821374
aF0.46988816855952925
aF0.48355091429952013
aF0.4832039999999999
aF0.23267184800000001
aF0.33
aa(lp115
F0.15342920501161175
aF0.5227667869955827
aF0.44601623575196464
aF0.48355091429952013
aF0.4832039999999999
aF0.23267184800000001
aF0.33
aa(lp116
F0.14497265185104094
aF0.5215287619523054
aF0.43408026934818233
aF0.48355091429952013
aF0.4832039999999999
aF0.23267184800000001
aF0.33
aa(lp117
F0.1280709469520195
aF0.5190527118657506
aF0.41020833654061767
aF0.48355091429952013
aF0.4832039999999999
aF0.23267184800000001
aF0.33
aa(lp118
F0.11119022044074534
aF0.5165766617791959
aF0.38633640373305306
aF0.48355091429952013
aF0.4832039999999999
aF0.23267184800000001
aF0.33
aa(lp119
F0.10276095540575136
aF0.5153386367359186
aF0.37440043732927075
aF0.48355091429952013
aF0.4832039999999999
aF0.23267184800000001
aF0.33
aa(lp120
F0.08873591163096003
aF0.5132752616637898
aF0.35450715998963356
aF0.47877626600676326
aF0.4832039999999999
aF0.23267184800000001
aF0.33
aa(lp121
F0.09329678731572277
aF0.5122115994928087
aF0.3465781863621061
aF0.47400161771400645
aF0.4795544460064683
aF0.2187419967571369
aF0.33
aa(lp122
F0.08728123553606286
aF0.5098697687326961
aF0.33236988496148145
aF0.47400161771400645
aF0.478076376639088
aF0.2131004070037772
aF0.33
aa(lp123
F0.08589134536535806
aF0.5079182430992688
aF0.32052963379429433
aF0.47400161771400645
aF0.4755488780208676
aF0.20345328852553238
aF0.33
aasS'error'
p124
(dp125
g8
F6.914124114145391
sg24
F12.803800295331138
sg40
F7.141983303010694
sg56
F23.4052008029013
sg72
F8.845830335830708
sg88
F5.092808961849886
ssS'motorLog'
p126
(lp127
(lp128
F0.3
aI0
aa(lp129
F0.2
aF-0.3
aa(lp130
F0.2
aF-0.3
aa(lp131
F0.3
aI0
aa(lp132
F0.3
aI0
aa(lp133
F0.3
aI0
aa(lp134
F0.3
aI0
aa(lp135
F0.3
aI0
aa(lp136
F0.3
aI0
aa(lp137
F0.3
aI0
aa(lp138
F0.3
aI0
aa(lp139
F0.2
aF-0.3
aa(lp140
F0.2
aF-0.3
aa(lp141
F0.3
aI0
aa(lp142
F0.3
aI0
aa(lp143
F0.3
aI0
aasb.