(ihardBrainTrial
HardBrainTrial
p0
(dp1
S'ball_loc'
p2
(F4.640929
F4.183407999999999
tp3
sS'robot_loc'
p4
(F5.075589364053744
F4.318832891949231
tp5
sS'hammerMotors'
p6
(dp7
S'25k_limitCandActs_errThresh95/'
p8
(lp9
(lp10
F0.48623156547546387
aF0.4548629820346832
aa(lp11
F0.48623156547546387
aF0.4548629820346832
aa(lp12
F0.48623156547546387
aF0.4548629820346832
aasS'25k'
p13
(lp14
(lp15
F0.38015151023864746
aF0.3910749554634094
aa(lp16
F0.38015151023864746
aF0.3910749554634094
aa(lp17
F0.38015151023864746
aF0.3910749554634094
aasS'50k'
p18
(lp19
(lp20
F0.366479754447937
aF0.44324907660484314
aa(lp21
F0.366479754447937
aF0.44324907660484314
aa(lp22
F0.366479754447937
aF0.44324907660484314
aasS'7k_1001/'
p23
(lp24
(lp25
F0.606855034828186
aF0.4528989791870117
aa(lp26
F0.606855034828186
aF0.4528989791870117
aa(lp27
F0.606855034828186
aF0.4528989791870117
aasS'25k_limitCandActs'
p28
(lp29
(lp30
F0.39660149812698364
aF0.4607178866863251
aa(lp31
F0.39660149812698364
aF0.4607178866863251
aa(lp32
F0.39660149812698364
aF0.4607178866863251
aasS'20k_errThresh95/'
p33
(lp34
(lp35
F0.294059157371521
aF0.5163193941116333
aa(lp36
F0.294059157371521
aF0.5163193941116333
aa(lp37
F0.294059157371521
aF0.5163193941116333
aassS'ball_color'
p38
S'green'
p39
sS'sensorLog'
p40
(lp41
(lp42
I-1
aI0
aI0
aI0
aI0
aI0
aI0
aa(lp43
I-1
aI0
aI0
aI0
aI0
aI0
aI0
aa(lp44
I-1
aI0
aI0
aI0
aI0
aI0
aI0
aa(lp45
I-1
aI0
aI0
aI0
aI0
aI0
aI0
aa(lp46
I-1
aI0
aI0
aI0
aI0
aI0
aI0
aasS'error'
p47
(dp48
g8
F0.7153754569665649
sg13
F0.4691395081920682
sg18
F0.4125842331792695
sg23
F1.1114746183738333
sg28
F0.4765074982288686
sg33
F0.2602113319746593
ssS'motorLog'
p49
(lp50
(lp51
I0
aF0.5
aa(lp52
I0
aF0.5
aa(lp53
I0
aF0.5
aa(lp54
I0
aF0.5
aa(lp55
I0
aF0.5
aasb.