(ihardBrainTrial
HardBrainTrial
p0
(dp1
S'ball_loc'
p2
(F4.542401
F4.368939
tp3
sS'robot_loc'
p4
(F4.183753154103882
F5.646282319605792
tp5
sS'hammerMotors'
p6
(dp7
S'25k_limitCandActs_errThresh95/'
p8
(lp9
(lp10
F0.3538745939731598
aF0.760718047618866
aa(lp11
F0.35303637385368347
aF0.759858250617981
aa(lp12
F0.3512837886810303
aF0.7586621046066284
aa(lp13
F0.3493819832801819
aF0.7575806975364685
aa(lp14
F0.3474296033382416
aF0.7567053437232971
aa(lp15
F0.34625309705734253
aF0.7561891078948975
aa(lp16
F0.343986451625824
aF0.755424439907074
aa(lp17
F0.3415786921977997
aF0.7547971606254578
aa(lp18
F0.3392174541950226
aF0.7542460560798645
aa(lp19
F0.33771058917045593
aF0.7541248798370361
aa(lp20
F0.33496716618537903
aF0.7538621425628662
aa(lp21
F0.33234620094299316
aF0.7535742521286011
aa(lp22
F0.3306175172328949
aF0.7537549734115601
aa(lp23
F0.3275695741176605
aF0.7538785934448242
aa(lp24
F0.3244103491306305
aF0.7541603446006775
aa(lp25
F0.32148468494415283
aF0.7542690634727478
aa(lp26
F0.3194775879383087
aF0.7548811435699463
aa(lp27
F0.8010311722755432
aF0.3049442768096924
aa(lp28
F0.7984623908996582
aF0.3053046762943268
aa(lp29
F0.796435534954071
aF0.3060646057128906
aa(lp30
F0.7934597134590149
aF0.30690932273864746
aa(lp31
F0.7905711531639099
aF0.30782538652420044
aa(lp32
F0.7882233262062073
aF0.3083658516407013
aa(lp33
F0.7864331603050232
aF0.3093196153640747
aa(lp34
F0.7838250398635864
aF0.3103862404823303
aa(lp35
F0.7813534736633301
aF0.31150123476982117
aa(lp36
F0.7793678641319275
aF0.3121691346168518
aa(lp37
F0.6779316306114197
aF0.6132486939430237
aa(lp38
F0.7751600742340088
aF0.3156506419181824
aa(lp39
F0.7720544338226318
aF0.3179149627685547
aa(lp40
F0.7695096135139465
aF0.32071077823638916
aasS'25k'
p41
(lp42
(lp43
F0.8549622893333435
aF0.28213536739349365
aa(lp44
F0.8538540601730347
aF0.2821357846260071
aa(lp45
F0.7894876599311829
aF0.15927864611148834
aa(lp46
F0.7858024835586548
aF0.16027909517288208
aa(lp47
F0.7829362750053406
aF0.161043182015419
aa(lp48
F0.780171811580658
aF0.16181452572345734
aa(lp49
F0.7763668894767761
aF0.16285298764705658
aa(lp50
F0.7725357413291931
aF0.16389651596546173
aa(lp51
F0.7695795297622681
aF0.16466982662677765
aa(lp52
F0.7667686939239502
aF0.16545818746089935
aa(lp53
F0.7629303336143494
aF0.16648802161216736
aa(lp54
F0.7599862813949585
aF0.16723249852657318
aa(lp55
F0.7572173476219177
aF0.16800051927566528
aa(lp56
F0.7534593343734741
aF0.16897833347320557
aa(lp57
F0.7497586607933044
aF0.1699245721101761
aa(lp58
F0.7469467520713806
aF0.17057836055755615
aa(lp59
F0.7443469166755676
aF0.17127138376235962
aa(lp60
F0.7408528327941895
aF0.17211216688156128
aa(lp61
F0.738218367099762
aF0.17266620695590973
aa(lp62
F0.7358176708221436
aF0.17327314615249634
aa(lp63
F0.7326181530952454
aF0.17397211492061615
aa(lp64
F0.7295599579811096
aF0.17460478842258453
aa(lp65
F0.7272847890853882
aF0.17497414350509644
aa(lp66
F0.7252652049064636
aF0.17541833221912384
aa(lp67
F0.7226145267486572
aF0.17586340010166168
aa(lp68
F0.7201470732688904
aF0.1762254238128662
aa(lp69
F0.7183469533920288
aF0.17636513710021973
aa(lp70
F0.6168124914169312
aF0.47660382390022277
aa(lp71
F0.7145252823829651
aF0.17724263668060303
aa(lp72
F0.7123613357543945
aF0.1781897395849228
aa(lp73
F0.7104087471961975
aF0.17921368777751923
aasS'50k'
p74
(lp75
(lp76
F0.6128032803535461
aF0.7412860989570618
aa(lp77
F0.8426805734634399
aF0.6721985936164856
aa(lp78
F0.840676486492157
aF0.6684523224830627
aa(lp79
F0.8385003209114075
aF0.6647411584854126
aa(lp80
F0.8363103866577148
aF0.6617411971092224
aa(lp81
F0.8349182605743408
aF0.6592656373977661
aa(lp82
F0.8323222994804382
aF0.655692458152771
aa(lp83
F0.8295639753341675
aF0.6521940231323242
aa(lp84
F0.8269172310829163
aF0.6493819355964661
aa(lp85
F0.8251306414604187
aF0.6471098065376282
aa(lp86
F0.8219847679138184
aF0.6438443660736084
aa(lp87
F0.8190436363220215
aF0.6412296295166016
aa(lp88
F0.816994309425354
aF0.639156699180603
aa(lp89
F0.8134958148002625
aF0.6361854076385498
aa(lp90
F0.8098686933517456
aF0.6333471536636353
aa(lp91
F0.8065797090530396
aF0.6310860514640808
aa(lp92
F0.8042052984237671
aF0.6293565034866333
aa(lp93
F0.8002949953079224
aF0.626884400844574
aa(lp94
F0.7968178391456604
aF0.6249218583106995
aa(lp95
F0.7942538857460022
aF0.623474657535553
aa(lp96
F0.7901263236999512
aF0.6214085817337036
aa(lp97
F0.7859334945678711
aF0.6195136904716492
aa(lp98
F0.782301127910614
aF0.61801677942276
aa(lp99
F0.779552161693573
aF0.6170011758804321
aa(lp100
F0.7752581834793091
aF0.615550696849823
aa(lp101
F0.7709510326385498
aF0.6142827868461609
aa(lp102
F0.767317533493042
aF0.6132867932319641
aa(lp103
F0.6645028829574585
aF0.9127275228500367
aa(lp104
F0.7591139674186707
aF0.6118978261947632
aa(lp105
F0.7533824443817139
aF0.6115983724594116
aa(lp106
F0.7485558986663818
aF0.611371636390686
aasS'7k_1001/'
p107
(lp108
(lp109
F0.01768321730196476
aF0.5000094175338745
aa(lp110
F0.017992038279771805
aF0.5001450181007385
aa(lp111
F0.018427755683660507
aF0.5001373291015625
aa(lp112
F0.018883440643548965
aF0.5001016855239868
aa(lp113
F0.019243527203798294
aF0.49992644786834717
aa(lp114
F0.01960175856947899
aF0.49999648332595825
aa(lp115
F0.020101778209209442
aF0.4998924434185028
aa(lp116
F0.02061682567000389
aF0.4997619390487671
aa(lp117
F0.021019386127591133
aF0.4995132088661194
aa(lp118
F0.02141348272562027
aF0.4995180368423462
aa(lp119
F0.021957585588097572
aF0.4993244707584381
aa(lp120
F0.022379351779818535
aF0.49902963638305664
aa(lp121
F0.022787345573306084
aF0.49898990988731384
aa(lp122
F0.02334577590227127
aF0.4987388551235199
aa(lp123
F0.49167054891586304
aF0.030763929709792137
aa(lp124
F0.49198880791664124
aF0.031190911307930946
aa(lp125
F0.4921756684780121
aF0.031632352620363235
aa(lp126
F0.49253368377685547
aF0.03218263387680054
aa(lp127
F0.4928850531578064
aF0.032566387206315994
aa(lp128
F0.49310046434402466
aF0.032954853028059006
aa(lp129
F0.49349674582481384
aF0.03342832252383232
aa(lp130
F0.4939066767692566
aF0.03386415168642998
aa(lp131
F0.49429264664649963
aF0.034157074987888336
aa(lp132
F0.9722224473953247
aF0.02769465371966362
aa(lp133
F0.9720677733421326
aF0.02799665369093418
aa(lp134
F0.9719550013542175
aF0.028262684121727943
aa(lp135
F0.971878707408905
aF0.02845841273665428
aa(lp136
F0.8718680977821349
aF0.32858853340148925
aa(lp137
F0.9716655015945435
aF0.029010144993662834
aa(lp138
F0.9713072776794434
aF0.029542040079832077
aa(lp139
F0.9710063934326172
aF0.030039193108677864
aasS'25k_limitCandActs'
p140
(lp141
(lp142
F0.2024807184934616
aF0.5436020493507385
aa(lp143
F0.2034408301115036
aF0.5408841371536255
aa(lp144
F0.20448647439479828
aF0.5374581813812256
aa(lp145
F0.20547935366630554
aF0.534032940864563
aa(lp146
F0.2060360163450241
aF0.5316607356071472
aa(lp147
F0.20685648918151855
aF0.5289153456687927
aa(lp148
F0.20769131183624268
aF0.5255298018455505
aa(lp149
F0.20845304429531097
aF0.522175133228302
aa(lp150
F0.20882388949394226
aF0.5199072957038879
aa(lp151
F0.20944729447364807
aF0.5172193646430969
aa(lp152
F0.21000416576862335
aF0.5139781832695007
aa(lp153
F0.21021711826324463
aF0.5118271112442017
aa(lp154
F0.2106696516275406
aF0.5092301964759827
aa(lp155
F0.2109944224357605
aF0.5061516761779785
aa(lp156
F0.2112201303243637
aF0.5031511187553406
aa(lp157
F0.2111857831478119
aF0.5012162327766418
aa(lp158
F0.21136675775051117
aF0.49881118535995483
aa(lp159
F0.8770910501480103
aF0.16163237392902374
aa(lp160
F0.8756691217422485
aF0.16191300749778748
aa(lp161
F0.8745006918907166
aF0.16223934292793274
aa(lp162
F0.8728231191635132
aF0.16252698004245758
aa(lp163
F0.8711947798728943
aF0.16271668672561646
aa(lp164
F0.8698870539665222
aF0.16275554895401
aa(lp165
F0.8688633441925049
aF0.16281087696552277
aa(lp166
F0.8673954606056213
aF0.16274304687976837
aa(lp167
F0.8660065531730652
aF0.16256844997406006
aa(lp168
F0.8648959994316101
aF0.1623428910970688
aa(lp169
F0.764089548587799
aF0.4621035039424896
aa(lp170
F0.8622729182243347
aF0.1621323972940445
aa(lp171
F0.8601386547088623
aF0.16231928765773773
aa(lp172
F0.8583055138587952
aF0.1626250147819519
aasS'20k_errThresh95/'
p173
(lp174
(lp175
F0.7625998258590698
aF0.785880982875824
aa(lp176
F0.7608289122581482
aF0.7838398814201355
aa(lp177
F0.7579901814460754
aF0.7808356881141663
aa(lp178
F0.7550578713417053
aF0.777845561504364
aa(lp179
F0.752474308013916
aF0.7753860950469971
aa(lp180
F0.7505016922950745
aF0.7734131217002869
aa(lp181
F0.8321670889854431
aF0.2201714962720871
aa(lp182
F0.8298853039741516
aF0.22073131799697876
aa(lp183
F0.8280681371688843
aF0.2210730016231537
aa(lp184
F0.8263517022132874
aF0.22163936495780945
aa(lp185
F0.8239320516586304
aF0.22228385508060455
aa(lp186
F0.8220142722129822
aF0.22268861532211304
aa(lp187
F0.8202251195907593
aF0.22329799830913544
aa(lp188
F0.8177134394645691
aF0.22399894893169403
aa(lp189
F0.8151791095733643
aF0.22471429407596588
aa(lp190
F0.8131839632987976
aF0.22517073154449463
aa(lp191
F0.8113537430763245
aF0.22580388188362122
aa(lp192
F0.8088005781173706
aF0.22653424739837646
aa(lp193
F0.8068010210990906
aF0.2270001769065857
aa(lp194
F0.8049893379211426
aF0.22762355208396912
aa(lp195
F0.8024747371673584
aF0.22833839058876038
aa(lp196
F0.7999923825263977
aF0.2290383130311966
aa(lp197
F0.7980645298957825
aF0.22947782278060913
aa(lp198
F0.79635089635849
aF0.2300492376089096
aa(lp199
F0.7939925193786621
aF0.23068976402282715
aa(lp200
F0.7917014956474304
aF0.23129746317863464
aa(lp201
F0.7899412512779236
aF0.23166275024414062
aa(lp202
F0.6884138822555542
aF0.5321355938911438
aa(lp203
F0.78557288646698
aF0.23358094692230225
aa(lp204
F0.7825895547866821
aF0.23547855019569397
aa(lp205
F0.7798510789871216
aF0.23743167519569397
aassS'ball_color'
p206
S'red'
p207
sS'sensorLog'
p208
(lp209
(lp210
F0.3704333116729245
aF0.21592864634284686
aF0.7492040343775805
aF0.3913118712558967
aF0.36696039999999996
aF0.24757560000000006
aF0.33
aa(lp211
F0.3672904003729855
aF0.2108802361437096
aF0.7429981054010899
aF0.39608651954865354
aF0.36696039999999996
aF0.24757560000000006
aF0.33
aa(lp212
F0.36076310566084174
aF0.2013530540814184
aF0.7301460547370198
aF0.4056358161341672
aF0.36696039999999996
aF0.24757560000000006
aF0.33
aa(lp213
F0.35391912694296085
aF0.1926136762520727
aF0.7167458428179561
aF0.41518511271968084
aF0.36696039999999996
aF0.24757560000000006
aF0.33
aa(lp214
F0.3467650955996152
aF0.18469355497846288
aF0.7028456959363154
aF0.4247344093051945
aF0.36696039999999996
aF0.24757560000000006
aF0.33
aa(lp215
F0.34307397569763015
aF0.1810497410663892
aF0.6957237144582308
aF0.4295090575979513
aF0.36696039999999996
aF0.24757560000000006
aF0.33
aa(lp216
F0.33546804635114047
aF0.17441099967351192
aF0.6811679761726485
aF0.439058354183465
aF0.36696039999999996
aF0.24757560000000006
aF0.33
aa(lp217
F0.3275701430021142
aF0.1686570248155217
aF0.6662403448249264
aF0.4486076507689786
aF0.36696039999999996
aF0.24757560000000006
aF0.33
aa(lp218
F0.31938810926358974
aF0.16380852458835982
aF0.6509945437680098
aF0.4581569473544923
aF0.36696039999999996
aF0.24757560000000006
aF0.33
aa(lp219
F0.31519309305286175
aF0.16172940948047732
aF0.6432694366251817
aF0.4629315956472491
aF0.36696039999999996
aF0.24757560000000006
aF0.33
aa(lp220
F0.30660036322756645
aF0.15827080290858325
aF0.6276495632293848
aF0.4724808922327628
aF0.36696039999999996
aF0.24757560000000006
aF0.33
aa(lp221
F0.2977447174671698
aF0.15575505015060856
aF0.6118504052650942
aF0.4820301888182765
aF0.36696039999999996
aF0.24757560000000006
aF0.33
aa(lp222
F0.2932211493772726
aF0.15485370684881694
aF0.6039013436693889
aF0.4868048371110333
aF0.36696039999999996
aF0.24757560000000006
aF0.33
aa(lp223
F0.28398844643961163
aF0.15376814141031048
aF0.5879400169075378
aF0.49635413369654696
aF0.36696039999999996
aF0.24757560000000006
aF0.33
aa(lp224
F0.2745165412623309
aF0.15364163450482665
aF0.571942317062787
aF0.5059034302820606
aF0.36696039999999996
aF0.24757560000000006
aF0.33
aa(lp225
F0.2648157137680291
aF0.1544746414206138
aF0.5559658185791353
aF0.5154527268675743
aF0.36696039999999996
aF0.24757560000000006
aF0.33
aa(lp226
F0.25988280690542437
aF0.15525016039079312
aF0.5480034966610706
aF0.5202273751603311
aF0.36696039999999996
aF0.24757560000000006
aF0.33
aa(lp227
F0.24985902243058897
aF0.1575157404101642
aF0.532166528785379
aF0.5297766717458448
aF0.36696039999999996
aF0.24757560000000006
aF0.33
aa(lp228
F0.23963442843212035
aF0.16072689165307957
aF0.5164939121558885
aF0.5393259683313584
aF0.36696039999999996
aF0.24757560000000006
aF0.33
aa(lp229
F0.23445067731336197
aF0.16268357689877283
aF0.5087368906366916
aF0.5441006166241152
aF0.36696039999999996
aF0.24757560000000006
aF0.33
aa(lp230
F0.2239484119394024
aF0.1672903638000644
aF0.4934163188860694
aF0.5536499132096289
aF0.36696039999999996
aF0.24757560000000006
aF0.33
aa(lp231
F0.2132780237369652
aF0.1728075438360232
aF0.47839955729208083
aF0.5631992097951426
aF0.36696039999999996
aF0.24757560000000006
aF0.33
aa(lp232
F0.20245439734535858
aF0.17921526111635905
aF0.46374064998030773
aF0.5727485063806562
aF0.36696039999999996
aF0.24757560000000006
aF0.33
aa(lp233
F0.19699014861687836
aF0.1827459877060278
aF0.45656193353870017
aF0.5775231546734131
aF0.36696039999999996
aF0.24757560000000006
aF0.33
aa(lp234
F0.18596777444640405
aF0.19044529256575693
aF0.44253827107139754
aF0.5870724512589267
aF0.36696039999999996
aF0.24757560000000006
aF0.33
aa(lp235
F0.1748364717191049
aF0.19897165782091902
aF0.42900152479116327
aF0.5966217478444403
aF0.36696039999999996
aF0.24757560000000006
aF0.33
aa(lp236
F0.1636181800523804
aF0.20829439776396513
aF0.4160004123666742
aF0.6061710444299541
aF0.36696039999999996
aF0.24757560000000006
aF0.33
aa(lp237
F0.1579842448308526
aF0.2132440320305406
aF0.40971542067000966
aF0.6109456927227108
aF0.36696039999999996
aF0.24757560000000006
aF0.33
aa(lp238
F0.1466850609722107
aF0.22369756147865089
aF0.397604841559275
aF0.6204949893082246
aF0.36696039999999996
aF0.24757560000000006
aF0.33
aa(lp239
F0.12971476162745396
aF0.24018102461052138
aF0.38016077542834453
aF0.6204949893082246
aF0.36696039999999996
aF0.24757560000000006
aF0.33
aa(lp240
F0.12122963960968551
aF0.24842275617645662
aF0.37143874236287927
aF0.6204949893082246
aF0.36696039999999996
aF0.24757560000000006
aF0.33
aa(lp241
F0.10425947338998155
aF0.2649062193083271
aF0.3539946762319488
aF0.6204949893082246
aF0.36696039999999996
aF0.24757560000000006
aF0.33
aa(lp242
F0.08728946135261115
aF0.2813896824401976
aF0.33655061010101833
aF0.6204949893082246
aF0.36696039999999996
aF0.24757560000000006
aF0.33
aasS'error'
p243
(dp244
g8
F8.63867464675926
sg41
F9.714231163147813
sg74
F15.335235243234834
sg107
F6.912418564240273
sg140
F6.884607076986864
sg173
F12.357943384421349
ssS'motorLog'
p245
(lp246
(lp247
F0.2
aF0.3
aa(lp248
F0.2
aF0.3
aa(lp249
F0.2
aF0.3
aa(lp250
F0.2
aF0.3
aa(lp251
F0.2
aF0.3
aa(lp252
F0.2
aF0.3
aa(lp253
F0.2
aF0.3
aa(lp254
F0.2
aF0.3
aa(lp255
F0.2
aF0.3
aa(lp256
F0.2
aF0.3
aa(lp257
F0.2
aF0.3
aa(lp258
F0.2
aF0.3
aa(lp259
F0.2
aF0.3
aa(lp260
F0.2
aF0.3
aa(lp261
F0.2
aF0.3
aa(lp262
F0.2
aF0.3
aa(lp263
F0.2
aF0.3
aa(lp264
F0.2
aF0.3
aa(lp265
F0.2
aF0.3
aa(lp266
F0.2
aF0.3
aa(lp267
F0.2
aF0.3
aa(lp268
F0.2
aF0.3
aa(lp269
F0.2
aF0.3
aa(lp270
F0.2
aF0.3
aa(lp271
F0.2
aF0.3
aa(lp272
F0.2
aF0.3
aa(lp273
F0.2
aF0.3
aa(lp274
F0.2
aF0.3
aa(lp275
F0.3
aI0
aa(lp276
F0.3
aI0
aa(lp277
F0.3
aI0
aa(lp278
F0.3
aI0
aa(lp279
F0.3
aI0
aasb.