(ihardBrainTrial
HardBrainTrial
p0
(dp1
S'ball_loc'
p2
(F4.742668
F4.240176837
tp3
sS'robot_loc'
p4
(F4.229489267821265
F5.512013360736604
tp5
sS'hammerMotors'
p6
(dp7
S'25k_limitCandActs_errThresh95/'
p8
(lp9
(lp10
F0.31685784459114075
aF0.8097532987594604
aa(lp11
F0.3143552839756012
aF0.8087657690048218
aa(lp12
F0.3122835159301758
aF0.807896077632904
aa(lp13
F0.31054866313934326
aF0.8071189522743225
aa(lp14
F0.30951806902885437
aF0.8066385984420776
aa(lp15
F0.3075025677680969
aF0.8059362173080444
aa(lp16
F0.3054848611354828
aF0.8053465485572815
aa(lp17
F0.3042285740375519
aF0.805099606513977
aa(lp18
F0.3018839359283447
aF0.8046931624412537
aa(lp19
F0.2994145452976227
aF0.8044124841690063
aa(lp20
F0.29704201221466064
aF0.8041266202926636
aa(lp21
F0.29548701643943787
aF0.8042340278625488
aa(lp22
F0.29272744059562683
aF0.8042804598808289
aa(lp23
F0.29013940691947937
aF0.8042324781417847
aa(lp24
F0.28839099407196045
aF0.8046022653579712
aa(lp25
F0.28537794947624207
aF0.8049861192703247
aa(lp26
F0.2822751998901367
aF0.8055053353309631
aa(lp27
F0.2794494330883026
aF0.8058038949966431
aa(lp28
F0.277468740940094
aF0.8065363764762878
aa(lp29
F0.27417388558387756
aF0.8073893189430237
aa(lp30
F0.27081575989723206
aF0.8083720803260803
aa(lp31
F0.2678357660770416
aF0.8090130686759949
aa(lp32
F0.2656775712966919
aF0.8100823163986206
aa(lp33
F0.8113806247711182
aF0.8688496947288513
aa(lp34
F0.81005859375
aF0.8685861229896545
aa(lp35
F0.8090128898620605
aF0.8684090971946716
aa(lp36
F0.8082658648490906
aF0.8684290647506714
aa(lp37
F0.8072052597999573
aF0.8684850931167603
aa(lp38
F0.8063681721687317
aF0.8685436248779297
aa(lp39
F0.8058281540870667
aF0.8688111305236816
aa(lp40
F0.6506609559059143
aF0.613325434923172
aa(lp41
F0.7484940886497498
aF0.31577494740486145
aa(lp42
F0.7459968328475952
aF0.3180830478668213
aa(lp43
F0.7440025210380554
aF0.3209153413772583
aa(lp44
F0.7410690784454346
aF0.32401856780052185
aa(lp45
F0.738726019859314
aF0.32580775022506714
aa(lp46
F0.7368249893188477
aF0.3282666802406311
aa(lp47
F0.7341362833976746
aF0.3308678865432739
aa(lp48
F0.8314350605010987
aF0.03330291509628297
aa(lp49
F0.7291287183761597
aF0.3345406651496887
aa(lp50
F0.6282089591026306
aF0.6354317843914032
aasS'25k'
p51
(lp52
(lp53
F0.19471891224384308
aF0.5445579886436462
aa(lp54
F0.1939629316329956
aF0.5434703230857849
aa(lp55
F0.19285519421100616
aF0.542103111743927
aa(lp56
F0.19195058941841125
aF0.5409649014472961
aa(lp57
F0.19094663858413696
aF0.5401226878166199
aa(lp58
F0.1894906908273697
aF0.5389086604118347
aa(lp59
F0.7798541784286499
aF0.14063866436481476
aa(lp60
F0.7771360874176025
aF0.1413244903087616
aa(lp61
F0.7734165191650391
aF0.1422305405139923
aa(lp62
F0.7696993350982666
aF0.14312979578971863
aa(lp63
F0.7668484449386597
aF0.143781378865242
aa(lp64
F0.7641578912734985
aF0.14445410668849945
aa(lp65
F0.7605066299438477
aF0.14531266689300537
aa(lp66
F0.7577243447303772
aF0.14591632783412933
aa(lp67
F0.7551294565200806
aF0.14655046164989471
aa(lp68
F0.7516316175460815
aF0.14733442664146423
aa(lp69
F0.7482196092605591
aF0.14807923138141632
aa(lp70
F0.7456463575363159
aF0.1485721468925476
aa(lp71
F0.743292510509491
aF0.14911168813705444
aa(lp72
F0.7401545643806458
aF0.1497361958026886
aa(lp73
F0.7371491193771362
aF0.15030406415462494
aa(lp74
F0.7349115014076233
aF0.15063892304897308
aa(lp75
F0.7329160571098328
aF0.151039719581604
aa(lp76
F0.7302942872047424
aF0.15144652128219604
aa(lp77
F0.7278454303741455
aF0.1517818421125412
aa(lp78
F0.7260549068450928
aF0.1519187092781067
aa(lp79
F0.724517822265625
aF0.1521429568529129
aa(lp80
F0.7285950779914856
aF0.8694629073143005
aa(lp81
F0.7266067266464233
aF0.8689407706260681
aa(lp82
F0.7247588038444519
aF0.8685805201530457
aa(lp83
F0.6224308848381043
aF1.1680790662765503
aa(lp84
F0.7199576497077942
aF0.8673033118247986
aa(lp85
F0.7177481055259705
aF0.8663625121116638
aa(lp86
F0.7156125903129578
aF0.865559995174408
aa(lp87
F0.7139446139335632
aF0.8651034832000732
aa(lp88
F0.7132341265678406
aF0.8651077151298523
aa(lp89
F0.7123612761497498
aF0.8650655746459961
aa(lp90
F0.5169153809547424
aF0.8106513023376465
aa(lp91
F0.6124516487121582
aF0.5127303123474121
aa(lp92
F0.5093683004379272
aF0.814123809337616
aa(lp93
F0.40715023279190066
aF1.1147028088569642
aasS'50k'
p94
(lp95
(lp96
F0.2935880124568939
aF0.5281446576118469
aa(lp97
F0.2887505292892456
aF0.5262554287910461
aa(lp98
F0.28455811738967896
aF0.5248099565505981
aa(lp99
F0.2814466953277588
aF0.5236614942550659
aa(lp100
F0.27854806184768677
aF0.5228644609451294
aa(lp101
F0.2744176387786865
aF0.5216058492660522
aa(lp102
F0.27111637592315674
aF0.5205144882202148
aa(lp103
F0.2680666148662567
aF0.5197805762290955
aa(lp104
F0.2637470066547394
aF0.5186082720756531
aa(lp105
F0.25937333703041077
aF0.5174733400344849
aa(lp106
F0.25590938329696655
aF0.5164781212806702
aa(lp107
F0.2527386248111725
aF0.5158442258834839
aa(lp108
F0.24828390777111053
aF0.5148085355758667
aa(lp109
F0.24477741122245789
aF0.5138902068138123
aa(lp110
F0.24158449470996857
aF0.5133327841758728
aa(lp111
F0.23712372779846191
aF0.5124016404151917
aa(lp112
F0.830461859703064
aF0.6079429984092712
aa(lp113
F0.8274621367454529
aF0.6059538125991821
aa(lp114
F0.8252524137496948
aF0.604486346244812
aa(lp115
F0.821678638458252
aF0.6023884415626526
aa(lp116
F0.8180361390113831
aF0.6004612445831299
aa(lp117
F0.8148670196533203
aF0.5989362001419067
aa(lp118
F0.8124679923057556
aF0.5978983044624329
aa(lp119
F0.8087039589881897
aF0.5964124202728271
aa(lp120
F0.8049134016036987
aF0.5951071381568909
aa(lp121
F0.8017004728317261
aF0.5940780639648438
aa(lp122
F0.7992078065872192
aF0.5934903621673584
aa(lp123
F0.7954120635986328
aF0.5926404595375061
aa(lp124
F0.7922574281692505
aF0.5919718742370605
aa(lp125
F0.7897686958312988
aF0.5917068123817444
aa(lp126
F0.6860633134841919
aF0.8913103222846985
aa(lp127
F0.7813781499862671
aF0.5911925435066223
aa(lp128
F0.7765483856201172
aF0.5915969610214233
aa(lp129
F0.7723273038864136
aF0.5920010209083557
aa(lp130
F0.7673113942146301
aF0.5933178067207336
aa(lp131
F0.5064846873283386
aF0.446047306060791
aa(lp132
F0.5024560689926147
aF0.4476514756679535
aa(lp133
F0.49619293212890625
aF0.44992947578430176
aa(lp134
F0.8308380007743836
aF0.09366826415061952
aa(lp135
F0.7313465476036072
aF0.39297613501548767
aa(lp136
F0.6313794493675232
aF0.6917640447616578
aasS'7k_1001/'
p137
(lp138
(lp139
F0.013466930948197842
aF0.5051824450492859
aa(lp140
F0.013918478973209858
aF0.5048683285713196
aa(lp141
F0.014258632436394691
aF0.5047357678413391
aa(lp142
F0.014520044438540936
aF0.5045679807662964
aa(lp143
F0.014780297875404358
aF0.504633903503418
aa(lp144
F0.015144167467951775
aF0.5045320987701416
aa(lp145
F0.015429932624101639
aF0.5043103098869324
aa(lp146
F0.015711111947894096
aF0.5043298602104187
aa(lp147
F0.016101155430078506
aF0.5041629076004028
aa(lp148
F0.01649906113743782
aF0.50397127866745
aa(lp149
F0.016807958483695984
aF0.5036823749542236
aa(lp150
F0.01710687018930912
aF0.5036393404006958
aa(lp151
F0.01751660369336605
aF0.503389835357666
aa(lp152
F0.017831774428486824
aF0.503060519695282
aa(lp153
F0.018132798373699188
aF0.5029760003089905
aa(lp154
F0.018541386350989342
aF0.502675473690033
aa(lp155
F0.01894543133676052
aF0.502356767654419
aa(lp156
F0.4976918697357178
aF0.021777017042040825
aa(lp157
F0.4979012906551361
aF0.022038577124476433
aa(lp158
F0.4982888698577881
aF0.022357825189828873
aa(lp159
F0.4986906349658966
aF0.02265269123017788
aa(lp160
F0.49907058477401733
aF0.022851279005408287
aa(lp161
F0.49931758642196655
aF0.023043856024742126
aa(lp162
F0.9814181327819824
aF0.01865728572010994
aa(lp163
F0.9813389778137207
aF0.018836921080946922
aa(lp164
F0.9812847971916199
aF0.01896975003182888
aa(lp165
F0.9812735319137573
aF0.01905982568860054
aa(lp166
F0.9812666177749634
aF0.019175266847014427
aa(lp167
F0.9812666177749634
aF0.019258029758930206
aa(lp168
F0.9813126921653748
aF0.019295545294880867
aa(lp169
F0.8813812971115111
aF0.3193389430642128
aa(lp170
F0.9813726544380188
aF0.019501596689224243
aa(lp171
F0.9812471866607666
aF0.01974753476679325
aa(lp172
F0.9811646342277527
aF0.019967734813690186
aa(lp173
F0.9811985492706299
aF0.020062904804944992
aa(lp174
F0.9813571572303772
aF0.01992219313979149
aa(lp175
F0.9814802408218384
aF0.01986958645284176
aa(lp176
F0.9817622303962708
aF0.01963522657752037
aa(lp177
F1.082138216495514
aF-0.2807582553476095
aa(lp178
F0.9823645949363708
aF0.01897982321679592
aa(lp179
F0.8826083779335021
aF0.31875663362443446
aasS'25k_limitCandActs'
p180
(lp181
(lp182
F0.7437881827354431
aF0.6254389882087708
aa(lp183
F0.23755000531673431
aF0.8680503368377686
aa(lp184
F0.2375171184539795
aF0.8663150668144226
aa(lp185
F0.237364262342453
aF0.8649317622184753
aa(lp186
F0.23740333318710327
aF0.8637086749076843
aa(lp187
F0.2372804880142212
aF0.8619848489761353
aa(lp188
F0.23703867197036743
aF0.8606162071228027
aa(lp189
F0.23701919615268707
aF0.8594399690628052
aa(lp190
F0.23679015040397644
aF0.8577826023101807
aa(lp191
F0.23651471734046936
aF0.8561662435531616
aa(lp192
F0.23613308370113373
aF0.8548855185508728
aa(lp193
F0.2360103726387024
aF0.8538366556167603
aa(lp194
F0.23561091721057892
aF0.8523587584495544
aa(lp195
F0.23512209951877594
aF0.8511894345283508
aa(lp196
F0.2349134236574173
aF0.8502745628356934
aa(lp197
F0.2343812882900238
aF0.8489846587181091
aa(lp198
F0.2337944656610489
aF0.8477830290794373
aa(lp199
F0.23315154016017914
aF0.8468341827392578
aa(lp200
F0.8856331706047058
aF0.1353633999824524
aa(lp201
F0.8841090798377991
aF0.1356291025876999
aa(lp202
F0.8826262950897217
aF0.1358117312192917
aa(lp203
F0.881432831287384
aF0.13585974276065826
aa(lp204
F0.880496084690094
aF0.1359238475561142
aa(lp205
F0.8791494369506836
aF0.13588742911815643
aa(lp206
F0.8778701424598694
aF0.13576002418994904
aa(lp207
F0.8768438100814819
aF0.13558270037174225
aa(lp208
F0.8760929703712463
aF0.1353958547115326
aa(lp209
F0.8750127553939819
aF0.13503682613372803
aa(lp210
F0.8741483092308044
aF0.13469409942626953
aa(lp211
F0.8735656142234802
aF0.13432395458221436
aa(lp212
F0.772725486755371
aF0.4337333768606186
aa(lp213
F0.8714492321014404
aF0.1333693414926529
aa(lp214
F0.8698625564575195
aF0.13320797681808472
aa(lp215
F0.8685413002967834
aF0.13311180472373962
aa(lp216
F0.6836784482002258
aF0.5202161073684692
aa(lp217
F0.6824256777763367
aF0.5194380283355713
aa(lp218
F0.7198102474212646
aF0.6684818267822266
aa(lp219
F0.7206588387489319
aF0.6696439385414124
aa(lp220
F0.8219812273979188
aF0.37067915201187135
aa(lp221
F0.722386360168457
aF0.671690821647644
aa(lp222
F0.6230903506278992
aF0.9726832389831543
aasS'20k_errThresh95/'
p223
(lp224
(lp225
F0.26011237502098083
aF0.26194271445274353
aa(lp226
F0.26088935136795044
aF0.2621314823627472
aa(lp227
F0.2614160180091858
aF0.2623647153377533
aa(lp228
F0.22640088200569153
aF0.6327216625213623
aa(lp229
F0.22723057866096497
aF0.6312803626060486
aa(lp230
F0.2280283272266388
aF0.6294860243797302
aa(lp231
F0.22836355865001678
aF0.6282544136047363
aa(lp232
F0.2291712909936905
aF0.626872718334198
aa(lp233
F0.22989028692245483
aF0.6251927018165588
aa(lp234
F0.24969319999217987
aF0.470279335975647
aa(lp235
F0.24816341698169708
aF0.46890988945961
aa(lp236
F0.24704816937446594
aF0.46795889735221863
aa(lp237
F0.24517618119716644
aF0.46647295355796814
aa(lp238
F0.24348004162311554
aF0.46516361832618713
aa(lp239
F0.24221652746200562
aF0.4643428921699524
aa(lp240
F0.24014943838119507
aF0.46299275755882263
aa(lp241
F0.23801323771476746
aF0.4617014527320862
aa(lp242
F0.23613128066062927
aF0.46050092577934265
aa(lp243
F0.2346912920475006
aF0.4598795473575592
aa(lp244
F0.2324065864086151
aF0.4587445557117462
aa(lp245
F0.23007267713546753
aF0.45767518877983093
aa(lp246
F0.228066086769104
aF0.45660755038261414
aa(lp247
F0.22649289667606354
aF0.45619726181030273
aa(lp248
F0.2240627557039261
aF0.45529767870903015
aa(lp249
F0.8164128065109253
aF0.19635404646396637
aa(lp250
F0.8148209452629089
aF0.19666729867458344
aa(lp251
F0.8134338855743408
aF0.1970766931772232
aa(lp252
F0.8115386366844177
aF0.19751718640327454
aa(lp253
F0.8100901246070862
aF0.1977687031030655
aa(lp254
F0.8088527321815491
aF0.1981058120727539
aa(lp255
F0.707179033756256
aF0.49844405353069304
aa(lp256
F0.8049789071083069
aF0.19953259825706482
aa(lp257
F0.8026363253593445
aF0.20104797184467316
aa(lp258
F0.8004981875419617
aF0.20260222256183624
aa(lp259
F0.798272430896759
aF0.2033403366804123
aa(lp260
F0.7972375750541687
aF0.2034742832183838
aa(lp261
F0.7960404753684998
aF0.20377099514007568
aa(lp262
F0.7949463129043579
aF0.20332765579223633
aa(lp263
F0.8944523692131043
aF-0.09765081405639647
aa(lp264
F0.7939119338989258
aF0.20190280675888062
aa(lp265
F0.693599545955658
aF0.5010789215564728
aassS'ball_color'
p266
S'green'
p267
sS'sensorLog'
p268
(lp269
(lp270
F0.387909324900118
aF0.2417957071285059
aF0.7048053442946415
aF0.3980210478819356
aF0.44706720000000005
aF0.19607073479999998
aF0.67
aa(lp271
F0.3744113141894367
aF0.22983972768040423
aF0.6887724233057334
aF0.4027956961746924
aF0.44706720000000005
aF0.20588538718800004
aF0.67
aa(lp272
F0.3659386766071043
aF0.22086262722497665
aF0.6755302908591432
aF0.4123449927602061
aF0.44706720000000005
aF0.21006952846920016
aF0.67
aa(lp273
F0.3598379005224508
aF0.2126957320191451
aF0.6617736841911878
aF0.4218942893457197
aF0.44706720000000005
aF0.21006952846920016
aF0.67
aa(lp274
F0.3566676651486128
aF0.20892541325274472
aF0.6547178570674745
aF0.4266689376384766
aF0.44706720000000005
aF0.21006952846920016
aF0.67
aa(lp275
F0.35009124195317276
aF0.20202799550147824
aF0.6402828983670009
aF0.4362182342239902
aF0.44706720000000005
aF0.21006952846920016
aF0.67
aa(lp276
F0.34320543779437246
aF0.1960085673350509
aF0.6254603179955172
aF0.4457675308095039
aF0.44706720000000005
aF0.21006952846920016
aF0.67
aa(lp277
F0.3396485509279991
aF0.19333499481265867
aF0.6179202908093917
aF0.4505421791022607
aF0.44706720000000005
aF0.21006952846920016
aF0.67
aa(lp278
F0.33231104817563617
aF0.18867216089829597
aF0.6026166839075227
aF0.46009147568777436
aF0.44706720000000005
aF0.21006952846920016
aF0.67
aa(lp279
F0.32468112729376153
aF0.18493538315077346
aF0.5870610130320675
aF0.469640772273288
aF0.44706720000000005
aF0.21006952846920016
aF0.67
aa(lp280
F0.3167661343195297
aF0.1821381099347466
aF0.5713092618000687
aF0.47919006885880167
aF0.44706720000000005
aF0.21006952846920016
aF0.67
aa(lp281
F0.31270412006031834
aF0.18109506666714664
aF0.5633775494539283
aF0.4839647171515585
aF0.44706720000000005
aF0.21006952846920016
aF0.67
aa(lp282
F0.30437600409524873
aF0.1797248593107234
aF0.5474381349063272
aF0.49351401373707215
aF0.44706720000000005
aF0.21006952846920016
aF0.67
aa(lp283
F0.29578261289167945
aF0.17931290874492944
aF0.5314452395758622
aF0.5030633103225858
aF0.44706720000000005
aF0.21006952846920016
aF0.67
aa(lp284
F0.29138908469950964
aF0.1794668780092156
aF0.5234467213714911
aF0.5078379586153426
aF0.44706720000000005
aF0.21006952846920016
aF0.67
aa(lp285
F0.2824138466388235
aF0.18049401294712517
aF0.5074815280391448
aF0.5173872552008563
aF0.44706720000000005
aF0.21006952846920016
aF0.67
aa(lp286
F0.27319527781034353
aF0.1824766365531591
aF0.4916066545606988
aF0.52693655178637
aF0.44706720000000005
aF0.21006952846920016
aF0.67
aa(lp287
F0.2637428088120098
aF0.18540761352331217
aF0.4758792333378693
aF0.5364858483718836
aF0.44706720000000005
aF0.21006952846920016
aF0.67
aa(lp288
F0.2589319200359463
aF0.18722557052750197
aF0.46808853167942316
aF0.5412604966646405
aF0.44706720000000005
aF0.21006952846920016
aF0.67
aa(lp289
F0.2491471902008622
aF0.19155824285345488
aF0.4526881954871257
aF0.5508097932501541
aF0.44706720000000005
aF0.21006952846920016
aF0.67
aa(lp290
F0.23915401553027063
aF0.19680658456780442
aF0.43757537597621726
aF0.5603590898356677
aF0.44706720000000005
aF0.21006952846920016
aF0.67
aa(lp291
F0.22896345356224906
aF0.20295170730790738
aF0.4228044629770508
aF0.5699083864211815
aF0.44706720000000005
aF0.21006952846920016
aF0.67
aa(lp292
F0.2237977710980968
aF0.2063537743470949
aF0.4155638870427154
aF0.5746830347139382
aF0.44706720000000005
aF0.21006952846920016
aF0.67
aa(lp293
F0.2133332171993332
aF0.21380161436548945
aF0.4014050705886373
aF0.584232331299452
aF0.44706720000000005
aF0.21006952846920016
aF0.67
aa(lp294
F0.2027018209423332
aF0.22208507165479538
aF0.3877183346864541
aF0.5937816278849656
aF0.44706720000000005
aF0.21006952846920016
aF0.67
aa(lp295
F0.19191732712390205
aF0.23117433471383214
aF0.3745529368055124
aF0.6033309244704792
aF0.44706720000000005
aF0.21006952846920016
aF0.67
aa(lp296
F0.18647228347184627
aF0.23601103118622113
aF0.3681806242555837
aF0.6081055727632361
aF0.44706720000000005
aF0.21006952846920016
aF0.67
aa(lp297
F0.17548663105556106
aF0.24624679443208705
aF0.3558854400318946
aF0.6176548693487497
aF0.44706720000000005
aF0.21006952846920016
aF0.67
aa(lp298
F0.16438829100325392
aF0.2572014073372145
aF0.34422615787480276
aF0.6272041659342634
aF0.44706720000000005
aF0.21006952846920016
aF0.67
aa(lp299
F0.15880294111763416
aF0.26293605940886733
aF0.33864818641403965
aF0.6319788142270202
aF0.44706720000000005
aF0.21006952846920016
aF0.67
aa(lp300
F0.1475737041744805
aF0.2748942554357875
aF0.3280206771996646
aF0.6415281108125339
aF0.44706720000000005
aF0.21006952846920016
aF0.67
aa(lp301
F0.13628786835267936
aF0.2874682011979008
aF0.3181293531077497
aF0.6510774073980478
aF0.44706720000000005
aF0.21006952846920016
aF0.67
aa(lp302
F0.11932404883238358
aF0.30697966044359254
aF0.3041542696338052
aF0.6510774073980478
aF0.44706720000000005
aF0.21006952846920016
aF0.67
aa(lp303
F0.11084291323569119
aF0.3167353900664384
aF0.29716672789683296
aF0.6510774073980478
aF0.44706720000000005
aF0.21006952846920016
aF0.67
aa(lp304
F0.09388288973091304
aF0.33624684931213017
aF0.28319164442288847
aF0.6510774073980478
aF0.44706720000000005
aF0.21006952846920016
aF0.67
aa(lp305
F0.09219005059781771
aF0.3557583085578219
aF0.269216560948944
aF0.6510774073980478
aF0.4646932736696613
aF0.19758427608922488
aF0.67
aa(lp306
F0.08989366131617031
aF0.3655140381806678
aF0.2622290192119717
aF0.6510774073980478
aF0.471831833505874
aF0.19252774887533483
aF0.67
aa(lp307
F0.08350895736524114
aF0.38502549742635955
aF0.2482539357380272
aF0.6510774073980478
aF0.48403877082579816
aF0.18388108733958325
aF0.67
aa(lp308
F0.0879825395940783
aF0.4045369566720513
aF0.2342788522640827
aF0.6510774073980478
aF0.5107054315577628
aF0.16939349577278762
aF0.67
aa(lp309
F0.09211562797772986
aF0.42404841591774306
aF0.22030376879013822
aF0.6510774073980478
aF0.5328099585275275
aF0.1485994824169456
aF0.67
aa(lp310
F0.09195099239994282
aF0.43055223566630685
aF0.21564540763215662
aF0.6558520556908046
aF0.5385445493321391
aF0.14320487895203157
aF0.67
aa(lp311
F0.09004822508430521
aF0.44396430917185725
aF0.2069242443724999
aF0.6654013522763185
aF0.5483506996080252
aF0.1339801070270287
aF0.67
aa(lp312
F0.09188986538071614
aF0.464652860560215
aF0.19475938344229285
aF0.6654013522763185
aF0.5728979207634002
aF0.12285318300958785
aF0.67
aasS'error'
p313
(dp314
g8
F14.212961156451478
sg51
F17.595371332247346
sg94
F11.835443482433606
sg137
F12.669367225934241
sg180
F16.45919622349931
sg223
F6.738751581947299
ssS'motorLog'
p315
(lp316
(lp317
F0.2
aF0.3
aa(lp318
F0.2
aF0.3
aa(lp319
F0.2
aF0.3
aa(lp320
F0.2
aF0.3
aa(lp321
F0.2
aF0.3
aa(lp322
F0.2
aF0.3
aa(lp323
F0.2
aF0.3
aa(lp324
F0.2
aF0.3
aa(lp325
F0.2
aF0.3
aa(lp326
F0.2
aF0.3
aa(lp327
F0.2
aF0.3
aa(lp328
F0.2
aF0.3
aa(lp329
F0.2
aF0.3
aa(lp330
F0.2
aF0.3
aa(lp331
F0.2
aF0.3
aa(lp332
F0.2
aF0.3
aa(lp333
F0.2
aF0.3
aa(lp334
F0.2
aF0.3
aa(lp335
F0.2
aF0.3
aa(lp336
F0.2
aF0.3
aa(lp337
F0.2
aF0.3
aa(lp338
F0.2
aF0.3
aa(lp339
F0.2
aF0.3
aa(lp340
F0.2
aF0.3
aa(lp341
F0.2
aF0.3
aa(lp342
F0.2
aF0.3
aa(lp343
F0.2
aF0.3
aa(lp344
F0.2
aF0.3
aa(lp345
F0.2
aF0.3
aa(lp346
F0.2
aF0.3
aa(lp347
F0.2
aF0.3
aa(lp348
F0.3
aI0
aa(lp349
F0.3
aI0
aa(lp350
F0.3
aI0
aa(lp351
F0.3
aI0
aa(lp352
F0.3
aI0
aa(lp353
F0.3
aI0
aa(lp354
F0.3
aI0
aa(lp355
F0.3
aI0
aa(lp356
F0.2
aF0.3
aa(lp357
F0.2
aF0.3
aa(lp358
F0.3
aI0
aa(lp359
F0.3
aI0
aasb.