(ihardBrainTrial
HardBrainTrial
p0
(dp1
S'ball_loc'
p2
(F4.565457
F4.399602
tp3
sS'robot_loc'
p4
(F4.736001136283529
F5.52343968604839
tp5
sS'hammerMotors'
p6
(dp7
S'25k_limitCandActs_errThresh95/'
p8
(lp9
(lp10
F0.8010367155075073
aF0.14733301103115082
aa(lp11
F0.8979411721229553
aF0.6522057056427002
aa(lp12
F0.8961454033851624
aF0.6502843499183655
aa(lp13
F0.7946601152420043
aF0.9488747596740723
aa(lp14
F0.8295746445655823
aF0.3221723139286041
aa(lp15
F0.8248528838157654
aF0.32356253266334534
aa(lp16
F0.819354236125946
aF0.3253401219844818
aa(lp17
F0.8147700428962708
aF0.3265061676502228
aa(lp18
F0.810855507850647
aF0.3280159533023834
aa(lp19
F0.805021345615387
aF0.32980605959892273
aa(lp20
F0.7990518808364868
aF0.3316011130809784
aa(lp21
F0.79408198595047
aF0.3327785134315491
aa(lp22
F0.7898430824279785
aF0.3343028724193573
aa(lp23
F0.7835339903831482
aF0.33611011505126953
aa(lp24
F0.7782869338989258
aF0.33729541301727295
aa(lp25
F0.7738156318664551
aF0.338829904794693
aa(lp26
F0.7671675086021423
aF0.34064897894859314
aa(lp27
F0.7596880793571472
aF0.3429073095321655
aa(lp28
F0.7531545162200928
aF0.34481287002563477
aa(lp29
F0.8474387288093568
aF0.04701633453369142
aasS'25k'
p30
(lp31
(lp32
F0.9202786684036255
aF0.3928207755088806
aa(lp33
F0.5437762141227722
aF0.3498721122741699
aa(lp34
F0.5409035086631775
aF0.347573846578598
aa(lp35
F0.43864413499832156
aF0.6459097146987915
aa(lp36
F0.5361638069152832
aF0.34455418586730957
aa(lp37
F0.33768606185913086
aF0.49727344512939453
aa(lp38
F0.33257853984832764
aF0.4935345947742462
aa(lp39
F0.32866358757019043
aF0.49068254232406616
aa(lp40
F0.32499074935913086
aF0.4879278242588043
aa(lp41
F0.5725467205047607
aF0.8284511566162109
aa(lp42
F0.56678706407547
aF0.8259194493293762
aa(lp43
F0.5624828934669495
aF0.8240798711776733
aa(lp44
F0.5581142902374268
aF0.8220667839050293
aa(lp45
F0.5523124933242798
aF0.819461464881897
aa(lp46
F0.5479793548583984
aF0.8175687193870544
aa(lp47
F0.5435837507247925
aF0.815497875213623
aa(lp48
F0.5377497673034668
aF0.8128184080123901
aa(lp49
F0.5326694846153259
aF0.8103915452957153
aa(lp50
F0.5298622250556946
aF0.808297872543335
aa(lp51
F0.8286977171897889
aF0.5580524325370788
aasS'50k'
p52
(lp53
(lp54
F0.6748965382575989
aF0.7971670627593994
aa(lp55
F0.670475423336029
aF0.7949113249778748
aa(lp56
F0.6664730310440063
aF0.7930490374565125
aa(lp57
F0.7069437146186828
aF1.0973976135253907
aa(lp58
F0.8053527474403381
aF0.7966055274009705
aa(lp59
F0.801561176776886
aF0.7949720621109009
aa(lp60
F0.7841862440109253
aF0.43700891733169556
aa(lp61
F0.7800870537757874
aF0.43565091490745544
aa(lp62
F0.7769854664802551
aF0.4337935447692871
aa(lp63
F0.7720907330513
aF0.43165305256843567
aa(lp64
F0.7671207785606384
aF0.42951515316963196
aa(lp65
F0.5540556907653809
aF0.440793514251709
aa(lp66
F0.5500217080116272
aF0.4418697953224182
aa(lp67
F0.5441046357154846
aF0.44355931878089905
aa(lp68
F0.5392616987228394
aF0.4450176954269409
aa(lp69
F0.5352063775062561
aF0.4460960030555725
aa(lp70
F0.529261589050293
aF0.44778862595558167
aa(lp71
F0.5230491757392883
aF0.44976794719696045
aa(lp72
F0.5192463994026184
aF0.45163872838020325
aa(lp73
F0.6153715014457702
aF0.1531315863132477
aasS'7k_1001/'
p74
(lp75
(lp76
F0.011985794641077518
aF0.4965534806251526
aa(lp77
F0.9861971139907837
aF0.984900176525116
aa(lp78
F0.4991423785686493
aF0.013912114314734936
aa(lp79
F0.39939468502998354
aF0.3141656883060932
aa(lp80
F0.4994277060031891
aF0.014535754919052124
aa(lp81
F0.49962151050567627
aF0.015184142626821995
aa(lp82
F0.9830967783927917
aF0.014854971319437027
aa(lp83
F0.9864391684532166
aF0.013926884159445763
aa(lp84
F0.9859619140625
aF0.01446576975286007
aa(lp85
F0.9852921962738037
aF0.015229555778205395
aa(lp86
F0.9845910668373108
aF0.016033006832003593
aa(lp87
F0.9840375781059265
aF0.016673646867275238
aa(lp88
F0.9834772944450378
aF0.017316926270723343
aa(lp89
F0.9826911687850952
aF0.018228430300951004
aa(lp90
F0.9820706844329834
aF0.01895507238805294
aa(lp91
F0.9814426302909851
aF0.0196845643222332
aa(lp92
F0.9805616736412048
aF0.020717978477478027
aa(lp93
F0.9795565605163574
aF0.02181023545563221
aa(lp94
F0.9788075685501099
aF0.0225788876414299
aa(lp95
F1.0779466390609742
aF-0.2765381887555122
aasS'25k_limitCandActs'
p96
(lp97
(lp98
F0.722678005695343
aF0.41539934277534485
aa(lp99
F0.653549313545227
aF0.10622148215770721
aa(lp100
F0.8861986994743347
aF0.20649026334285736
aa(lp101
F0.7847918510437011
aF0.507687720656395
aa(lp102
F0.8834330439567566
aF0.2090309113264084
aa(lp103
F0.8808426856994629
aF0.2117571085691452
aa(lp104
F0.8777338862419128
aF0.2149907797574997
aa(lp105
F0.8750928044319153
aF0.21760821342468262
aa(lp106
F0.8729400038719177
aF0.2199081927537918
aa(lp107
F0.7217127680778503
aF0.5604870915412903
aa(lp108
F0.7167370915412903
aF0.5572312474250793
aa(lp109
F0.712883472442627
aF0.5545735955238342
aa(lp110
F0.7091736197471619
aF0.5523382425308228
aa(lp111
F0.7040657997131348
aF0.5490705966949463
aa(lp112
F0.7001121640205383
aF0.5464040040969849
aa(lp113
F0.6963078379631042
aF0.5441613793373108
aa(lp114
F0.6910730004310608
aF0.5408837795257568
aa(lp115
F0.6863220930099487
aF0.5370070934295654
aa(lp116
F0.683125913143158
aF0.5347035527229309
aa(lp117
F0.7797804832458496
aF0.23207916021347047
aasS'20k_errThresh95/'
p118
(lp119
(lp120
F0.5315248370170593
aF0.8391167521476746
aa(lp121
F0.2725980877876282
aF0.15597768127918243
aa(lp122
F0.2976006269454956
aF0.7508333921432495
aa(lp123
F0.19804229736328127
aF1.048739778995514
aa(lp124
F0.29925402998924255
aF0.7464745044708252
aa(lp125
F0.84964919090271
aF0.1931270807981491
aa(lp126
F0.8455508351325989
aF0.19588603079319
aa(lp127
F0.8423007130622864
aF0.19788792729377747
aa(lp128
F0.8392327427864075
aF0.20008015632629395
aa(lp129
F0.834905743598938
aF0.20291340351104736
aa(lp130
F0.8304858207702637
aF0.2057764232158661
aa(lp131
F0.8269836902618408
aF0.20785318315029144
aa(lp132
F0.8236802220344543
aF0.21012675762176514
aa(lp133
F0.8190250992774963
aF0.21306417882442474
aa(lp134
F0.8153389692306519
aF0.215194433927536
aa(lp135
F0.8118640184402466
aF0.21752600371837616
aa(lp136
F0.8069705367088318
aF0.22053755819797516
aa(lp137
F0.8022645115852356
aF0.22236429154872894
aa(lp138
F0.7988355159759521
aF0.22381524741649628
aa(lp139
F0.8954493761062623
aF-0.07493649721145629
aassS'ball_color'
p140
S'green'
p141
sS'sensorLog'
p142
(lp143
(lp144
F0.32150850029537004
aF0.4444004545134117
aF0.7093758744193561
aF0.4441042024992507
aF0.37618280000000015
aF0.2598407999999999
aF0.67
aa(lp145
F0.30766286252241926
aF0.4375198897508447
aF0.6905966883734138
aF0.44887885079200757
aF0.37618280000000015
aF0.2598407999999999
aF0.67
aa(lp146
F0.2965094286888239
aF0.4326973753952014
aF0.6753426476100788
aF0.4584281473775212
aF0.37618280000000015
aF0.2598407999999999
aF0.67
aa(lp147
F0.2852693874224935
aF0.4287982323607231
aF0.6598268786018551
aF0.46797744396303487
aF0.37618280000000015
aF0.2598407999999999
aF0.67
aa(lp148
F0.27962683328377025
aF0.427199441582718
aF0.6519882646906993
aF0.4727520922557917
aF0.37618280000000015
aF0.2598407999999999
aF0.67
aa(lp149
F0.26549045518809555
aF0.42414767466803094
aF0.6322246535536064
aF0.47752674054854855
aF0.37618280000000015
aF0.2598407999999999
aF0.67
aa(lp150
F0.2485214489675147
aF0.42077003730056256
aF0.6084635179365133
aF0.47752674054854855
aF0.37618280000000015
aF0.2598407999999999
aF0.67
aa(lp151
F0.23155267089337261
aF0.4173923999330942
aF0.5847023823194203
aF0.47752674054854855
aF0.37618280000000015
aF0.2598407999999999
aF0.67
aa(lp152
F0.22306838368161744
aF0.41570358124936
aF0.5728218145108738
aF0.47752674054854855
aF0.37618280000000015
aF0.2598407999999999
aF0.67
aa(lp153
F0.20610005482601604
aF0.41232594388189164
aF0.5490606788937807
aF0.47752674054854855
aF0.37618280000000015
aF0.2598407999999999
aF0.67
aa(lp154
F0.18913212683268546
aF0.40894830651442327
aF0.5252995432766877
aF0.47752674054854855
aF0.37618280000000015
aF0.2598407999999999
aF0.67
aa(lp155
F0.1721647182242456
aF0.4055706691469549
aF0.5015384076595947
aF0.47752674054854855
aF0.37618280000000015
aF0.2598407999999999
aF0.67
aa(lp156
F0.16368125916465612
aF0.4038818504632207
aF0.48965783985104816
aF0.47752674054854855
aF0.37618280000000015
aF0.2598407999999999
aF0.67
aa(lp157
F0.1467149733419265
aF0.40050421309575235
aF0.46589670423395513
aF0.47752674054854855
aF0.37618280000000015
aF0.2598407999999999
aF0.67
aa(lp158
F0.12974980617992365
aF0.39712657572828397
aF0.4421355686168621
aF0.47752674054854855
aF0.37618280000000015
aF0.2598407999999999
aF0.67
aa(lp159
F0.12126778881563946
aF0.3954377570445498
aF0.4302550008083156
aF0.47752674054854855
aF0.37618280000000015
aF0.2598407999999999
aF0.67
aa(lp160
F0.10430534696388337
aF0.39206011967708143
aF0.40649386519122255
aF0.47752674054854855
aF0.37618280000000015
aF0.2598407999999999
aF0.67
aa(lp161
F0.08734606005017242
aF0.38868248230961305
aF0.3827327295741295
aF0.47752674054854855
aF0.37618280000000015
aF0.2598407999999999
aF0.67
aa(lp162
F0.09183825623899973
aF0.3853048449421447
aF0.3589715939570365
aF0.47752674054854855
aF0.37461599118252875
aF0.22953327264903473
aF0.67
aa(lp163
F0.08893473080502037
aF0.3836160262584105
aF0.34709102614848997
aF0.47752674054854855
aF0.3742095130231206
aF0.2216705724928591
aF0.67
aa(lp164
F0.09212081790270406
aF0.38023838889094214
aF0.32332989053139694
aF0.47752674054854855
aF0.3690506146753162
aF0.1935326490741449
aF0.67
aa(lp165
F0.09246638064542498
aF0.3782247129696422
aF0.30745892604892616
aF0.48707603713406217
aF0.36536234884597896
aF0.17732582999660415
aF0.67
aasS'error'
p166
(dp167
g8
F8.005177551727673
sg30
F10.010296291638237
sg52
F8.301899116871885
sg74
F8.20148437661842
sg96
F8.198618109841846
sg118
F6.58947982499757
ssS'motorLog'
p168
(lp169
(lp170
F0.2
aF0.3
aa(lp171
F0.2
aF0.3
aa(lp172
F0.2
aF0.3
aa(lp173
F0.2
aF0.3
aa(lp174
F0.3
aI0
aa(lp175
F0.3
aI0
aa(lp176
F0.3
aI0
aa(lp177
F0.3
aI0
aa(lp178
F0.3
aI0
aa(lp179
F0.3
aI0
aa(lp180
F0.3
aI0
aa(lp181
F0.3
aI0
aa(lp182
F0.3
aI0
aa(lp183
F0.3
aI0
aa(lp184
F0.3
aI0
aa(lp185
F0.3
aI0
aa(lp186
F0.3
aI0
aa(lp187
F0.3
aI0
aa(lp188
F0.3
aI0
aa(lp189
F0.3
aI0
aa(lp190
F0.2
aF0.3
aa(lp191
F0.3
aI0
aasb.