(ihardBrainTrial
HardBrainTrial
p0
(dp1
S'ball_loc'
p2
(F4.687989
F4.286476
tp3
sS'robot_loc'
p4
(F4.665985087645839
F5.691940478853456
tp5
sS'hammerMotors'
p6
(dp7
S'25k_limitCandActs_errThresh95/'
p8
(lp9
(lp10
F0.33618059754371643
aF0.7760167717933655
aa(lp11
F0.2342249691486359
aF1.074666726589203
aa(lp12
F0.33271318674087524
aF0.7736708521842957
aa(lp13
F0.7845131754875183
aF0.1590464562177658
aa(lp14
F0.8810885548591614
aF0.6429249048233032
aa(lp15
F0.877811849117279
aF0.639811635017395
aa(lp16
F0.875072717666626
aF0.6374425888061523
aa(lp17
F0.8354140520095825
aF0.8950536251068115
aa(lp18
F0.8318980932235718
aF0.8925471901893616
aa(lp19
F0.8283225297927856
aF0.8899883031845093
aa(lp20
F0.8253634572029114
aF0.8879966735839844
aa(lp21
F0.822846531867981
aF0.8860498666763306
aa(lp22
F0.8138523101806641
aF0.3343912959098816
aa(lp23
F0.8083018660545349
aF0.3366532027721405
aa(lp24
F0.8036758899688721
aF0.3381507694721222
aa(lp25
F0.7997410297393799
aF0.34006011486053467
aa(lp26
F0.7938764095306396
aF0.3423406481742859
aa(lp27
F0.7878856658935547
aF0.3446284532546997
aa(lp28
F0.7828993797302246
aF0.34614297747612
aa(lp29
F0.7786628603935242
aF0.34807369112968445
aa(lp30
F0.7723568677902222
aF0.3503793776035309
aasS'25k'
p31
(lp32
(lp33
F0.5589542388916016
aF0.2690243422985077
aa(lp34
F0.4544366240501404
aF0.5665867805480957
aa(lp35
F0.5506927371025085
aF0.26495078206062317
aa(lp36
F0.5465968251228333
aF0.2638917863368988
aa(lp37
F0.5407459139823914
aF0.2626858651638031
aa(lp38
F0.56072598695755
aF0.3235500752925873
aa(lp39
F0.5574792623519897
aF0.32308438420295715
aa(lp40
F0.554312527179718
aF0.3225254714488983
aa(lp41
F0.5500266551971436
aF0.32184335589408875
aa(lp42
F0.7846875786781311
aF0.8706228733062744
aa(lp43
F0.7804303765296936
aF0.8687163591384888
aa(lp44
F0.7761588096618652
aF0.8669438362121582
aa(lp45
F0.7703408598899841
aF0.8644422292709351
aa(lp46
F0.7644175887107849
aF0.8619011044502258
aa(lp47
F0.578103244304657
aF0.804162859916687
aa(lp48
F0.5733821392059326
aF0.8021514415740967
aa(lp49
F0.5670872330665588
aF0.7995887994766235
aa(lp50
F0.5607706308364868
aF0.7970013618469238
aa(lp51
F0.5560356378555298
aF0.7951538562774658
aa(lp52
F0.551259458065033
aF0.7930737137794495
aa(lp53
F0.5448974967002869
aF0.7904242873191833
aasS'50k'
p54
(lp55
(lp56
F0.14528246223926544
aF0.35244235396385193
aa(lp57
F0.04495816826820376
aF0.653924185037613
aa(lp58
F0.14469946920871735
aF0.3549600839614868
aa(lp59
F0.14489568769931793
aF0.356359601020813
aa(lp60
F0.8278278112411499
aF0.8009362816810608
aa(lp61
F0.8238036632537842
aF0.7997305393218994
aa(lp62
F0.8200384974479675
aF0.7987105846405029
aa(lp63
F0.817629337310791
aF0.7979115843772888
aa(lp64
F0.8134205341339111
aF0.7966921329498291
aa(lp65
F0.621210515499115
aF0.4569706618785858
aa(lp66
F0.6163263916969299
aF0.4587465226650238
aa(lp67
F0.6122651100158691
aF0.460061639547348
aa(lp68
F0.606258749961853
aF0.4621240198612213
aa(lp69
F0.6002200841903687
aF0.4641876816749573
aa(lp70
F0.5952416658401489
aF0.4659675359725952
aa(lp71
F0.5911053419113159
aF0.4672854542732239
aa(lp72
F0.5849934220314026
aF0.46935203671455383
aa(lp73
F0.5788552761077881
aF0.47141966223716736
aa(lp74
F0.5737997889518738
aF0.47320273518562317
aa(lp75
F0.5696028470993042
aF0.4745228886604309
aa(lp76
F0.5634071230888367
aF0.4765927791595459
aasS'7k_1001/'
p77
(lp78
(lp79
F0.028424186632037163
aF0.07636594772338867
aa(lp80
F-0.07097605094313619
aF0.3776058733463287
aa(lp81
F0.02949831821024418
aF0.07864201813936234
aa(lp82
F0.01533708069473505
aF0.4874419569969177
aa(lp83
F0.016126016154885292
aF0.48797547817230225
aa(lp84
F0.4941355288028717
aF0.01888604648411274
aa(lp85
F0.4946168065071106
aF0.01951092854142189
aa(lp86
F0.4947207570075989
aF0.020206212997436523
aa(lp87
F0.4951108992099762
aF0.021136105060577393
aa(lp88
F0.9773146510124207
aF0.01915549486875534
aa(lp89
F0.9764818549156189
aF0.01985473372042179
aa(lp90
F0.9809490442276001
aF0.01930784247815609
aa(lp91
F0.980128824710846
aF0.020251179113984108
aa(lp92
F0.9792740345001221
aF0.02123960293829441
aa(lp93
F0.9785979986190796
aF0.022026892751455307
aa(lp94
F0.9779239296913147
aF0.022811297327280045
aa(lp95
F0.9769765138626099
aF0.02392161265015602
aa(lp96
F0.9759894609451294
aF0.02508457750082016
aa(lp97
F0.9752089977264404
aF0.026010576635599136
aa(lp98
F0.974431037902832
aF0.026932910084724426
aa(lp99
F0.9733378291130066
aF0.02823798358440399
aasS'25k_limitCandActs'
p100
(lp101
(lp102
F0.1717546433210373
aF0.5532459616661072
aa(lp103
F0.07227466404438021
aF0.8502598285675049
aa(lp104
F0.1725613921880722
aF0.5480036735534668
aa(lp105
F0.7016671895980835
aF0.4281180202960968
aa(lp106
F0.7032009959220886
aF0.42770490050315857
aa(lp107
F0.8759114742279053
aF0.2161853015422821
aa(lp108
F0.8733866214752197
aF0.21872679889202118
aa(lp109
F0.8713609576225281
aF0.22093144059181213
aa(lp110
F0.8991703987121582
aF0.13566464185714722
aa(lp111
F0.8959169983863831
aF0.13752257823944092
aa(lp112
F0.8932801485061646
aF0.1388271600008011
aa(lp113
F0.8908631205558777
aF0.14034955203533173
aa(lp114
F0.8873752951622009
aF0.1422611027956009
aa(lp115
F0.7156254053115845
aF0.5630339980125427
aa(lp116
F0.7118129730224609
aF0.5605677962303162
aa(lp117
F0.7081441283226013
aF0.5585113763809204
aa(lp118
F0.7030929327011108
aF0.5554908514022827
aa(lp119
F0.6979916095733643
aF0.5524662137031555
aa(lp120
F0.6940439343452454
aF0.5499880909919739
aa(lp121
F0.6902474761009216
aF0.5479220747947693
aa(lp122
F0.6850244998931885
aF0.5448881983757019
aasS'20k_errThresh95/'
p123
(lp124
(lp125
F0.7796840667724609
aF0.8236210346221924
aa(lp126
F0.6759236097335816
aF1.1212526440620423
aa(lp127
F0.2824288308620453
aF0.16932028532028198
aa(lp128
F0.2823280394077301
aF0.1709742695093155
aa(lp129
F0.2817334532737732
aF0.17316991090774536
aa(lp130
F0.30033716559410095
aF0.7527291178703308
aa(lp131
F0.3014652729034424
aF0.7493941187858582
aa(lp132
F0.3031677305698395
aF0.7463371157646179
aa(lp133
F0.3050631284713745
aF0.7420156598091125
aa(lp134
F0.8257635831832886
aF0.21916033327579498
aa(lp135
F0.8222443461418152
aF0.22134357690811157
aa(lp136
F0.8189404606819153
aF0.2236952930688858
aa(lp137
F0.814277172088623
aF0.22675548493862152
aa(lp138
F0.8095217943191528
aF0.22984513640403748
aa(lp139
F0.8057517409324646
aF0.2321031540632248
aa(lp140
F0.802215039730072
aF0.23453469574451447
aa(lp141
F0.7972277402877808
aF0.23769770562648773
aa(lp142
F0.7921473383903503
aF0.24088990688323975
aa(lp143
F0.7881234884262085
aF0.24322207272052765
aa(lp144
F0.7843519449234009
aF0.24573269486427307
aa(lp145
F0.7790385484695435
aF0.24899736046791077
aassS'ball_color'
p146
S'red'
p147
sS'sensorLog'
p148
(lp149
(lp150
F0.39757410111970787
aF0.4163940350583356
aF0.7767761915413824
aF0.4898356246923329
aF0.4251956
aF0.21459040000000015
aF0.33
aa(lp151
F0.3834783000807132
aF0.4151176100907442
aF0.7568169646199283
aF0.4946102729850897
aF0.4251956
aF0.21459040000000015
aF0.33
aa(lp152
F0.3721740367793899
aF0.41481582748927864
aF0.7408216111827166
aF0.5041595695706034
aF0.4251956
aF0.21459040000000015
aF0.33
aa(lp153
F0.3636889339698803
aF0.41512941594359276
aF0.7288257092874307
aF0.5041595695706034
aF0.4251956
aF0.21459040000000015
aF0.33
aa(lp154
F0.34671875457078827
aF0.415756592852221
aF0.704833905496859
aF0.5041595695706034
aF0.4251956
aF0.21459040000000015
aF0.33
aa(lp155
F0.3297486146295383
aF0.4163837697608493
aF0.6808421017062873
aF0.5041595695706034
aF0.4251956
aF0.21459040000000015
aF0.33
aa(lp156
F0.31277852056861527
aF0.4170109466694775
aF0.6568502979157156
aF0.5041595695706034
aF0.4251956
aF0.21459040000000015
aF0.33
aa(lp157
F0.30429349314205134
aF0.41732453512379164
aF0.6448543960204297
aF0.5041595695706034
aF0.4251956
aF0.21459040000000015
aF0.33
aa(lp158
F0.2873234832859987
aF0.41795171203241993
aF0.6208625922298581
aF0.5041595695706034
aF0.4251956
aF0.21459040000000015
aF0.33
aa(lp159
F0.27035354284088486
aF0.41857888894104817
aF0.5968707884392863
aF0.5041595695706034
aF0.4251956
aF0.21459040000000015
aF0.33
aa(lp160
F0.2533836857527482
aF0.41920606584967646
aF0.5728789846487146
aF0.5041595695706034
aF0.4251956
aF0.21459040000000015
aF0.33
aa(lp161
F0.24489879388262836
aF0.4195196543039906
aF0.5608830827534288
aF0.5041595695706034
aF0.4251956
aF0.21459040000000015
aF0.33
aa(lp162
F0.2279290971425355
aF0.4201468312126188
aF0.536891278962857
aF0.5041595695706034
aF0.4251956
aF0.21459040000000015
aF0.33
aa(lp163
F0.21095953973041215
aF0.4207740081212471
aF0.5128994751722853
aF0.5041595695706034
aF0.4251956
aF0.21459040000000015
aF0.33
aa(lp164
F0.19399015820998236
aF0.42140118502987534
aF0.48890767138171365
aF0.5041595695706034
aF0.4251956
aF0.21459040000000015
aF0.33
aa(lp165
F0.185505548493492
aF0.42171477348418945
aF0.4769117694864278
aF0.5041595695706034
aF0.4251956
aF0.21459040000000015
aF0.33
aa(lp166
F0.16853653194768772
aF0.42234195039281774
aF0.4529199656958561
aF0.5041595695706034
aF0.4251956
aF0.21459040000000015
aF0.33
aa(lp167
F0.15156786163315522
aF0.422969127301446
aF0.4289281619052844
aF0.5041595695706034
aF0.4251956
aF0.21459040000000015
aF0.33
aa(lp168
F0.13459966849569613
aF0.4235963042100742
aF0.4049363581147126
aF0.5041595695706034
aF0.4251956
aF0.21459040000000015
aF0.33
aa(lp169
F0.12611581105756445
aF0.4239098926643884
aF0.3929404562194268
aF0.5041595695706034
aF0.4251956
aF0.21459040000000015
aF0.33
aa(lp170
F0.1091487603128286
aF0.4245370695730166
aF0.3689486524288551
aF0.5041595695706034
aF0.4251956
aF0.21459040000000015
aF0.33
aa(lp171
F0.09218300253820114
aF0.42516424648164486
aF0.34495684863828335
aF0.5041595695706034
aF0.4251956
aF0.21459040000000015
aF0.33
aa(lp172
F0.08370085421623451
aF0.42547783493595903
aF0.33296094674299753
aF0.5041595695706034
aF0.4251956
aF0.21459040000000015
aF0.33
aasS'error'
p173
(dp174
g8
F12.546997252370282
sg31
F11.148712511470073
sg54
F8.648350183393074
sg77
F6.538682807398923
sg100
F8.119931545119233
sg123
F7.534458875489286
ssS'motorLog'
p175
(lp176
(lp177
F0.2
aF0.3
aa(lp178
F0.2
aF0.3
aa(lp179
F0.3
aI0
aa(lp180
F0.3
aI0
aa(lp181
F0.3
aI0
aa(lp182
F0.3
aI0
aa(lp183
F0.3
aI0
aa(lp184
F0.3
aI0
aa(lp185
F0.3
aI0
aa(lp186
F0.3
aI0
aa(lp187
F0.3
aI0
aa(lp188
F0.3
aI0
aa(lp189
F0.3
aI0
aa(lp190
F0.3
aI0
aa(lp191
F0.3
aI0
aa(lp192
F0.3
aI0
aa(lp193
F0.3
aI0
aa(lp194
F0.3
aI0
aa(lp195
F0.3
aI0
aa(lp196
F0.3
aI0
aa(lp197
F0.3
aI0
aa(lp198
F0.3
aI0
aa(lp199
F0.3
aI0
aasb.