(ihardBrainTrial
HardBrainTrial
p0
(dp1
S'ball_loc'
p2
(F4.882555
F4.0136263532030005
tp3
sS'robot_loc'
p4
(F4.817016078811275
F5.2284444641812495
tp5
sS'hammerMotors'
p6
(dp7
S'25k_limitCandActs_errThresh95/'
p8
(lp9
(lp10
F0.09427452087402344
aF0.8567493557929993
aa(lp11
F0.09523970633745193
aF0.8555105328559875
aa(lp12
F0.09592853486537933
aF0.8544567823410034
aa(lp13
F0.8105616569519043
aF0.5339300036430359
aa(lp14
F0.8081855773925781
aF0.5348321795463562
aa(lp15
F0.8062079548835754
aF0.5355929136276245
aa(lp16
F0.8043984174728394
aF0.5361019372940063
aa(lp17
F0.8017295002937317
aF0.5368901491165161
aa(lp18
F0.7989494800567627
aF0.537630021572113
aa(lp19
F0.7966428995132446
aF0.5382938981056213
aa(lp20
F0.3382411599159241
aF0.7108092308044434
aa(lp21
F0.3357376754283905
aF0.7088167071342468
aa(lp22
F0.33328044414520264
aF0.7067804932594299
aa(lp23
F0.3312896192073822
aF0.7054210901260376
aa(lp24
F0.32970118522644043
aF0.7036537528038025
aa(lp25
F0.6744799256324768
aF0.053972703218460094
aa(lp26
F0.770302951335907
aF0.35567110776901245
aa(lp27
F0.7657463550567627
aF0.35732391476631165
aa(lp28
F0.8399367332458496
aF0.26284974813461304
aa(lp29
F0.8364874720573425
aF0.26664257049560547
aa(lp30
F0.8336678147315979
aF0.269919753074646
aa(lp31
F0.8312023878097534
aF0.2723959982395172
aa(lp32
F0.8276045918464661
aF0.2762737572193146
aa(lp33
F0.9246650695800782
aF0.5796225845813752
aa(lp34
F0.8220212459564209
aF0.2825856804847718
aa(lp35
F0.7186562061309814
aF-0.013837444782257069
aa(lp36
F0.8157452940940857
aF0.28999948501586914
aasS'25k'
p37
(lp38
(lp39
F0.1465008556842804
aF0.8255652189254761
aa(lp40
F0.1467408537864685
aF0.8242533802986145
aa(lp41
F0.1469660997390747
aF0.8231513500213623
aa(lp42
F0.14719076454639435
aF0.8221387267112732
aa(lp43
F0.14755114912986755
aF0.820632815361023
aa(lp44
F0.14786396920681
aF0.8193773031234741
aa(lp45
F0.3589719533920288
aF0.5494877696037292
aa(lp46
F0.3590920865535736
aF0.5497046113014221
aa(lp47
F0.3592005968093872
aF0.5498812198638916
aa(lp48
F0.8661576509475708
aF0.8002637624740601
aa(lp49
F0.8648310899734497
aF0.7987779974937439
aa(lp50
F0.8629751205444336
aF0.7969497442245483
aa(lp51
F0.568527102470398
aF0.4301553070545197
aa(lp52
F0.5653396844863892
aF0.42918759584426885
aa(lp53
F0.781359851360321
aF0.16507339477539062
aa(lp54
F0.6789834141731262
aF-0.1338675796985626
aa(lp55
F0.776928722858429
aF0.1669841706752777
aa(lp56
F0.773962676525116
aF0.16797539591789246
aa(lp57
F0.770246684551239
aF0.1692301332950592
aa(lp58
F0.7664883136749268
aF0.1704922467470169
aa(lp59
F0.5065127015113831
aF0.8237684965133667
aa(lp60
F0.5019968748092651
aF0.8217823505401611
aa(lp61
F0.49601060152053833
aF0.8192192912101746
aa(lp62
F0.5915481805801391
aF1.1173629641532898
aa(lp63
F0.48776525259017944
aF0.8155959844589233
aa(lp64
F0.38393917083740237
aF0.513363492488861
aa(lp65
F0.4815748333930969
aF0.8117014765739441
aasS'50k'
p66
(lp67
(lp68
F0.10189498215913773
aF0.14464792609214783
aa(lp69
F0.1024843156337738
aF0.1465296745300293
aa(lp70
F0.10282354801893234
aF0.14806215465068817
aa(lp71
F0.20193853974342346
aF0.7885295152664185
aa(lp72
F0.20122767984867096
aF0.7887822985649109
aa(lp73
F0.2000526487827301
aF0.788798451423645
aa(lp74
F0.20007169246673584
aF0.7888121008872986
aa(lp75
F0.8236379623413086
aF0.8118531107902527
aa(lp76
F0.8205811977386475
aF0.8104493021965027
aa(lp77
F0.8178658485412598
aF0.8092745542526245
aa(lp78
F0.8156386613845825
aF0.8081167340278625
aa(lp79
F0.8121107816696167
aF0.8064125776290894
aa(lp80
F0.8084020614624023
aF0.8045912981033325
aa(lp81
F0.8051771521568298
aF0.8031013011932373
aa(lp82
F0.8025131225585938
aF0.8016449809074402
aa(lp83
F0.6654180526733399
aF0.11964638233184816
aa(lp84
F0.7620604038238525
aF0.4190375804901123
aa(lp85
F0.7587980031967163
aF0.41717076301574707
aa(lp86
F0.7536579966545105
aF0.4150190055370331
aa(lp87
F0.7484453916549683
aF0.4128706455230713
aa(lp88
F0.7439166903495789
aF0.4115111827850342
aa(lp89
F0.7404919266700745
aF0.40965479612350464
aa(lp90
F0.7351015210151672
aF0.40751564502716064
aa(lp91
F0.8304227352142335
aF0.7061623513698578
aa(lp92
F0.7272453904151917
aF0.40516513586044317
aa(lp93
F0.6233943939208985
aF0.10518712997436525
aa(lp94
F0.7204746603965759
aF0.40634170174598694
aasS'7k_1001/'
p95
(lp96
(lp97
F0.5172634124755859
aF0.4994334280490876
aa(lp98
F0.5170456171035767
aF0.49964103102684027
aa(lp99
F0.5169296860694885
aF0.49981695413589483
aa(lp100
F0.5167673230171204
aF0.49993944168090826
aa(lp101
F0.5166141986846924
aF0.5001279711723328
aa(lp102
F0.516543984413147
aF0.5002780556678772
aa(lp103
F0.5164329409599304
aF0.5003920197486877
aa(lp104
F0.5163441300392151
aF0.5005539655685425
aa(lp105
F0.9910879731178284
aF0.9911449551582336
aa(lp106
F0.9908311367034912
aF0.9909085631370544
aa(lp107
F0.9905684590339661
aF0.9906612038612366
aa(lp108
F0.9901876449584961
aF0.9903072118759155
aa(lp109
F0.9897777438163757
aF0.9899267554283142
aa(lp110
F0.9894447326660156
aF0.9896208047866821
aa(lp111
F0.9891054034233093
aF0.9893040060997009
aa(lp112
F0.8886169433593749
aF0.6888526797294616
aa(lp113
F0.9882032871246338
aF0.9884873032569885
aa(lp114
F0.9877468943595886
aF0.9880849123001099
aa(lp115
F0.9871003031730652
aF0.9875051379203796
aa(lp116
F0.9864201545715332
aF0.9868975281715393
aa(lp117
F0.9858779907226562
aF0.9864052534103394
aa(lp118
F0.9853332042694092
aF0.9859312772750854
aa(lp119
F0.9845616817474365
aF0.9852485656738281
aa(lp120
F1.0839469194412232
aF1.2846954345703125
aa(lp121
F0.9833264946937561
aF0.9841533303260803
aa(lp122
F0.8825016260147094
aF0.6833784699440002
aa(lp123
F0.9817953109741211
aF0.9827693700790405
aasS'25k_limitCandActs'
p124
(lp125
(lp126
F0.46047982573509216
aF0.24312078952789312
aa(lp127
F0.4571239650249481
aF0.24437656998634344
aa(lp128
F0.454298734664917
aF0.245383769273758
aa(lp129
F0.8867574334144592
aF0.855405330657959
aa(lp130
F0.8850420713424683
aF0.8541237711906433
aa(lp131
F0.8836596608161926
aF0.853192925453186
aa(lp132
F0.882286787033081
aF0.8520505428314209
aa(lp133
F0.8803296685218811
aF0.8505691885948181
aa(lp134
F0.7895341515541077
aF0.5269888639450073
aa(lp135
F0.7878068089485168
aF0.5271206498146057
aa(lp136
F0.7861121296882629
aF0.527134358882904
aa(lp137
F0.7837912440299988
aF0.5272408723831177
aa(lp138
F0.7814439535140991
aF0.5273540019989014
aa(lp139
F0.7796405553817749
aF0.5274850726127625
aa(lp140
F0.8395098447799683
aF0.46631246805191046
aa(lp141
F0.7357095718383788
aF0.16489787101745607
aa(lp142
F0.8322480320930481
aF0.4640231132507324
aa(lp143
F0.8284562826156616
aF0.4624103903770447
aa(lp144
F0.8229296803474426
aF0.46073198318481445
aa(lp145
F0.8172646760940552
aF0.4590545892715454
aa(lp146
F0.812637984752655
aF0.4581497311592102
aa(lp147
F0.7331461310386658
aF0.6763937473297119
aa(lp148
F0.7288902997970581
aF0.6742957234382629
aa(lp149
F0.8254475355148316
aF0.9725706458091736
aa(lp150
F0.7225958704948425
aF0.670706033706665
aa(lp151
F0.6189013957977295
aF0.3682993173599243
aa(lp152
F0.7159481048583984
aF0.6658337116241455
aasS'20k_errThresh95/'
p153
(lp154
(lp155
F0.32893815636634827
aF0.1949857622385025
aa(lp156
F0.32700836658477783
aF0.19708691537380219
aa(lp157
F0.3256048560142517
aF0.19880792498588562
aa(lp158
F0.32403990626335144
aF0.20045039057731634
aa(lp159
F0.32202252745628357
aF0.20282849669456487
aa(lp160
F0.3205392360687256
aF0.20475253462791448
aa(lp161
F0.3893260955810547
aF0.29446458816528326
aa(lp162
F0.8173921704292297
aF0.20777417719364172
aa(lp163
F0.20967133343219757
aF0.47575643658638006
aa(lp164
F0.20866437256336212
aF0.4757691323757172
aa(lp165
F0.20830659568309784
aF0.4757660627365113
aa(lp166
F0.2074562907218933
aF0.4756904840469361
aa(lp167
F0.8739364743232727
aF0.8562119007110596
aa(lp168
F0.8715401887893677
aF0.8548152446746826
aa(lp169
F0.6694637537002563
aF0.40185931324958807
aa(lp170
F0.565547788143158
aF0.09993456006050111
aa(lp171
F0.6620259881019592
aF0.3981551229953766
aa(lp172
F0.6024792790412903
aF0.8192135095596313
aa(lp173
F0.5968326926231384
aF0.8160697817802429
aa(lp174
F0.5911610126495361
aF0.8128841519355774
aa(lp175
F0.5863880515098572
aF0.8107370138168335
aa(lp176
F0.5826098322868347
aF0.8080272674560547
aa(lp177
F0.7926953434944153
aF0.21977534890174866
aa(lp178
F0.8886242866516114
aF0.5219547629356385
aa(lp179
F0.7851807475090027
aF0.22379074990749365
aa(lp180
F0.6809800505638123
aF-0.07360124886035918
aa(lp181
F0.7778354287147522
aF0.2276720553636551
aassS'ball_color'
p182
S'green'
p183
sS'sensorLog'
p184
(lp185
(lp186
F0.34410212355970754
aF0.47680643152450986
aF0.5913777856724998
aF0.6165675227775472
aF0.503022
aF0.10545054128120021
aF0.67
aa(lp187
F0.3352622454857677
aF0.4873242771842783
aF0.5793230220084059
aF0.6070182261920336
aF0.503022
aF0.10545054128120021
aF0.67
aa(lp188
F0.32615069110101264
aF0.4971003444743527
aF0.5666592582448239
aF0.59746892960652
aF0.503022
aF0.10545054128120021
aF0.67
aa(lp189
F0.32149638355240645
aF0.501699108642742
aF0.5601131626051667
aF0.5926942813137631
aF0.503022
aF0.10545054128120021
aF0.67
aa(lp190
F0.31199774200567154
aF0.5102974088639435
aF0.5466219937297151
aF0.5831449847282495
aF0.503022
aF0.10545054128120021
aF0.67
aa(lp191
F0.3022556018319552
aF0.5180712522494091
aF0.5326395131437061
aF0.5735956881427358
aF0.503022
aF0.10545054128120021
aF0.67
aa(lp192
F0.2972970929409562
aF0.521640140945977
aF0.5254796923727991
aF0.568821039849979
aF0.503022
aF0.10545054128120021
aF0.67
aa(lp193
F0.2872133854132253
aF0.5281257964424786
aF0.5108551008536981
aF0.5592717432644653
aF0.503022
aF0.10545054128120021
aF0.67
aa(lp194
F0.27691900490866594
aF0.5337228321603096
aF0.4958679198147841
aF0.5497224466789516
aF0.503022
aF0.10545054128120021
aF0.67
aa(lp195
F0.2664287547801137
aF0.5384111048149591
aF0.48057208692358344
aF0.540173150093438
aF0.503022
aF0.10545054128120021
aF0.67
aa(lp196
F0.2611151265650949
aF0.5404090527705929
aF0.472825590685504
aF0.5353985018006812
aF0.503022
aF0.10545054128120021
aF0.67
aa(lp197
F0.25036151076930596
aF0.5437035834650604
aF0.45717028896937356
aF0.5258492052151675
aF0.503022
aF0.10545054128120021
aF0.67
aa(lp198
F0.23945479527191063
aF0.5460534311695671
aF0.4413456050835734
aF0.5162999086296539
aF0.503022
aF0.10545054128120021
aF0.67
aa(lp199
F0.22841513631487645
aF0.5474501389699078
aF0.42540849080148535
aF0.5067506120441402
aF0.503022
aF0.10545054128120021
aF0.67
aa(lp200
F0.22285238166099208
aF0.5477893600065794
aF0.41741568596912015
aF0.5019759637513834
aF0.503022
aF0.10545054128120021
aF0.67
aa(lp201
F0.2116564196447514
aF0.5477480102474711
aF0.4014175393728017
aF0.4924266671658697
aF0.503022
aF0.10545054128120021
aF0.67
aa(lp202
F0.20038959450870034
aF0.546747421929442
aF0.3854506602996171
aF0.48287737058035607
aF0.503022
aF0.10545054128120021
aF0.67
aa(lp203
F0.19191423378494624
aF0.5454588951135125
aF0.37352004008754813
aF0.48287737058035607
aF0.503022
aF0.10545054128120021
aF0.67
aa(lp204
F0.1749663973826812
aF0.5428818414816536
aF0.3496587996634101
aF0.48287737058035607
aF0.503022
aF0.10545054128120021
aF0.67
aa(lp205
F0.15802343907438635
aF0.5403047878497947
aF0.32579755923927217
aF0.48287737058035607
aF0.503022
aF0.10545054128120021
aF0.67
aa(lp206
F0.14108711628185236
aF0.5377277342179358
aF0.30193631881513416
aF0.48287737058035607
aF0.503022
aF0.10545054128120021
aF0.67
aa(lp207
F0.13262223766265313
aF0.5364392074020063
aF0.2900056986030652
aF0.48287737058035607
aF0.503022
aF0.10545054128120021
aF0.67
aa(lp208
F0.11570144772861694
aF0.5338621537701475
aF0.26614445817892723
aF0.48287737058035607
aF0.503022
aF0.10545054128120021
aF0.67
aa(lp209
F0.09879773322479202
aF0.5312851001382886
aF0.24228321775478925
aF0.48287737058035607
aF0.503022
aF0.10545054128120021
aF0.67
aa(lp210
F0.09035527451284077
aF0.529996573322359
aF0.23035259754272025
aF0.48287737058035607
aF0.503022
aF0.10545054128120021
aF0.67
aa(lp211
F0.08648734356703577
aF0.5278490286291433
aF0.21046823052260527
aF0.4781027222875992
aF0.4995449329782552
aF0.09147663685450916
aF0.67
aa(lp212
F0.08305280330426341
aF0.5254174100328648
aF0.1946559050983641
aF0.4685534257020856
aF0.49686932990502264
aF0.08072371739817044
aF0.67
aa(lp213
F0.09600184475568961
aF0.5230617913932875
aF0.18288938221244422
aF0.4685534257020856
aF0.49127479435185994
aF0.05089583990170095
aF0.67
aa(lp214
F0.09986627712316838
aF0.5225906676653722
aF0.1805360776352604
aF0.4685534257020856
aF0.48982340060870866
aF0.0431575755974567
aF0.67
aasS'error'
p215
(dp216
g8
F21.63075829869949
sg37
F24.110519426927116
sg66
F23.41933641145695
sg95
F40.9068937864278
sg124
F25.11645098614308
sg153
F15.723566687063876
ssS'motorLog'
p217
(lp218
(lp219
F0.2
aF-0.3
aa(lp220
F0.2
aF-0.3
aa(lp221
F0.2
aF-0.3
aa(lp222
F0.2
aF-0.3
aa(lp223
F0.2
aF-0.3
aa(lp224
F0.2
aF-0.3
aa(lp225
F0.2
aF-0.3
aa(lp226
F0.2
aF-0.3
aa(lp227
F0.2
aF-0.3
aa(lp228
F0.2
aF-0.3
aa(lp229
F0.2
aF-0.3
aa(lp230
F0.2
aF-0.3
aa(lp231
F0.2
aF-0.3
aa(lp232
F0.2
aF-0.3
aa(lp233
F0.2
aF-0.3
aa(lp234
F0.2
aF-0.3
aa(lp235
F0.3
aI0
aa(lp236
F0.3
aI0
aa(lp237
F0.3
aI0
aa(lp238
F0.3
aI0
aa(lp239
F0.3
aI0
aa(lp240
F0.3
aI0
aa(lp241
F0.3
aI0
aa(lp242
F0.3
aI0
aa(lp243
F0.2
aF-0.3
aa(lp244
F0.2
aF-0.3
aa(lp245
F0.3
aI0
aa(lp246
F0.3
aI0
aa(lp247
F0.3
aI0
aasb.