(ihardBrainTrial
HardBrainTrial
p0
(dp1
S'ball_loc'
p2
(F4.71438
F4.1922507
tp3
sS'robot_loc'
p4
(F4.322918295675279
F5.638452693906019
tp5
sS'hammerMotors'
p6
(dp7
S'25k_limitCandActs_errThresh95/'
p8
(lp9
(lp10
F0.32391229271888733
aF0.7836022973060608
aa(lp11
F0.3215036988258362
aF0.7851025462150574
aa(lp12
F0.6345529556274414
aF0.8344910740852356
aa(lp13
F0.5499759912490845
aF0.23444724082946783
aa(lp14
F0.547738790512085
aF0.23550972342491155
aa(lp15
F0.54463130235672
aF0.23694773018360143
aa(lp16
F0.441510283946991
aF-0.0615145444869995
aa(lp17
F0.5388574004173279
aF0.239717498421669
aa(lp18
F0.8336554169654846
aF0.8917291760444641
aa(lp19
F0.8306587934494019
aF0.8898487687110901
aa(lp20
F0.827619731426239
aF0.8879401683807373
aa(lp21
F0.8250592947006226
aF0.8864371180534363
aa(lp22
F0.8229814767837524
aF0.885023832321167
aa(lp23
F0.8198361396789551
aF0.8830437660217285
aa(lp24
F0.809996485710144
aF0.32585635781288147
aa(lp25
F0.8059005737304688
aF0.3277442753314972
aa(lp26
F0.9024446368217469
aF0.6301147222518921
aa(lp27
F0.6976693511009217
aF0.03280271291732789
aa(lp28
F0.7942376732826233
aF0.33492156863212585
aa(lp29
F0.7905032634735107
aF0.3372207283973694
aa(lp30
F0.7849353551864624
aF0.3399845361709595
aa(lp31
F0.7792618870735168
aF0.3427589535713196
aa(lp32
F0.7745407223701477
aF0.3446100056171417
aa(lp33
F0.8705554366111756
aF0.6469397425651551
aasS'25k'
p34
(lp35
(lp36
F0.8154038190841675
aF0.7112221121788025
aa(lp37
F0.5652344822883606
aF0.25287446379661566
aa(lp38
F0.5613266229629517
aF0.2533374130725861
aa(lp39
F0.5580825209617615
aF0.25394022464752203
aa(lp40
F0.5550177097320557
aF0.2546134293079377
aa(lp41
F0.5508107542991638
aF0.2555920779705048
aa(lp42
F0.44666519165039065
aF-0.04338799715042113
aa(lp43
F0.8468139171600342
aF0.2602871060371399
aa(lp44
F0.843868613243103
aF0.26175472140312195
aa(lp45
F0.8396036028862
aF0.2638216018676758
aa(lp46
F0.8352451920509338
aF0.2658984065055847
aa(lp47
F0.7787163257598877
aF0.8703823089599609
aa(lp48
F0.77495276927948
aF0.8688235878944397
aa(lp49
F0.7698183655738831
aF0.8666130900382996
aa(lp50
F0.7646034955978394
aF0.8643715381622314
aa(lp51
F0.7606035470962524
aF0.8625871539115906
aa(lp52
F0.8566319108009339
aF1.160950767993927
aa(lp53
F0.6522117495536804
aF0.5587531447410583
aa(lp54
F0.748967707157135
aF0.8571534752845764
aa(lp55
F0.744715690612793
aF0.8554064631462097
aa(lp56
F0.5621671080589294
aF0.7959154844284058
aa(lp57
F0.5553387999534607
aF0.7937183380126953
aa(lp58
F0.5502060055732727
aF0.7921946048736572
aa(lp59
F0.6450643897056579
aF1.090391504764557
aasS'50k'
p60
(lp61
(lp62
F0.31555724143981934
aF0.5176313519477844
aa(lp63
F0.849994421005249
aF0.6805230379104614
aa(lp64
F0.8458854556083679
aF0.6802390217781067
aa(lp65
F0.8426299095153809
aF0.6799911856651306
aa(lp66
F0.8400144577026367
aF0.6795375943183899
aa(lp67
F0.8360700011253357
aF0.6788613200187683
aa(lp68
F0.7320130705833434
aF0.3779979467391968
aa(lp69
F0.828372597694397
aF0.6771026849746704
aa(lp70
F0.824508786201477
aF0.6754433512687683
aa(lp71
F0.7708441019058228
aF0.1372235268354416
aa(lp72
F0.7657272219657898
aF0.14034077525138855
aa(lp73
F0.7612321972846985
aF0.14266468584537506
aa(lp74
F0.6210115551948547
aF0.45234137773513794
aa(lp75
F0.6148202419281006
aF0.4548773467540741
aa(lp76
F0.6085925698280334
aF0.4574153423309326
aa(lp77
F0.603421688079834
aF0.45960044860839844
aa(lp78
F0.6991873145103454
aF0.7612256586551667
aa(lp79
F0.4933811664581299
aF0.1635271430015564
aa(lp80
F0.5892181396484375
aF0.4654320180416107
aa(lp81
F0.5849414467811584
aF0.4669993817806244
aa(lp82
F0.5785837173461914
aF0.4694523513317108
aa(lp83
F0.5722012519836426
aF0.4719063341617584
aa(lp84
F0.5669192671775818
aF0.47401946783065796
aa(lp85
F0.6625872015953064
aF0.7755884408950806
aasS'7k_1001/'
p86
(lp87
(lp88
F0.011887136846780777
aF0.5016373991966248
aa(lp89
F0.012254300527274609
aF0.5010673999786377
aa(lp90
F0.01274420041590929
aF0.5003978610038757
aa(lp91
F0.013125458732247353
aF0.4998977482318879
aa(lp92
F0.01607655920088291
aF0.48213511705398565
aa(lp93
F0.4925813674926758
aF0.018882572650909424
aa(lp94
F0.3928470551967621
aF-0.2805088732391596
aa(lp95
F0.4932691156864166
aF0.019974593073129654
aa(lp96
F0.4934425354003906
aF0.020555220544338226
aa(lp97
F0.4939291179180145
aF0.02132442779839039
aa(lp98
F0.49441567063331604
aF0.022121677175164223
aa(lp99
F0.4949720799922943
aF0.02271413989365101
aa(lp100
F0.49514541029930115
aF0.023372214287519455
aa(lp101
F0.9805778861045837
aF0.019527064636349678
aa(lp102
F0.9799163937568665
aF0.020325733348727226
aa(lp103
F0.9793902635574341
aF0.020960833877325058
aa(lp104
F1.0788829684257508
aF0.3215834770351648
aa(lp105
F0.8781604409217834
aF-0.2775513056665659
aa(lp106
F0.9775856137275696
aF0.023110250011086464
aa(lp107
F0.9769974946975708
aF0.023829307407140732
aa(lp108
F0.9761674404144287
aF0.024845797568559647
aa(lp109
F0.9753084182739258
aF0.02590409480035305
aa(lp110
F0.9746266603469849
aF0.02674543298780918
aa(lp111
F1.0739639163017274
aF0.32757297456264495
aasS'25k_limitCandActs'
p112
(lp113
(lp114
F0.177474245429039
aF0.5287706851959229
aa(lp115
F0.21694229543209076
aF0.8680322766304016
aa(lp116
F0.21779099106788635
aF0.8667951226234436
aa(lp117
F0.21831057965755463
aF0.8656830787658691
aa(lp118
F0.21919603645801544
aF0.8646798729896545
aa(lp119
F0.22020994126796722
aF0.863097071647644
aa(lp120
F0.12128599882125857
aF0.5613761067390441
aa(lp121
F0.2218593955039978
aF0.8598707318305969
aa(lp122
F0.2223844826221466
aF0.8584188222885132
aa(lp123
F0.90064537525177
aF0.13712836802005768
aa(lp124
F0.8977795839309692
aF0.13847732543945312
aa(lp125
F0.8954450488090515
aF0.13940732181072235
aa(lp126
F0.8933444619178772
aF0.14052148163318634
aa(lp127
F0.890295147895813
aF0.14189809560775757
aa(lp128
F0.8871703743934631
aF0.14328579604625702
aa(lp129
F0.8846266865730286
aF0.14424237608909607
aa(lp130
F0.9823396563529969
aF0.445388200879097
aa(lp131
F0.7791804313659667
aF-0.1531452715396881
aa(lp132
F0.7062073349952698
aF0.5537152886390686
aa(lp133
F0.7026616930961609
aF0.5519413352012634
aa(lp134
F0.697783887386322
aF0.5493122935295105
aa(lp135
F0.6928628087043762
aF0.5466809868812561
aa(lp136
F0.6890580654144287
aF0.5445097088813782
aa(lp137
F0.7854038834571838
aF0.842730450630188
aasS'20k_errThresh95/'
p138
(lp139
(lp140
F0.773456335067749
aF0.8083140850067139
aa(lp141
F0.7711123824119568
aF0.8071646094322205
aa(lp142
F0.7679964303970337
aF0.805759847164154
aa(lp143
F0.7575640678405762
aF0.3512219190597535
aa(lp144
F0.7552776336669922
aF0.3526319265365601
aa(lp145
F0.7519596815109253
aF0.35442948341369634
aa(lp146
F0.6484920620918274
aF0.05624411702156068
aa(lp147
F0.7454850077629089
aF0.3575957119464874
aa(lp148
F0.30089080333709717
aF0.7461310029029846
aa(lp149
F0.3025449514389038
aF0.7423073649406433
aa(lp150
F0.30420398712158203
aF0.738446831703186
aa(lp151
F0.30521488189697266
aF0.7353987693786621
aa(lp152
F0.8221738338470459
aF0.21591798961162567
aa(lp153
F0.8179019689559937
aF0.21877896785736084
aa(lp154
F0.8135519623756409
aF0.22166608273983002
aa(lp155
F0.8100967407226562
aF0.2237989455461502
aa(lp156
F0.9068804740905763
aF0.5260450422763825
aa(lp157
F0.7027935028076171
aF-0.07103446424007415
aa(lp158
F0.7997881174087524
aF0.23140618205070496
aa(lp159
F0.7963640689849854
aF0.23374402523040771
aa(lp160
F0.7915293574333191
aF0.23680885136127472
aa(lp161
F0.7866125702857971
aF0.23989960551261902
aa(lp162
F0.7827145457267761
aF0.24217651784420013
aa(lp163
F0.8790857553482057
aF0.5445822060108185
aassS'ball_color'
p164
S'red'
p165
sS'sensorLog'
p166
(lp167
(lp168
F0.4159391947170303
aF0.2864903774051676
aF0.7458746163436114
aF0.6044664949894413
aF0.4357520000000001
aF0.1769002799999999
aF0.33
aa(lp169
F0.40244102616491423
aF0.29137241682853804
aF0.7395369755310807
aF0.5996918466966844
aF0.4357520000000001
aF0.1890171347999999
aF0.33
aa(lp170
F0.38512669146771683
aF0.3005553828463029
aF0.7264367641039147
aF0.5901425501111708
aF0.4357520000000001
aF0.19883178718799996
aF0.33
aa(lp171
F0.3714644597443262
aF0.30893628332054135
aF0.7128094785502626
aF0.580593253525657
aF0.4357520000000001
aF0.20301592846920008
aF0.33
aa(lp172
F0.3660044363181055
aF0.3128164174964006
aF0.7058134397583942
aF0.5758186052329003
aF0.4357520000000001
aF0.20301592846920008
aF0.33
aa(lp173
F0.3549772895008314
aF0.31993859757375065
aF0.6914880442921021
aF0.5662693086473866
aF0.4357520000000001
aF0.20301592846920008
aF0.33
aa(lp174
F0.3438304726305801
aF0.3261889534659158
aF0.6767613523505581
aF0.5567200120618729
aF0.4357520000000001
aF0.20301592846920008
aF0.33
aa(lp175
F0.33259409897453485
aF0.33154499064125886
aF0.6616863641218323
aF0.5471707154763593
aF0.4357520000000001
aF0.20301592846920008
aF0.33
aa(lp176
F0.32413199531299997
aF0.3350497370883524
aF0.6502095722207134
aF0.5471707154763593
aF0.4357520000000001
aF0.20301592846920008
aF0.33
aa(lp177
F0.30721162382208556
aF0.3420592299825394
aF0.6272559884184755
aF0.5471707154763593
aF0.4357520000000001
aF0.20301592846920008
aF0.33
aa(lp178
F0.29029711200290853
aF0.3490687228767264
aF0.6043024046162376
aF0.5471707154763593
aF0.4357520000000001
aF0.20301592846920008
aF0.33
aa(lp179
F0.2733895474649069
aF0.3560782157709134
aF0.5813488208139997
aF0.5471707154763593
aF0.4357520000000001
aF0.20301592846920008
aF0.33
aa(lp180
F0.2649387860921636
aF0.35958296221800695
aF0.5698720289128808
aF0.5471707154763593
aF0.4357520000000001
aF0.20301592846920008
aF0.33
aa(lp181
F0.2480443343473956
aF0.36659245511219396
aF0.5469184451106429
aF0.5471707154763593
aF0.4357520000000001
aF0.20301592846920008
aF0.33
aa(lp182
F0.23116103310832167
aF0.37360194800638097
aF0.523964861308405
aF0.5471707154763593
aF0.4357520000000001
aF0.20301592846920008
aF0.33
aa(lp183
F0.21429151792262172
aF0.380611440900568
aF0.5010112775061671
aF0.5471707154763593
aF0.4357520000000001
aF0.20301592846920008
aF0.33
aa(lp184
F0.20586298930726393
aF0.3841161873476615
aF0.4895344856050482
aF0.5471707154763593
aF0.4357520000000001
aF0.20301592846920008
aF0.33
aa(lp185
F0.1890211675776377
aF0.3911256802418485
aF0.4665809018028103
aF0.5471707154763593
aF0.4357520000000001
aF0.20301592846920008
aF0.33
aa(lp186
F0.17778634630309478
aF0.3955681227503643
aF0.4512118709654935
aF0.5376214188908456
aF0.4357520000000001
aF0.20301592846920008
aF0.33
aa(lp187
F0.1693266973110923
aF0.3983783681222672
aF0.4395455724544103
aF0.5376214188908456
aF0.4357520000000001
aF0.20301592846920008
aF0.33
aa(lp188
F0.1524159486512055
aF0.403998858866073
aF0.41621297543224395
aF0.5376214188908456
aF0.4357520000000001
aF0.20301592846920008
aF0.33
aa(lp189
F0.1355201549003773
aF0.40961934960987884
aF0.39288037841007756
aF0.5376214188908456
aF0.4357520000000001
aF0.20301592846920008
aF0.33
aa(lp190
F0.11864570521181234
aF0.41523984035368466
aF0.3695477813879112
aF0.5376214188908456
aF0.4357520000000001
aF0.20301592846920008
aF0.33
aa(lp191
F0.11021954842814993
aF0.41805008572558755
aF0.357881482876828
aF0.5376214188908456
aF0.4357520000000001
aF0.20301592846920008
aF0.33
aa(lp192
F0.09339935672534005
aF0.4236705764693934
aF0.33454888585466164
aF0.5376214188908456
aF0.4357520000000001
aF0.20301592846920008
aF0.33
aa(lp193
F0.0821951072681895
aF0.4271834363153129
aF0.3189411243232058
aF0.528072122305332
aF0.4357520000000001
aF0.20301592846920008
aF0.33
aasS'error'
p194
(dp195
g8
F16.043466820639555
sg34
F17.872371300580333
sg60
F14.95543189277347
sg86
F9.358952211942087
sg112
F16.584007702690432
sg138
F14.033701490211357
ssS'motorLog'
p196
(lp197
(lp198
F0.2
aF-0.3
aa(lp199
F0.2
aF-0.3
aa(lp200
F0.2
aF-0.3
aa(lp201
F0.2
aF-0.3
aa(lp202
F0.2
aF-0.3
aa(lp203
F0.2
aF-0.3
aa(lp204
F0.2
aF-0.3
aa(lp205
F0.3
aI0
aa(lp206
F0.3
aI0
aa(lp207
F0.3
aI0
aa(lp208
F0.3
aI0
aa(lp209
F0.3
aI0
aa(lp210
F0.3
aI0
aa(lp211
F0.3
aI0
aa(lp212
F0.3
aI0
aa(lp213
F0.3
aI0
aa(lp214
F0.3
aI0
aa(lp215
F0.2
aF-0.3
aa(lp216
F0.3
aI0
aa(lp217
F0.3
aI0
aa(lp218
F0.3
aI0
aa(lp219
F0.3
aI0
aa(lp220
F0.3
aI0
aa(lp221
F0.3
aI0
aa(lp222
F0.2
aF-0.3
aa(lp223
F0.3
aI0
aasb.