(iexpert
Expert
p0
(dp1
S'inputs'
p2
(lp3
(lp4
I-1
aI0
aI0
aI0
aI0
aI0
aI0
aF0.75
aF0.050000000000000003
aa(lp5
I-1
aI0
aI0
aI0
aI0
aI0
aI0
aF0.59999999999999998
aF0.0
aa(lp6
I-1
aI0
aI0
aI0
aI0
aI0
aI0
aF0.90000000000000002
aF0.20000000000000001
aa(lp7
I-1
aI0
aI0
aI0
aI0
aI0
aI0
aF0.84999999999999998
aF0.0
aa(lp8
I-1
aI0
aI0
aI0
aI0
aI0
aI0
aF1.0
aF0.0
aa(lp9
I-1
aI0
aI0
aI0
aI0
aI0
aI0
aF0.90000000000000002
aF0.20000000000000001
aa(lp10
I-1
aI0
aI0
aI0
aI0
aI0
aI0
aF0.84999999999999998
aF0.050000000000000003
aa(lp11
I-1
aI0
aI0
aI0
aI0
aI0
aI0
aF0.84999999999999998
aF0.050000000000000003
aa(lp12
I-1
aI0
aI0
aI0
aI0
aI0
aI0
aF0.80000000000000004
aF0.29999999999999999
aa(lp13
I-1
aI0
aI0
aI0
aI0
aI0
aI0
aF0.80000000000000004
aF0.29999999999999999
aa(lp14
I-1
aI0
aI0
aI0
aI0
aI0
aI0
aF0.69999999999999996
aF0.14999999999999999
aa(lp15
I-1
aI0
aI0
aI0
aI0
aI0
aI0
aF0.94999999999999996
aF0.0
aa(lp16
I-1
aI0
aI0
aI0
aI0
aI0
aI0
aF0.55000000000000004
aF0.0
aa(lp17
I-1
aI0
aI0
aI0
aI0
aI0
aI0
aF0.94999999999999996
aF0.20000000000000001
aa(lp18
I-1
aI0
aI0
aI0
aI0
aI0
aI0
aF0.84999999999999998
aF0.050000000000000003
aa(lp19
I-1
aI0
aI0
aI0
aI0
aI0
aI0
aF0.80000000000000004
aF0.14999999999999999
aa(lp20
I-1
aI0
aI0
aI0
aI0
aI0
aI0
aF0.80000000000000004
aF0.29999999999999999
aa(lp21
I-1
aI0
aI0
aI0
aI0
aI0
aI0
aF0.65000000000000002
aF0.050000000000000003
aa(lp22
I-1
aI0
aI0
aI0
aI0
aI0
aI0
aF0.55000000000000004
aF0.14999999999999999
aa(lp23
I-1
aI0
aI0
aI0
aI0
aI0
aI0
aF0.65000000000000002
aF0.0
aa(lp24
I-1
aI0
aI0
aI0
aI0
aI0
aI0
aF0.75
aF0.050000000000000003
aa(lp25
I-1
aI0
aI0
aI0
aI0
aI0
aI0
aF0.5
aF0.10000000000000001
aa(lp26
I-1
aI0
aI0
aI0
aI0
aI0
aI0
aF0.84999999999999998
aF0.14999999999999999
aa(lp27
I-1
aI0
aI0
aI0
aI0
aI0
aI0
aF0.84999999999999998
aF0.050000000000000003
aa(lp28
I-1
aI0
aI0
aI0
aI0
aI0
aI0
aF0.59999999999999998
aF0.25
aa(lp29
I-1
aI0
aI0
aI0
aI0
aI0
aI0
aF0.90000000000000002
aF0.0
aa(lp30
I-1
aI0
aI0
aI0
aI0
aI0
aI0
aF1.0
aF0.14999999999999999
aa(lp31
I-1
aI0
aI0
aI0
aI0
aI0
aI0
aF0.90000000000000002
aF0.14999999999999999
aa(lp32
I-1
aI0
aI0
aI0
aI0
aI0
aI0
aF0.65000000000000002
aF0.14999999999999999
aa(lp33
I-1
aI0
aI0
aI0
aI0
aI0
aI0
aF0.84999999999999998
aF0.0
aa(lp34
I-1
aI0
aI0
aI0
aI0
aI0
aI0
aF0.84999999999999998
aF0.050000000000000003
aa(lp35
I-1
aI0
aI0
aI0
aI0
aI0
aI0
aF0.59999999999999998
aF0.10000000000000001
aa(lp36
I-1
aI0
aI0
aI0
aI0
aI0
aI0
aF0.84999999999999998
aF0.14999999999999999
aa(lp37
I-1
aI0
aI0
aI0
aI0
aI0
aI0
aF0.80000000000000004
aF0.050000000000000003
aa(lp38
I-1
aI0
aI0
aI0
aI0
aI0
aI0
aF0.55000000000000004
aF0.050000000000000003
aa(lp39
I-1
aI0
aI0
aI0
aI0
aI0
aI0
aF0.80000000000000004
aF0.25
aa(lp40
I-1
aI0
aI0
aI0
aI0
aI0
aI0
aF0.59999999999999998
aF0.14999999999999999
aa(lp41
I-1
aI0
aI0
aI0
aI0
aI0
aI0
aF1.0
aF0.20000000000000001
aa(lp42
I-1
aI0
aI0
aI0
aI0
aI0
aI0
aF1.0
aF0.0
aa(lp43
I-1
aI0
aI0
aI0
aI0
aI0
aI0
aF0.69999999999999996
aF0.10000000000000001
aa(lp44
I-1
aI0
aI0
aI0
aI0
aI0
aI0
aF0.80000000000000004
aF0.14999999999999999
aa(lp45
I-1
aI0
aI0
aI0
aI0
aI0
aI0
aF0.75
aF0.25
aa(lp46
I-1
aI0
aI0
aI0
aI0
aI0
aI0
aF0.80000000000000004
aF0.14999999999999999
aa(lp47
I-1
aI0
aI0
aI0
aI0
aI0
aI0
aF0.80000000000000004
aF0.10000000000000001
aa(lp48
I-1
aI0
aI0
aI0
aI0
aI0
aI0
aF0.69999999999999996
aF0.29999999999999999
aa(lp49
I-1
aI0
aI0
aI0
aI0
aI0
aI0
aF0.84999999999999998
aF0.10000000000000001
aa(lp50
I-1
aI0
aI0
aI0
aI0
aI0
aI0
aF0.75
aF0.20000000000000001
aa(lp51
I-1
aI0
aI0
aI0
aI0
aI0
aI0
aF0.45000000000000001
aF0.050000000000000003
aa(lp52
I-1
aI0
aI0
aI0
aI0
aI0
aI0
aF0.80000000000000004
aF0.050000000000000003
aa(lp53
I-1
aI0
aI0
aI0
aI0
aI0
aI0
aF0.69999999999999996
aF0.050000000000000003
aa(lp54
I-1
aI0
aI0
aI0
aI0
aI0
aI0
aF0.5
aF0.45000000000000001
aa(lp55
I-1
aI0
aI0
aI0
aI0
aI0
aI0
aF0.65000000000000002
aF0.45000000000000001
aa(lp56
I-1
aI0
aI0
aI0
aI0
aI0
aI0
aF1.0
aF0.0
aa(lp57
I-1
aI0
aI0
aI0
aI0
aI0
aI0
aF0.59999999999999998
aF0.25
aa(lp58
I-1
aI0
aI0
aI0
aI0
aI0
aI0
aF0.75
aF0.25
aa(lp59
I-1
aI0
aI0
aI0
aI0
aI0
aI0
aF0.75
aF0.45000000000000001
aa(lp60
I-1
aI0
aI0
aI0
aI0
aI0
aI0
aF0.80000000000000004
aF0.14999999999999999
aa(lp61
I-1
aI0
aI0
aI0
aI0
aI0
aI0
aF0.55000000000000004
aF0.45000000000000001
aa(lp62
I-1
aI0
aI0
aI0
aI0
aI0
aI0
aF0.90000000000000002
aF0.40000000000000002
aa(lp63
I-1
aI0
aI0
aI0
aI0
aI0
aI0
aF0.69999999999999996
aF0.0
aa(lp64
I-1
aI0
aI0
aI0
aI0
aI0
aI0
aF0.94999999999999996
aF0.0
aa(lp65
I-1
aI0
aI0
aI0
aI0
aI0
aI0
aF0.84999999999999998
aF0.10000000000000001
aa(lp66
I-1
aI0
aI0
aI0
aI0
aI0
aI0
aF0.80000000000000004
aF0.14999999999999999
aa(lp67
I-1
aI0
aI0
aI0
aI0
aI0
aI0
aF0.75
aF0.40000000000000002
aa(lp68
I-1
aI0
aI0
aI0
aI0
aI0
aI0
aF1.0
aF0.40000000000000002
aa(lp69
I-1
aI0
aI0
aI0
aI0
aI0
aI0
aF0.75
aF0.0
aa(lp70
I-1
aI0
aI0
aI0
aI0
aI0
aI0
aF0.80000000000000004
aF0.40000000000000002
aa(lp71
I-1
aI0
aI0
aI0
aI0
aI0
aI0
aF0.94999999999999996
aF0.0
aa(lp72
I-1
aI0
aI0
aI0
aI0
aI0
aI0
aF0.84999999999999998
aF0.14999999999999999
aa(lp73
I-1
aI0
aI0
aI0
aI0
aI0
aI0
aF0.69999999999999996
aF0.10000000000000001
aa(lp74
I-1
aI0
aI0
aI0
aI0
aI0
aI0
aF0.94999999999999996
aF0.0
aa(lp75
I-1
aI0
aI0
aI0
aI0
aI0
aI0
aF1.0
aF0.34999999999999998
aa(lp76
I-1
aI0
aI0
aI0
aI0
aI0
aI0
aF1.0
aF0.45000000000000001
aa(lp77
I-1
aI0
aI0
aI0
aI0
aI0
aI0
aF0.65000000000000002
aF0.29999999999999999
aa(lp78
I-1
aI0
aI0
aI0
aI0
aI0
aI0
aF0.55000000000000004
aF0.25
aa(lp79
I-1
aI0
aI0
aI0
aI0
aI0
aI0
aF0.90000000000000002
aF0.29999999999999999
aa(lp80
I-1
aI0
aI0
aI0
aI0
aI0
aI0
aF0.69999999999999996
aF0.40000000000000002
aa(lp81
I-1
aI0
aI0
aI0
aI0
aI0
aI0
aF0.65000000000000002
aF0.34999999999999998
aa(lp82
I-1
aI0
aI0
aI0
aI0
aI0
aI0
aF0.45000000000000001
aF0.40000000000000002
aa(lp83
I-1
aI0
aI0
aI0
aI0
aI0
aI0
aF0.69999999999999996
aF0.45000000000000001
aa(lp84
I-1
aI0
aI0
aI0
aI0
aI0
aI0
aF0.69999999999999996
aF0.45000000000000001
aa(lp85
I-1
aI0
aI0
aI0
aI0
aI0
aI0
aF0.90000000000000002
aF0.14999999999999999
aa(lp86
I-1
aI0
aI0
aI0
aI0
aI0
aI0
aF0.55000000000000004
aF0.29999999999999999
aa(lp87
I-1
aI0
aI0
aI0
aI0
aI0
aI0
aF1.0
aF0.050000000000000003
aa(lp88
I-1
aI0
aI0
aI0
aI0
aI0
aI0
aF0.69999999999999996
aF0.10000000000000001
aa(lp89
I-1
aI0
aI0
aI0
aI0
aI0
aI0
aF0.65000000000000002
aF0.45000000000000001
aa(lp90
I-1
aI0
aI0
aI0
aI0
aI0
aI0
aF0.5
aF0.14999999999999999
aa(lp91
I-1
aI0
aI0
aI0
aI0
aI0
aI0
aF0.55000000000000004
aF0.0
aa(lp92
I-1
aI0
aI0
aI0
aI0
aI0
aI0
aF0.45000000000000001
aF0.10000000000000001
aa(lp93
I-1
aI0
aI0
aI0
aI0
aI0
aI0
aF0.75
aF0.0
aa(lp94
I-1
aI0
aI0
aI0
aI0
aI0
aI0
aF0.65000000000000002
aF0.20000000000000001
aa(lp95
I-1
aI0
aI0
aI0
aI0
aI0
aI0
aF0.40000000000000002
aF0.20000000000000001
aa(lp96
I-1
aI0
aI0
aI0
aI0
aI0
aI0
aF0.75
aF0.29999999999999999
aa(lp97
I-1
aI0
aI0
aI0
aI0
aI0
aI0
aF0.84999999999999998
aF0.40000000000000002
aa(lp98
I-1
aI0
aI0
aI0
aI0
aI0
aI0
aF0.65000000000000002
aF0.20000000000000001
aa(lp99
I-1
aI0
aI0
aI0
aI0
aI0
aI0
aF0.94999999999999996
aF0.20000000000000001
aa(lp100
I-1
aI0
aI0
aI0
aI0
aI0
aI0
aF0.59999999999999998
aF0.14999999999999999
aa(lp101
I-1
aI0
aI0
aI0
aI0
aI0
aI0
aF0.40000000000000002
aF0.050000000000000003
aa(lp102
I-1
aI0
aI0
aI0
aI0
aI0
aI0
aF0.75
aF0.0
aa(lp103
I-1
aI0
aI0
aI0
aI0
aI0
aI0
aF0.80000000000000004
aF0.20000000000000001
aa(lp104
I-1
aI0
aI0
aI0
aI0
aI0
aI0
aF0.69999999999999996
aF0.10000000000000001
aa(lp105
I-1
aI0
aI0
aI0
aI0
aI0
aI0
aF1.0
aF0.25
aa(lp106
I-1
aI0
aI0
aI0
aI0
aI0
aI0
aF0.55000000000000004
aF0.29999999999999999
aa(lp107
I-1
aI0
aI0
aI0
aI0
aI0
aI0
aF0.75
aF0.25
aa(lp108
I-1
aI0
aI0
aI0
aI0
aI0
aI0
aF0.69999999999999996
aF0.34999999999999998
aa(lp109
I-1
aI0
aI0
aI0
aI0
aI0
aI0
aF0.5
aF0.40000000000000002
aa(lp110
I-1
aI0
aI0
aI0
aI0
aI0
aI0
aF0.84999999999999998
aF0.050000000000000003
aa(lp111
I-1
aI0
aI0
aI0
aI0
aI0
aI0
aF0.5
aF0.0
aa(lp112
I-1
aI0
aI0
aI0
aI0
aI0
aI0
aF0.59999999999999998
aF0.5
aa(lp113
I-1
aI0
aI0
aI0
aI0
aI0
aI0
aF0.69999999999999996
aF0.14999999999999999
aa(lp114
I-1
aI0
aI0
aI0
aI0
aI0
aI0
aF0.69999999999999996
aF0.5
aa(lp115
I-1
aI0
aI0
aI0
aI0
aI0
aI0
aF0.55000000000000004
aF0.5
aa(lp116
I-1
aI0
aI0
aI0
aI0
aI0
aI0
aF0.5
aF0.10000000000000001
aa(lp117
I-1
aI0
aI0
aI0
aI0
aI0
aI0
aF0.80000000000000004
aF0.40000000000000002
aa(lp118
I-1
aI0
aI0
aI0
aI0
aI0
aI0
aF0.65000000000000002
aF0.050000000000000003
aa(lp119
I-1
aI0
aI0
aI0
aI0
aI0
aI0
aF0.59999999999999998
aF0.34999999999999998
aa(lp120
I-1
aI0
aI0
aI0
aI0
aI0
aI0
aF0.94999999999999996
aF0.0
aa(lp121
I-1
aI0
aI0
aI0
aI0
aI0
aI0
aF0.75
aF0.050000000000000003
aa(lp122
I-1
aI0
aI0
aI0
aI0
aI0
aI0
aF0.94999999999999996
aF0.34999999999999998
aa(lp123
I-1
aI0
aI0
aI0
aI0
aI0
aI0
aF0.90000000000000002
aF0.0
aa(lp124
I-1
aI0
aI0
aI0
aI0
aI0
aI0
aF0.90000000000000002
aF0.14999999999999999
aa(lp125
I-1
aI0
aI0
aI0
aI0
aI0
aI0
aF0.84999999999999998
aF0.10000000000000001
aa(lp126
I-1
aI0
aI0
aI0
aI0
aI0
aI0
aF0.94999999999999996
aF0.14999999999999999
aa(lp127
I-1
aI0
aI0
aI0
aI0
aI0
aI0
aF1.0
aF0.29999999999999999
aa(lp128
I-1
aI0
aI0
aI0
aI0
aI0
aI0
aF0.75
aF0.25
aa(lp129
I-1
aI0
aI0
aI0
aI0
aI0
aI0
aF1.0
aF0.0
aa(lp130
I-1
aI0
aI0
aI0
aI0
aI0
aI0
aF1.0
aF0.40000000000000002
aa(lp131
I-1
aI0
aI0
aI0
aI0
aI0
aI0
aF0.90000000000000002
aF0.20000000000000001
aa(lp132
I-1
aI0
aI0
aI0
aI0
aI0
aI0
aF0.90000000000000002
aF0.40000000000000002
aa(lp133
I-1
aI0
aI0
aI0
aI0
aI0
aI0
aF0.69999999999999996
aF0.40000000000000002
aa(lp134
I-1
aI0
aI0
aI0
aI0
aI0
aI0
aF0.75
aF0.34999999999999998
aa(lp135
I-1
aI0
aI0
aI0
aI0
aI0
aI0
aF0.84999999999999998
aF0.050000000000000003
aa(lp136
I-1
aI0
aI0
aI0
aI0
aI0
aI0
aF0.84999999999999998
aF0.10000000000000001
aa(lp137
I-1
aI0
aI0
aI0
aI0
aI0
aI0
aF0.90000000000000002
aF0.29999999999999999
aa(lp138
I-1
aI0
aI0
aI0
aI0
aI0
aI0
aF0.65000000000000002
aF0.14999999999999999
aa(lp139
I-1
aI0
aI0
aI0
aI0
aI0
aI0
aF1.0
aF0.10000000000000001
aa(lp140
I-1
aI0
aI0
aI0
aI0
aI0
aI0
aF0.84999999999999998
aF0.14999999999999999
aa(lp141
I-1
aI0
aI0
aI0
aI0
aI0
aI0
aF1.0
aF0.34999999999999998
aa(lp142
I-1
aI0
aI0
aI0
aI0
aI0
aI0
aF0.45000000000000001
aF0.29999999999999999
aa(lp143
I-1
aI0
aI0
aI0
aI0
aI0
aI0
aF0.59999999999999998
aF0.40000000000000002
aa(lp144
I-1
aI0
aI0
aI0
aI0
aI0
aI0
aF0.65000000000000002
aF0.40000000000000002
aa(lp145
I-1
aI0
aI0
aI0
aI0
aI0
aI0
aF0.84999999999999998
aF0.10000000000000001
aa(lp146
I-1
aI0
aI0
aI0
aI0
aI0
aI0
aF0.40000000000000002
aF0.55000000000000004
aa(lp147
I-1
aI0
aI0
aI0
aI0
aI0
aI0
aF0.34999999999999998
aF0.34999999999999998
aa(lp148
I-1
aI0
aI0
aI0
aI0
aI0
aI0
aF0.65000000000000002
aF0.14999999999999999
aa(lp149
I-1
aI0
aI0
aI0
aI0
aI0
aI0
aF0.94999999999999996
aF0.25
aa(lp150
I-1
aI0
aI0
aI0
aI0
aI0
aI0
aF0.80000000000000004
aF0.0
aa(lp151
I-1
aI0
aI0
aI0
aI0
aI0
aI0
aF0.45000000000000001
aF0.20000000000000001
aa(lp152
I-1
aI0
aI0
aI0
aI0
aI0
aI0
aF0.5
aF0.40000000000000002
aa(lp153
I-1
aI0
aI0
aI0
aI0
aI0
aI0
aF0.69999999999999996
aF0.14999999999999999
aa(lp154
I-1
aI0
aI0
aI0
aI0
aI0
aI0
aF0.75
aF0.050000000000000003
aa(lp155
I-1
aI0
aI0
aI0
aI0
aI0
aI0
aF0.45000000000000001
aF0.34999999999999998
aa(lp156
I-1
aI0
aI0
aI0
aI0
aI0
aI0
aF0.45000000000000001
aF0.34999999999999998
aa(lp157
I-1
aI0
aI0
aI0
aI0
aI0
aI0
aF0.5
aF0.45000000000000001
aa(lp158
I-1
aI0
aI0
aI0
aI0
aI0
aI0
aF0.65000000000000002
aF0.25
aa(lp159
I-1
aI0
aI0
aI0
aI0
aI0
aI0
aF0.69999999999999996
aF0.10000000000000001
aa(lp160
I-1
aI0
aI0
aI0
aI0
aI0
aI0
aF0.80000000000000004
aF0.050000000000000003
aa(lp161
I-1
aI0
aI0
aI0
aI0
aI0
aI0
aF0.45000000000000001
aF0.29999999999999999
aa(lp162
I-1
aI0
aI0
aI0
aI0
aI0
aI0
aF0.5
aF0.0
aa(lp163
I-1
aI0
aI0
aI0
aI0
aI0
aI0
aF0.59999999999999998
aF0.14999999999999999
aa(lp164
I-1
aI0
aI0
aI0
aI0
aI0
aI0
aF0.65000000000000002
aF0.25
aa(lp165
I-1
aI0
aI0
aI0
aI0
aI0
aI0
aF0.84999999999999998
aF0.29999999999999999
aa(lp166
I-1
aI0
aI0
aI0
aI0
aI0
aI0
aF0.69999999999999996
aF0.29999999999999999
aa(lp167
I-1
aI0
aI0
aI0
aI0
aI0
aI0
aF0.84999999999999998
aF0.40000000000000002
aa(lp168
I-1
aI0
aI0
aI0
aI0
aI0
aI0
aF0.65000000000000002
aF0.20000000000000001
aa(lp169
I-1
aI0
aI0
aI0
aI0
aI0
aI0
aF0.55000000000000004
aF0.5
aa(lp170
I-1
aI0
aI0
aI0
aI0
aI0
aI0
aF0.94999999999999996
aF0.20000000000000001
aa(lp171
I-1
aI0
aI0
aI0
aI0
aI0
aI0
aF0.59999999999999998
aF0.40000000000000002
aa(lp172
I-1
aI0
aI0
aI0
aI0
aI0
aI0
aF0.55000000000000004
aF0.20000000000000001
aa(lp173
I-1
aI0
aI0
aI0
aI0
aI0
aI0
aF0.84999999999999998
aF0.29999999999999999
aa(lp174
I-1
aI0
aI0
aI0
aI0
aI0
aI0
aF0.90000000000000002
aF0.14999999999999999
aa(lp175
I-1
aI0
aI0
aI0
aI0
aI0
aI0
aF0.59999999999999998
aF0.14999999999999999
aa(lp176
I-1
aI0
aI0
aI0
aI0
aI0
aI0
aF0.69999999999999996
aF0.14999999999999999
aa(lp177
I-1
aI0
aI0
aI0
aI0
aI0
aI0
aF0.84999999999999998
aF0.10000000000000001
aa(lp178
I-1
aI0
aI0
aI0
aI0
aI0
aI0
aF0.59999999999999998
aF0.25
aa(lp179
I-1
aI0
aI0
aI0
aI0
aI0
aI0
aF0.5
aF0.14999999999999999
aa(lp180
I-1
aI0
aI0
aI0
aI0
aI0
aI0
aF0.5
aF0.25
aa(lp181
I-1
aI0
aI0
aI0
aI0
aI0
aI0
aF0.94999999999999996
aF0.25
aa(lp182
I-1
aI0
aI0
aI0
aI0
aI0
aI0
aF1.0
aF0.0
aa(lp183
I-1
aI0
aI0
aI0
aI0
aI0
aI0
aF0.84999999999999998
aF0.0
aa(lp184
I-1
aI0
aI0
aI0
aI0
aI0
aI0
aF0.59999999999999998
aF0.14999999999999999
aa(lp185
I-1
aI0
aI0
aI0
aI0
aI0
aI0
aF1.0
aF0.10000000000000001
aa(lp186
I-1
aI0
aI0
aI0
aI0
aI0
aI0
aF0.90000000000000002
aF0.0
aa(lp187
I-1
aI0
aI0
aI0
aI0
aI0
aI0
aF1.0
aF0.14999999999999999
aa(lp188
I-1
aI0
aI0
aI0
aI0
aI0
aI0
aF0.94999999999999996
aF0.20000000000000001
aa(lp189
I-1
aI0
aI0
aI0
aI0
aI0
aI0
aF0.59999999999999998
aF0.25
aa(lp190
I-1
aI0
aI0
aI0
aI0
aI0
aI0
aF0.69999999999999996
aF0.25
aa(lp191
I-1
aI0
aI0
aI0
aI0
aI0
aI0
aF0.84999999999999998
aF0.10000000000000001
aa(lp192
I-1
aI0
aI0
aI0
aI0
aI0
aI0
aF0.80000000000000004
aF0.050000000000000003
aa(lp193
I-1
aI0
aI0
aI0
aI0
aI0
aI0
aF0.90000000000000002
aF0.050000000000000003
aa(lp194
I-1
aI0
aI0
aI0
aI0
aI0
aI0
aF0.90000000000000002
aF0.0
aa(lp195
I-1
aI0
aI0
aI0
aI0
aI0
aI0
aF0.5
aF0.0
aa(lp196
I-1
aI0
aI0
aI0
aI0
aI0
aI0
aF0.90000000000000002
aF0.20000000000000001
aa(lp197
I-1
aI0
aI0
aI0
aI0
aI0
aI0
aF0.80000000000000004
aF0.050000000000000003
aa(lp198
I-1
aI0
aI0
aI0
aI0
aI0
aI0
aF0.90000000000000002
aF0.20000000000000001
aa(lp199
I-1
aI0
aI0
aI0
aI0
aI0
aI0
aF0.55000000000000004
aF0.0
aa(lp200
I-1
aI0
aI0
aI0
aI0
aI0
aI0
aF0.75
aF0.050000000000000003
aa(lp201
I-1
aI0
aI0
aI0
aI0
aI0
aI0
aF0.65000000000000002
aF0.25
aa(lp202
I-1
aI0
aI0
aI0
aI0
aI0
aI0
aF0.94999999999999996
aF0.25
aa(lp203
I-1
aI0
aI0
aI0
aI0
aI0
aI0
aF0.59999999999999998
aF0.25
aa(lp204
I-1
aI0
aI0
aI0
aI0
aI0
aI0
aF0.90000000000000002
aF0.29999999999999999
aa(lp205
I-1
aI0
aI0
aI0
aI0
aI0
aI0
aF0.94999999999999996
aF0.40000000000000002
aa(lp206
I-1
aI0
aI0
aI0
aI0
aI0
aI0
aF0.69999999999999996
aF0.34999999999999998
aa(lp207
I-1
aI0
aI0
aI0
aI0
aI0
aI0
aF0.75
aF0.0
aa(lp208
I-1
aI0
aI0
aI0
aI0
aI0
aI0
aF0.94999999999999996
aF0.20000000000000001
aa(lp209
I-1
aI0
aI0
aI0
aI0
aI0
aI0
aF0.84999999999999998
aF0.29999999999999999
aa(lp210
I-1
aI0
aI0
aI0
aI0
aI0
aI0
aF0.75
aF0.25
aa(lp211
I-1
aI0
aI0
aI0
aI0
aI0
aI0
aF1.0
aF0.29999999999999999
aa(lp212
I-1
aI0
aI0
aI0
aI0
aI0
aI0
aF0.59999999999999998
aF0.0
aa(lp213
I-1
aI0
aI0
aI0
aI0
aI0
aI0
aF0.59999999999999998
aF0.10000000000000001
aa(lp214
I-1
aI0
aI0
aI0
aI0
aI0
aI0
aF1.0
aF0.10000000000000001
aa(lp215
I-1
aI0
aI0
aI0
aI0
aI0
aI0
aF0.90000000000000002
aF0.34999999999999998
aa(lp216
I-1
aI0
aI0
aI0
aI0
aI0
aI0
aF0.65000000000000002
aF0.10000000000000001
aa(lp217
I-1
aI0
aI0
aI0
aI0
aI0
aI0
aF0.90000000000000002
aF0.45000000000000001
aa(lp218
I-1
aI0
aI0
aI0
aI0
aI0
aI0
aF1.0
aF0.40000000000000002
aa(lp219
I-1
aI0
aI0
aI0
aI0
aI0
aI0
aF0.55000000000000004
aF0.20000000000000001
aa(lp220
I-1
aI0
aI0
aI0
aI0
aI0
aI0
aF0.94999999999999996
aF0.0
aa(lp221
I-1
aI0
aI0
aI0
aI0
aI0
aI0
aF0.84999999999999998
aF0.29999999999999999
aa(lp222
I-1
aI0
aI0
aI0
aI0
aI0
aI0
aF0.75
aF0.40000000000000002
aa(lp223
I-1
aI0
aI0
aI0
aI0
aI0
aI0
aF0.80000000000000004
aF0.29999999999999999
aa(lp224
I-1
aI0
aI0
aI0
aI0
aI0
aI0
aF0.80000000000000004
aF0.14999999999999999
aa(lp225
I-1
aI0
aI0
aI0
aI0
aI0
aI0
aF0.90000000000000002
aF0.20000000000000001
aa(lp226
I-1
aI0
aI0
aI0
aI0
aI0
aI0
aF0.80000000000000004
aF0.10000000000000001
aa(lp227
I-1
aI0
aI0
aI0
aI0
aI0
aI0
aF0.80000000000000004
aF0.34999999999999998
aa(lp228
I-1
aI0
aI0
aI0
aI0
aI0
aI0
aF0.55000000000000004
aF0.10000000000000001
aa(lp229
I-1
aI0
aI0
aI0
aI0
aI0
aI0
aF0.69999999999999996
aF0.29999999999999999
aa(lp230
I-1
aI0
aI0
aI0
aI0
aI0
aI0
aF1.0
aF0.34999999999999998
aa(lp231
I-1
aI0
aI0
aI0
aI0
aI0
aI0
aF1.0
aF0.14999999999999999
aa(lp232
I-1
aI0
aI0
aI0
aI0
aI0
aI0
aF0.55000000000000004
aF0.0
aa(lp233
I-1
aI0
aI0
aI0
aI0
aI0
aI0
aF0.5
aF0.10000000000000001
aa(lp234
I-1
aI0
aI0
aI0
aI0
aI0
aI0
aF0.40000000000000002
aF0.0
aa(lp235
I-1
aI0
aI0
aI0
aI0
aI0
aI0
aF0.59999999999999998
aF0.10000000000000001
aa(lp236
I-1
aI0
aI0
aI0
aI0
aI0
aI0
aF0.80000000000000004
aF0.25
aa(lp237
I-1
aI0
aI0
aI0
aI0
aI0
aI0
aF0.45000000000000001
aF0.10000000000000001
aa(lp238
I-1
aI0
aI0
aI0
aI0
aI0
aI0
aF0.84999999999999998
aF0.14999999999999999
aa(lp239
I-1
aI0
aI0
aI0
aI0
aI0
aI0
aF0.59999999999999998
aF0.25
aa(lp240
I-1
aI0
aI0
aI0
aI0
aI0
aI0
aF0.59999999999999998
aF0.34999999999999998
aa(lp241
I-1
aI0
aI0
aI0
aI0
aI0
aI0
aF0.90000000000000002
aF0.10000000000000001
aa(lp242
I-1
aI0
aI0
aI0
aI0
aI0
aI0
aF0.40000000000000002
aF0.0
aa(lp243
I-1
aI0
aI0
aI0
aI0
aI0
aI0
aF1.0
aF0.34999999999999998
aa(lp244
I-1
aI0
aI0
aI0
aI0
aI0
aI0
aF0.5
aF0.29999999999999999
aa(lp245
I-1
aI0
aI0
aI0
aI0
aI0
aI0
aF0.65000000000000002
aF0.34999999999999998
aa(lp246
I-1
aI0
aI0
aI0
aI0
aI0
aI0
aF0.55000000000000004
aF0.29999999999999999
aa(lp247
I-1
aI0
aI0
aI0
aI0
aI0
aI0
aF0.75
aF0.20000000000000001
aa(lp248
I-1
aI0
aI0
aI0
aI0
aI0
aI0
aF1.0
aF0.14999999999999999
aa(lp249
I-1
aI0
aI0
aI0
aI0
aI0
aI0
aF0.94999999999999996
aF0.20000000000000001
aa(lp250
I-1
aI0
aI0
aI0
aI0
aI0
aI0
aF0.80000000000000004
aF0.14999999999999999
aa(lp251
I-1
aI0
aI0
aI0
aI0
aI0
aI0
aF0.65000000000000002
aF0.34999999999999998
aa(lp252
I-1
aI0
aI0
aI0
aI0
aI0
aI0
aF0.84999999999999998
aF0.14999999999999999
aa(lp253
I-1
aI0
aI0
aI0
aI0
aI0
aI0
aF0.84999999999999998
aF0.29999999999999999
aa(lp254
I-1
aI0
aI0
aI0
aI0
aI0
aI0
aF0.84999999999999998
aF0.40000000000000002
aa(lp255
I-1
aI0
aI0
aI0
aI0
aI0
aI0
aF0.75
aF0.25
aa(lp256
I-1
aI0
aI0
aI0
aI0
aI0
aI0
aF0.90000000000000002
aF0.34999999999999998
aa(lp257
I-1
aI0
aI0
aI0
aI0
aI0
aI0
aF0.65000000000000002
aF0.34999999999999998
aa(lp258
I-1
aI0
aI0
aI0
aI0
aI0
aI0
aF0.55000000000000004
aF0.14999999999999999
aa(lp259
I-1
aI0
aI0
aI0
aI0
aI0
aI0
aF1.0
aF0.10000000000000001
aa(lp260
I-1
aI0
aI0
aI0
aI0
aI0
aI0
aF0.65000000000000002
aF0.14999999999999999
aa(lp261
I-1
aI0
aI0
aI0
aI0
aI0
aI0
aF0.84999999999999998
aF0.10000000000000001
aa(lp262
I-1
aI0
aI0
aI0
aI0
aI0
aI0
aF0.90000000000000002
aF0.40000000000000002
aa(lp263
I-1
aI0
aI0
aI0
aI0
aI0
aI0
aF0.69999999999999996
aF0.10000000000000001
aa(lp264
I-1
aI0
aI0
aI0
aI0
aI0
aI0
aF0.75
aF0.050000000000000003
aa(lp265
I-1
aI0
aI0
aI0
aI0
aI0
aI0
aF0.94999999999999996
aF0.20000000000000001
aa(lp266
I-1
aI0
aI0
aI0
aI0
aI0
aI0
aF0.84999999999999998
aF0.050000000000000003
aa(lp267
I-1
aI0
aI0
aI0
aI0
aI0
aI0
aF0.69999999999999996
aF0.050000000000000003
aa(lp268
I-1
aI0
aI0
aI0
aI0
aI0
aI0
aF1.0
aF0.20000000000000001
aa(lp269
I-1
aI0
aI0
aI0
aI0
aI0
aI0
aF0.84999999999999998
aF0.45000000000000001
aa(lp270
I-1
aI0
aI0
aI0
aI0
aI0
aI0
aF0.69999999999999996
aF0.0
aa(lp271
I-1
aI0
aI0
aI0
aI0
aI0
aI0
aF0.94999999999999996
aF0.29999999999999999
aa(lp272
I-1
aI0
aI0
aI0
aI0
aI0
aI0
aF0.75
aF0.55000000000000004
aa(lp273
I-1
aI0
aI0
aI0
aI0
aI0
aI0
aF0.94999999999999996
aF0.55000000000000004
aa(lp274
I-1
aI0
aI0
aI0
aI0
aI0
aI0
aF0.65000000000000002
aF0.0
aa(lp275
I-1
aI0
aI0
aI0
aI0
aI0
aI0
aF0.55000000000000004
aF0.20000000000000001
aa(lp276
I-1
aI0
aI0
aI0
aI0
aI0
aI0
aF0.40000000000000002
aF0.10000000000000001
aa(lp277
I-1
aI0
aI0
aI0
aI0
aI0
aI0
aF0.84999999999999998
aF0.0
aa(lp278
I-1
aI0
aI0
aI0
aI0
aI0
aI0
aF0.75
aF0.0
aa(lp279
I-1
aI0
aI0
aI0
aI0
aI0
aI0
aF0.90000000000000002
aF0.20000000000000001
aa(lp280
I-1
aI0
aI0
aI0
aI0
aI0
aI0
aF0.55000000000000004
aF0.050000000000000003
aa(lp281
I-1
aI0
aI0
aI0
aI0
aI0
aI0
aF0.25
aF0.0
aa(lp282
I-1
aI0
aI0
aI0
aI0
aI0
aI0
aF0.90000000000000002
aF0.40000000000000002
aa(lp283
I-1
aI0
aI0
aI0
aI0
aI0
aI0
aF0.84999999999999998
aF0.20000000000000001
aa(lp284
I-1
aI0
aI0
aI0
aI0
aI0
aI0
aF0.29999999999999999
aF0.0
aa(lp285
I-1
aI0
aI0
aI0
aI0
aI0
aI0
aF0.20000000000000001
aF0.050000000000000003
aa(lp286
I-1
aI0
aI0
aI0
aI0
aI0
aI0
aF0.65000000000000002
aF0.34999999999999998
aa(lp287
I-1
aI0
aI0
aI0
aI0
aI0
aI0
aF0.55000000000000004
aF0.25
aa(lp288
I-1
aI0
aI0
aI0
aI0
aI0
aI0
aF0.84999999999999998
aF0.29999999999999999
aa(lp289
I-1
aI0
aI0
aI0
aI0
aI0
aI0
aF0.90000000000000002
aF0.34999999999999998
aa(lp290
I-1
aI0
aI0
aI0
aI0
aI0
aI0
aF0.84999999999999998
aF0.20000000000000001
aa(lp291
I-1
aI0
aI0
aI0
aI0
aI0
aI0
aF0.90000000000000002
aF0.40000000000000002
aa(lp292
I-1
aI0
aI0
aI0
aI0
aI0
aI0
aF0.75
aF0.5
aa(lp293
I-1
aI0
aI0
aI0
aI0
aI0
aI0
aF0.55000000000000004
aF0.20000000000000001
aa(lp294
I-1
aI0
aI0
aI0
aI0
aI0
aI0
aF0.59999999999999998
aF0.0
aa(lp295
I-1
aI0
aI0
aI0
aI0
aI0
aI0
aF0.59999999999999998
aF0.10000000000000001
aa(lp296
I-1
aI0
aI0
aI0
aI0
aI0
aI0
aF0.5
aF0.25
aa(lp297
I-1
aI0
aI0
aI0
aI0
aI0
aI0
aF0.65000000000000002
aF0.29999999999999999
aa(lp298
I-1
aI0
aI0
aI0
aI0
aI0
aI0
aF0.94999999999999996
aF0.34999999999999998
aa(lp299
I-1
aI0
aI0
aI0
aI0
aI0
aI0
aF0.69999999999999996
aF0.29999999999999999
aa(lp300
I-1
aI0
aI0
aI0
aI0
aI0
aI0
aF0.59999999999999998
aF0.29999999999999999
aa(lp301
I-1
aI0
aI0
aI0
aI0
aI0
aI0
aF0.45000000000000001
aF0.0
aa(lp302
I-1
aI0
aI0
aI0
aI0
aI0
aI0
aF0.59999999999999998
aF0.10000000000000001
aa(lp303
I-1
aI0
aI0
aI0
aI0
aI0
aI0
aF0.25
aF0.0
aa(lp304
I-1
aI0
aI0
aI0
aI0
aI0
aI0
aF0.94999999999999996
aF0.29999999999999999
aa(lp305
I-1
aI0
aI0
aI0
aI0
aI0
aI0
aF0.59999999999999998
aF0.25
aa(lp306
I-1
aI0
aI0
aI0
aI0
aI0
aI0
aF0.90000000000000002
aF0.10000000000000001
aa(lp307
I-1
aI0
aI0
aI0
aI0
aI0
aI0
aF0.34999999999999998
aF0.0
aa(lp308
I-1
aI0
aI0
aI0
aI0
aI0
aI0
aF0.29999999999999999
aF0.050000000000000003
aa(lp309
I-1
aI0
aI0
aI0
aI0
aI0
aI0
aF0.94999999999999996
aF0.20000000000000001
aa(lp310
I-1
aI0
aI0
aI0
aI0
aI0
aI0
aF0.40000000000000002
aF0.10000000000000001
aa(lp311
I-1
aI0
aI0
aI0
aI0
aI0
aI0
aF0.94999999999999996
aF0.10000000000000001
aa(lp312
I-1
aI0
aI0
aI0
aI0
aI0
aI0
aF0.59999999999999998
aF0.050000000000000003
aa(lp313
I-1
aI0
aI0
aI0
aI0
aI0
aI0
aF0.90000000000000002
aF0.40000000000000002
aa(lp314
I-1
aI0
aI0
aI0
aI0
aI0
aI0
aF0.55000000000000004
aF0.14999999999999999
aa(lp315
I-1
aI0
aI0
aI0
aI0
aI0
aI0
aF1.0
aF0.050000000000000003
aa(lp316
I-1
aI0
aI0
aI0
aI0
aI0
aI0
aF1.0
aF0.0
aa(lp317
I-1
aI0
aI0
aI0
aI0
aI0
aI0
aF0.75
aF0.29999999999999999
aa(lp318
I-1
aI0
aI0
aI0
aI0
aI0
aI0
aF0.84999999999999998
aF0.45000000000000001
aa(lp319
I-1
aI0
aI0
aI0
aI0
aI0
aI0
aF0.59999999999999998
aF0.14999999999999999
aa(lp320
I-1
aI0
aI0
aI0
aI0
aI0
aI0
aF0.75
aF0.050000000000000003
aa(lp321
I-1
aI0
aI0
aI0
aI0
aI0
aI0
aF0.84999999999999998
aF0.45000000000000001
aa(lp322
I-1
aI0
aI0
aI0
aI0
aI0
aI0
aF0.69999999999999996
aF0.0
aa(lp323
I-1
aI0
aI0
aI0
aI0
aI0
aI0
aF1.0
aF0.29999999999999999
aa(lp324
I-1
aI0
aI0
aI0
aI0
aI0
aI0
aF0.55000000000000004
aF0.10000000000000001
aa(lp325
I-1
aI0
aI0
aI0
aI0
aI0
aI0
aF0.84999999999999998
aF0.14999999999999999
aa(lp326
I-1
aI0
aI0
aI0
aI0
aI0
aI0
aF0.84999999999999998
aF0.29999999999999999
aa(lp327
I-1
aI0
aI0
aI0
aI0
aI0
aI0
aF1.0
aF0.40000000000000002
aa(lp328
I-1
aI0
aI0
aI0
aI0
aI0
aI0
aF0.69999999999999996
aF0.050000000000000003
aa(lp329
I-1
aI0
aI0
aI0
aI0
aI0
aI0
aF0.75
aF0.14999999999999999
aa(lp330
I-1
aI0
aI0
aI0
aI0
aI0
aI0
aF0.65000000000000002
aF0.20000000000000001
aa(lp331
I-1
aI0
aI0
aI0
aI0
aI0
aI0
aF0.69999999999999996
aF0.29999999999999999
aa(lp332
I-1
aI0
aI0
aI0
aI0
aI0
aI0
aF0.5
aF0.0
aa(lp333
I-1
aI0
aI0
aI0
aI0
aI0
aI0
aF0.40000000000000002
aF0.14999999999999999
aa(lp334
I-1
aI0
aI0
aI0
aI0
aI0
aI0
aF0.25
aF0.10000000000000001
aa(lp335
I-1
aI0
aI0
aI0
aI0
aI0
aI0
aF0.34999999999999998
aF0.14999999999999999
aa(lp336
I-1
aI0
aI0
aI0
aI0
aI0
aI0
aF1.0
aF0.10000000000000001
aa(lp337
I-1
aI0
aI0
aI0
aI0
aI0
aI0
aF0.20000000000000001
aF0.0
aa(lp338
I-1
aI0
aI0
aI0
aI0
aI0
aI0
aF0.59999999999999998
aF0.29999999999999999
aa(lp339
I-1
aI0
aI0
aI0
aI0
aI0
aI0
aF0.5
aF0.050000000000000003
aa(lp340
I-1
aI0
aI0
aI0
aI0
aI0
aI0
aF0.40000000000000002
aF0.14999999999999999
aa(lp341
I-1
aI0
aI0
aI0
aI0
aI0
aI0
aF0.94999999999999996
aF0.29999999999999999
aa(lp342
I-1
aI0
aI0
aI0
aI0
aI0
aI0
aF0.65000000000000002
aF0.25
aa(lp343
I-1
aI0
aI0
aI0
aI0
aI0
aI0
aF0.65000000000000002
aF0.0
aa(lp344
I-1
aI0
aI0
aI0
aI0
aI0
aI0
aF0.59999999999999998
aF0.20000000000000001
aa(lp345
I-1
aI0
aI0
aI0
aI0
aI0
aI0
aF0.45000000000000001
aF0.29999999999999999
aa(lp346
I-1
aI0
aI0
aI0
aI0
aI0
aI0
aF0.34999999999999998
aF0.14999999999999999
aa(lp347
I-1
aI0
aI0
aI0
aI0
aI0
aI0
aF0.45000000000000001
aF0.050000000000000003
aa(lp348
I-1
aI0
aI0
aI0
aI0
aI0
aI0
aF1.0
aF0.20000000000000001
aa(lp349
I-1
aI0
aI0
aI0
aI0
aI0
aI0
aF0.59999999999999998
aF0.10000000000000001
aa(lp350
I-1
aI0
aI0
aI0
aI0
aI0
aI0
aF0.55000000000000004
aF0.14999999999999999
aa(lp351
I-1
aI0
aI0
aI0
aI0
aI0
aI0
aF1.0
aF0.050000000000000003
aa(lp352
I-1
aI0
aI0
aI0
aI0
aI0
aI0
aF0.55000000000000004
aF0.050000000000000003
aa(lp353
I-1
aI0
aI0
aI0
aI0
aI0
aI0
aF0.45000000000000001
aF0.14999999999999999
aa(lp354
I-1
aI0
aI0
aI0
aI0
aI0
aI0
aF0.84999999999999998
aF0.050000000000000003
aa(lp355
I-1
aI0
aI0
aI0
aI0
aI0
aI0
aF0.84999999999999998
aF0.34999999999999998
aa(lp356
I-1
aI0
aI0
aI0
aI0
aI0
aI0
aF1.0
aF0.45000000000000001
aa(lp357
I-1
aI0
aI0
aI0
aI0
aI0
aI0
aF0.90000000000000002
aF0.10000000000000001
aa(lp358
I-1
aI0
aI0
aI0
aI0
aI0
aI0
aF0.5
aF0.14999999999999999
aa(lp359
I-1
aI0
aI0
aI0
aI0
aI0
aI0
aF0.5
aF0.0
aa(lp360
I-1
aI0
aI0
aI0
aI0
aI0
aI0
aF0.94999999999999996
aF0.59999999999999998
aa(lp361
I-1
aI0
aI0
aI0
aI0
aI0
aI0
aF0.55000000000000004
aF0.10000000000000001
aa(lp362
I-1
aI0
aI0
aI0
aI0
aI0
aI0
aF0.59999999999999998
aF0.0
aa(lp363
I-1
aI0
aI0
aI0
aI0
aI0
aI0
aF0.75
aF0.10000000000000001
aa(lp364
I-1
aI0
aI0
aI0
aI0
aI0
aI0
aF0.69999999999999996
aF0.34999999999999998
aa(lp365
I-1
aI0
aI0
aI0
aI0
aI0
aI0
aF0.80000000000000004
aF0.20000000000000001
aa(lp366
I-1
aI0
aI0
aI0
aI0
aI0
aI0
aF0.75
aF0.10000000000000001
aa(lp367
I-1
aI0
aI0
aI0
aI0
aI0
aI0
aF0.94999999999999996
aF0.10000000000000001
aa(lp368
I-1
aI0
aI0
aI0
aI0
aI0
aI0
aF0.90000000000000002
aF0.0
aa(lp369
I-1
aI0
aI0
aI0
aI0
aI0
aI0
aF0.59999999999999998
aF0.10000000000000001
aa(lp370
I-1
aI0
aI0
aI0
aI0
aI0
aI0
aF0.65000000000000002
aF0.29999999999999999
aa(lp371
I-1
aI0
aI0
aI0
aI0
aI0
aI0
aF0.69999999999999996
aF0.20000000000000001
aa(lp372
I-1
aI0
aI0
aI0
aI0
aI0
aI0
aF0.90000000000000002
aF0.25
aa(lp373
I-1
aI0
aI0
aI0
aI0
aI0
aI0
aF1.0
aF0.45000000000000001
aa(lp374
I-1
aI0
aI0
aI0
aI0
aI0
aI0
aF0.75
aF0.25
aa(lp375
I-1
aI0
aI0
aI0
aI0
aI0
aI0
aF0.90000000000000002
aF0.34999999999999998
aa(lp376
I-1
aI0
aI0
aI0
aI0
aI0
aI0
aF0.59999999999999998
aF0.10000000000000001
aa(lp377
I-1
aI0
aI0
aI0
aI0
aI0
aI0
aF0.84999999999999998
aF0.0
aa(lp378
I-1
aI0
aI0
aI0
aI0
aI0
aI0
aF0.94999999999999996
aF0.25
aa(lp379
I-1
aI0
aI0
aI0
aI0
aI0
aI0
aF0.94999999999999996
aF0.050000000000000003
aa(lp380
I-1
aI0
aI0
aI0
aI0
aI0
aI0
aF0.65000000000000002
aF0.20000000000000001
aa(lp381
I-1
aI0
aI0
aI0
aI0
aI0
aI0
aF0.94999999999999996
aF0.20000000000000001
aa(lp382
I-1
aI0
aI0
aI0
aI0
aI0
aI0
aF0.90000000000000002
aF0.14999999999999999
aa(lp383
I-1
aI0
aI0
aI0
aI0
aI0
aI0
aF0.84999999999999998
aF0.29999999999999999
aa(lp384
I-1
aI0
aI0
aI0
aI0
aI0
aI0
aF0.65000000000000002
aF0.25
aa(lp385
I-1
aI0
aI0
aI0
aI0
aI0
aI0
aF0.90000000000000002
aF0.40000000000000002
aa(lp386
I-1
aI0
aI0
aI0
aI0
aI0
aI0
aF0.90000000000000002
aF0.5
aa(lp387
I-1
aI0
aI0
aI0
aI0
aI0
aI0
aF0.75
aF0.0
aa(lp388
I-1
aI0
aI0
aI0
aI0
aI0
aI0
aF0.69999999999999996
aF0.10000000000000001
aa(lp389
I-1
aI0
aI0
aI0
aI0
aI0
aI0
aF1.0
aF0.40000000000000002
aa(lp390
I-1
aI0
aI0
aI0
aI0
aI0
aI0
aF1.0
aF0.14999999999999999
aa(lp391
I-1
aI0
aI0
aI0
aI0
aI0
aI0
aF0.69999999999999996
aF0.29999999999999999
aa(lp392
I-1
aI0
aI0
aI0
aI0
aI0
aI0
aF0.69999999999999996
aF0.20000000000000001
aa(lp393
I-1
aI0
aI0
aI0
aI0
aI0
aI0
aF0.80000000000000004
aF0.10000000000000001
aa(lp394
I-1
aI0
aI0
aI0
aI0
aI0
aI0
aF0.59999999999999998
aF0.050000000000000003
aa(lp395
I-1
aI0
aI0
aI0
aI0
aI0
aI0
aF1.0
aF0.0
aa(lp396
I-1
aI0
aI0
aI0
aI0
aI0
aI0
aF0.80000000000000004
aF0.0
aa(lp397
I-1
aI0
aI0
aI0
aI0
aI0
aI0
aF0.59999999999999998
aF0.10000000000000001
aa(lp398
I-1
aI0
aI0
aI0
aI0
aI0
aI0
aF0.65000000000000002
aF0.0
aa(lp399
I-1
aI0
aI0
aI0
aI0
aI0
aI0
aF0.75
aF0.14999999999999999
aa(lp400
I-1
aI0
aI0
aI0
aI0
aI0
aI0
aF0.80000000000000004
aF0.20000000000000001
aa(lp401
I-1
aI0
aI0
aI0
aI0
aI0
aI0
aF0.69999999999999996
aF0.0
aa(lp402
I-1
aI0
aI0
aI0
aI0
aI0
aI0
aF0.90000000000000002
aF0.050000000000000003
aa(lp403
I-1
aI0
aI0
aI0
aI0
aI0
aI0
aF0.75
aF0.14999999999999999
aa(lp404
I-1
aI0
aI0
aI0
aI0
aI0
aI0
aF0.90000000000000002
aF0.050000000000000003
aa(lp405
I-1
aI0
aI0
aI0
aI0
aI0
aI0
aF0.90000000000000002
aF0.20000000000000001
aa(lp406
I-1
aI0
aI0
aI0
aI0
aI0
aI0
aF0.84999999999999998
aF0.29999999999999999
aa(lp407
I-1
aI0
aI0
aI0
aI0
aI0
aI0
aF1.0
aF0.5
aa(lp408
I-1
aI0
aI0
aI0
aI0
aI0
aI0
aF0.59999999999999998
aF0.10000000000000001
aa(lp409
I-1
aI0
aI0
aI0
aI0
aI0
aI0
aF0.84999999999999998
aF0.45000000000000001
aa(lp410
I-1
aI0
aI0
aI0
aI0
aI0
aI0
aF0.59999999999999998
aF0.050000000000000003
aa(lp411
I-1
aI0
aI0
aI0
aI0
aI0
aI0
aF0.65000000000000002
aF0.20000000000000001
aa(lp412
I-1
aI0
aI0
aI0
aI0
aI0
aI0
aF0.80000000000000004
aF0.40000000000000002
aa(lp413
I-1
aI0
aI0
aI0
aI0
aI0
aI0
aF0.65000000000000002
aF0.050000000000000003
aa(lp414
I-1
aI0
aI0
aI0
aI0
aI0
aI0
aF0.80000000000000004
aF0.0
aa(lp415
I-1
aI0
aI0
aI0
aI0
aI0
aI0
aF0.55000000000000004
aF0.20000000000000001
aa(lp416
I-1
aI0
aI0
aI0
aI0
aI0
aI0
aF0.75
aF0.25
aa(lp417
I-1
aI0
aI0
aI0
aI0
aI0
aI0
aF0.69999999999999996
aF0.0
aa(lp418
I-1
aI0
aI0
aI0
aI0
aI0
aI0
aF0.65000000000000002
aF0.29999999999999999
aa(lp419
I-1
aI0
aI0
aI0
aI0
aI0
aI0
aF0.90000000000000002
aF0.34999999999999998
aa(lp420
I-1
aI0
aI0
aI0
aI0
aI0
aI0
aF0.75
aF0.29999999999999999
aa(lp421
I-1
aI0
aI0
aI0
aI0
aI0
aI0
aF0.69999999999999996
aF0.14999999999999999
aa(lp422
I-1
aI0
aI0
aI0
aI0
aI0
aI0
aF0.59999999999999998
aF0.14999999999999999
aa(lp423
I-1
aI0
aI0
aI0
aI0
aI0
aI0
aF0.84999999999999998
aF0.34999999999999998
aa(lp424
I-1
aI0
aI0
aI0
aI0
aI0
aI0
aF0.90000000000000002
aF0.25
aa(lp425
I-1
aI0
aI0
aI0
aI0
aI0
aI0
aF1.0
aF0.5
aa(lp426
I-1
aI0
aI0
aI0
aI0
aI0
aI0
aF0.84999999999999998
aF0.20000000000000001
aa(lp427
I-1
aI0
aI0
aI0
aI0
aI0
aI0
aF0.75
aF0.25
aa(lp428
I-1
aI0
aI0
aI0
aI0
aI0
aI0
aF0.55000000000000004
aF0.0
aasS'errors'
p429
(lp430
F0.072390281046452148
aF0.13417982889952398
aF0.093472421813424467
aF0.12548604550873793
aF0.09551054629863677
aF0.059311826506807608
aF0.11771299475695921
aF0.09415410656705131
aF0.15296334229080685
aF0.11166638776865614
aF0.053762003666255609
aF0.10294616840562772
aF0.084506756641018546
aF0.064772526856233331
aF0.12367984240665228
aF0.034873410832983599
aF0.098336625894680937
aF0.085652830809457223
aF0.065737536422510914
aF0.085307640544212748
aF0.15361348377408829
aF0.036908655806644354
aF0.10042406177431326
aF0.040585209850997887
aF0.06202574910613208
aF0.087839496119934496
aF0.062992268425840298
aF0.11267015328459681
aF0.045739233905572566
aF0.15402511418380466
aF0.044862311657600962
aF0.12868367718887436
aF0.14168534852250292
aF0.045934336086963998
aF0.066813601345560511
aF0.05681490153238735
aF0.090566510323569716
aF0.056989461794342847
aF0.11157350402249004
aF0.090542191947557221
aF0.05106167042049297
aF0.042767136043667595
aF0.10323008954734719
aF0.071879099788958484
aF0.096278223837281018
aF0.042557251377496101
aF0.064708198322817725
aF0.065759429155971688
aF0.055541562535505323
aF0.076896936276827199
aF0.084621560041840765
aF0.10066761067188379
aF0.063435881272221828
aF0.052073838770324114
aF0.11159264093764582
aF0.048987190174865872
aF0.053408880014629685
aF0.088864247582251171
aF0.08198277756953333
aF0.077332394230857554
aF0.11018996794033967
aF0.11862260436203506
aF0.052958155777813362
aF0.087091485100921462
aF0.088694622366930043
aF0.057019347242638282
aF0.13960654900003044
aF0.064948778015234535
aF0.069008833405250158
aF0.11206996725882334
aF0.046545186288730847
aF0.1299012597997706
aF0.10364911440828305
aF0.1165594090375638
aF0.099354966432583569
aF0.090176214192847937
aF0.10403187856076543
aF0.092435517101294884
aF0.13739116166443774
aF0.055725077821589863
aF0.070511116243163169
aF0.11502528583151844
aF0.091129540021815836
aF0.14048044575738597
aF0.065579342580732988
aF0.074018465241435238
aF0.085741705549301078
aF0.081403583168825261
aF0.063163055657649458
aF0.09552231841392686
aF0.031265313494748759
aF0.043485555790290134
aF0.074695113993937773
aF0.10491679439749166
aF0.055920884240238958
aF0.089378863765461669
aF0.13273612477889851
aF0.11914257868916917
aF0.013245698800728224
aF0.061540663188420545
aF0.069818695533068881
aF0.10610270197933022
aF0.058475973633588904
aF0.069076836205726883
aF0.05005438461841645
aF0.14981462122337424
aF0.11283902101088371
aF0.092783355973011322
aF0.073497710835677882
aF0.076877581727027064
aF0.057781295307868401
aF0.039547933474389126
aF0.093783881063405586
aF0.037521506093012212
aF0.050938361569040455
aF0.094048311048110525
aF0.060744824243097378
aF0.049787885659134036
aF0.07666822977491064
aF0.077985395668023594
aF0.06568786866459958
aF0.087685354728432308
aF0.049689416821734042
aF0.066140625198703673
aF0.091295251501343391
aF0.12639706788687455
aF0.084158352168668807
aF0.093201750360121891
aF0.13455243362436337
aF0.05914239452066395
aF0.14937628852068746
aF0.080449956834654446
aF0.043420931238019836
aF0.059186817934335806
aF0.069369089883549395
aF0.088802510003241061
aF0.021634325892699688
aF0.081706846266073122
aF0.039703524247388933
aF0.042875170724479494
aF0.058575471495387346
aF0.17341620410149172
aF0.1219458264590908
aF0.049095892177261471
aF0.063958579866486287
aF0.075060412843530322
aF0.11418319792759313
aF0.1045733303978959
aF0.10303499811959432
aF0.059486120440776835
aF0.051761237858684125
aF0.057021652226223345
aF0.1005629152793705
aF0.063077910329002174
aF0.056694149651681444
aF0.072500748275304255
aF0.084124041818339657
aF0.1009104613755628
aF0.046177795932688379
aF0.079171570455347423
aF0.043353360629193857
aF0.09143177070356201
aF0.069317917157617592
aF0.13239296860238989
aF0.072183407230563462
aF0.045320557861200851
aF0.081211803988054443
aF0.12655100395799426
aF0.050153203028716058
aF0.094299391518574777
aF0.092343196085868398
aF0.068756344861947538
aF0.071018418557932866
aF0.099530147279639269
aF0.080465589273499977
aF0.16734576595139905
aF0.070136491009726729
aF0.080423841566326315
aF0.077758845567434426
aF0.07880023358736174
aF0.01948151789807398
aF0.036545444983041755
aF0.052942855172487244
aF0.056780983418665991
aF0.10875931689881646
aF0.05648993269132746
aF0.072621658068171863
aF0.075754213629009692
aF0.098336521660093351
aF0.074657008824917215
aF0.083911398822385963
aF0.041792212881984432
aF0.076200931443732578
aF0.079195693090202038
aF0.061631862129800555
aF0.068536480661496008
aF0.057417255892412138
aF0.085324595982561757
aF0.063131452776047203
aF0.062694938290122626
aF0.096162743675123424
aF0.090661620281771785
aF0.062142869002325317
aF0.057863797513801427
aF0.084048503278732672
aF0.095061600089476561
aF0.1119489468417745
aF0.10285250870082106
aF0.051845055804889711
aF0.042761410849686335
aF0.041258119606376965
aF0.14680605654070464
aF0.050725058910868162
aF0.11068509717279398
aF0.11528581123012503
aF0.045232433941158376
aF0.089891164177769295
aF0.068400136215908375
aF0.069398275933018866
aF0.085144928272091525
aF0.052979577792768032
aF0.072457925320488781
aF0.070879090158419894
aF0.07811899188575791
aF0.046292706541637516
aF0.067480835851061793
aF0.099672235055372094
aF0.10514649317713085
aF0.036731701461284072
aF0.040001637840752995
aF0.050531443984046055
aF0.11182698853187703
aF0.048086559814931443
aF0.20098249500647408
aF0.037738002223259924
aF0.020968985930980497
aF0.050859324569110173
aF0.046012684559342792
aF0.07586135153935758
aF0.037505212706564414
aF0.10619235495582385
aF0.11990813846889459
aF0.16491250464149787
aF0.096098907641002679
aF0.059327265105132157
aF0.046031156126235262
aF0.061619011830533775
aF0.037425378671685515
aF0.077470045234518337
aF0.039004810478809201
aF0.074184605848403307
aF0.11644996799590782
aF0.063079014876315967
aF0.047095700440411538
aF0.25352878667330664
aF0.084104069650883462
aF0.10034997392883133
aF0.050198511972772919
aF0.042783504928298952
aF0.053066552183963653
aF0.088637204297197986
aF0.048523144858292511
aF0.060391366736964248
aF0.078041866924606768
aF0.080913922357391338
aF0.064884136230132727
aF0.098299121106549897
aF0.076374787103489827
aF0.14463740218039173
aF0.075089751648780609
aF0.1127068628329992
aF0.066495312840988016
aF0.11045655997307503
aF0.05367218377488793
aF0.055453029307917033
aF0.10607892722158707
aF0.10673852761277261
aF0.039133487889427665
aF0.081417436379369768
aF0.081974066972753085
aF0.10380272748272856
aF0.063987194512359097
aF0.050574764211314474
aF0.083090604711897692
aF0.051303586393070269
aF0.085890534810934088
aF0.088255667745509983
aF0.068096702232549905
aF0.084422175090939466
aF0.091868234337818294
aF0.16822605351659053
aF0.063744045058756249
aF0.10031885988034889
aF0.068812888914814657
aF0.080620248280050849
aF0.06850286493153035
aF0.0726490348269134
aF0.10737467265409309
aF0.095898869496603395
aF0.05909910600865282
aF0.067816496865064052
aF0.077725956216425807
aF0.067854747283518549
aF0.094947870925479294
aF0.1150109291527541
aF0.08510118799810365
aF0.043599906144184013
aF0.069061450314067505
aF0.037389165843223313
aF0.085194010174914112
aF0.074363905675979683
aF0.039575500997267914
aF0.04650813800088071
aF0.037645613478481152
aF0.065636650049709006
aF0.1159413010215305
aF0.13830080455385463
aF0.064200430881751092
aF0.057823717040133449
aF0.064853836549737254
aF0.11430184449071665
aF0.087324266041721665
aF0.058477667571368054
aF0.065930916539096829
aF0.071470387701368418
aF0.036117617323772583
aF0.050942162961856143
aF0.076286131499977719
aF0.061687705401607423
aF0.12377366580367929
aF0.096236001313442648
aF0.089119359646629107
aF0.11344426248169728
aF0.05239987632774705
aF0.13812706883609926
aF0.11517314791841056
aF0.064754338132308811
aF0.0703905197456558
aF0.049668837531820706
aF0.053094207800048421
aF0.048459844510539113
aF0.12262352952587025
aF0.13983423461952821
aF0.040365108991413566
aF0.12836756483771361
aF0.043391104301069856
aF0.046165072139749991
aF0.063715156367041378
aF0.11092172508129922
aF0.084754859220457557
aF0.11716248034970547
aF0.056551031863136508
aF0.1143708310512081
aF0.090550319688070452
aF0.031403653663215403
aF0.10729623956634168
aF0.06973913654262405
aF0.10814417280704797
aF0.061196357065531212
aF0.078876136758823628
aF0.092900853318275384
aF0.045269637544352814
aF0.075957263930115704
aF0.082947520907288436
aF0.093771710051309132
aF0.12695295691729858
aF0.024722403972787778
aF0.18251870581879501
aF0.17030334299055686
aF0.027374155280250688
aF0.029615504482971712
aF0.072393391015448991
aF0.032538719334143457
aF0.021844988902673852
aF0.05848414922760687
aF0.055592335944610681
aF0.05851634595618882
aF0.047541439128000844
aF0.073609555561650067
aF0.078089315986586763
aF0.09984776174647203
aF0.13151746047604562
aF0.032663677049458051
aF0.055191789965262694
aF0.18297796541960801
aF0.15261693431848591
aF0.028397348780520658
aF0.06813989229349364
aF0.054572382226808325
aF0.058636624810053446
aF0.076648800212195223
aF0.034873703935514894
aF0.060394980857982367
aF0.076396268097287973
aF0.050346058591861587
aF0.085156300308501909
aF0.076480957225318003
aF0.12006896715055211
aF0.067202211417834529
aF0.042852421337708481
aF0.068702498724838912
aF0.11203755133049208
aF0.13783483855049455
aF0.11022176516675103
aF0.037200547303978433
aF0.041180561129024927
aF0.025013184885567495
aF0.027121517372476173
aF0.067222296168828813
aF0.10896832813306503
aF0.11949700939908754
aF0.051194567781828425
aF0.098266160697118909
aF0.078513748619872537
aF0.054196518780605801
aF0.083301930770495553
aF0.081313195010384143
aF0.09482271375899512
aF0.1113871006970808
aF0.18182856922049973
aF0.17792236753647356
aF0.16079053455064002
aF0.11831065964893303
aF0.19963375168396527
aF0.203018008478416
asS'name'
p431
S'R22FWD'
p432
sS'trace'
p433
(lp434
(I5319
F0.095573373530368252
tp435
a(I5321
F0.090276111919723026
tp436
a(I5341
F0.090346444219787797
tp437
a(I5361
F0.086974061126774901
tp438
a(I5371
F0.083263418437656042
tp439
a(I5378
F0.078004118012510532
tp440
a(I5411
F0.076604484708518814
tp441
a(I5418
F0.075227375392478299
tp442
a(I5420
F0.073369795749483532
tp443
a(I5423
F0.073103670527151512
tp444
a(I5426
F0.073281274768329435
tp445
a(I5433
F0.07232362011260686
tp446
a(I5447
F0.07111856937646184
tp447
a(I5456
F0.070206680616409528
tp448
a(I5459
F0.071531477613185471
tp449
a(I5462
F0.074491863104647185
tp450
a(I5482
F0.074010642856504535
tp451
a(I5611
F0.074232329243583819
tp452
a(I5807
F0.078492500267202947
tp453
a(I5814
F0.080839188291900801
tp454
a(I5945
F0.082474739039205158
tp455
a(I6117
F0.081010250655001101
tp456
a(I6120
F0.077398514678101368
tp457
a(I6124
F0.075257666463129244
tp458
a(I6498
F0.074733259951920109
tp459
a(I6715
F0.075358529067516042
tp460
a(I6872
F0.073544240166909622
tp461
a(I6910
F0.070043030254253263
tp462
a(I6917
F0.069879527605858513
tp463
a(I6956
F0.067657895772837304
tp464
a(I6961
F0.066739019640372876
tp465
a(I6966
F0.070495302636103624
tp466
a(I6970
F0.075380251634536127
tp467
a(I6978
F0.074974199636027042
tp468
a(I6982
F0.076986365904231177
tp469
a(I6984
F0.078391769313881407
tp470
a(I6986
F0.079526774861100602
tp471
a(I6998
F0.079839469726565485
tp472
a(I7018
F0.080514361277118751
tp473
a(I7023
F0.078125718037110353
tp474
a(I7040
F0.073961644890678996
tp475
a(I7188
F0.074201827574689738
tp476
a(I7427
F0.077221047404993332
tp477
a(I7635
F0.074749914447656454
tp478
a(I8092
F0.075047853560451253
tp479
a(I8206
F0.073180427067516401
tp480
a(I8348
F0.073858057632573221
tp481
a(I8767
F0.076531233309501498
tp482
a(I9449
F0.076452620745779395
tp483
a(I9584
F0.078915426521983204
tp484
a(I9665
F0.079966254921697247
tp485
a(I10024
F0.083529324368842237
tp486
a(I10139
F0.08477638185015815
tp487
a(I10149
F0.083727249095130199
tp488
a(I10163
F0.084278273087854128
tp489
a(I10200
F0.088318009470152642
tp490
a(I10208
F0.083120480110186912
tp491
a(I10214
F0.081413101262216223
tp492
a(I10220
F0.085329146284339505
tp493
a(I10224
F0.082189421788069164
tp494
a(I10235
F0.080562321698018718
tp495
a(I10257
F0.07923117436300002
tp496
a(I10268
F0.079008504595621629
tp497
a(I10271
F0.07978789261913985
tp498
a(I10277
F0.080678784403145284
tp499
a(I10297
F0.083048821686236285
tp500
a(I10304
F0.082696962456724921
tp501
a(I10322
F0.082908966043710897
tp502
a(I10338
F0.083684174967871103
tp503
a(I10349
F0.083241765437755147
tp504
a(I10366
F0.08693656592337369
tp505
a(I10428
F0.08578206135191517
tp506
a(I10561
F0.084258673369865936
tp507
a(I10807
F0.084034318613814718
tp508
a(I10836
F0.080792524092777429
tp509
a(I10847
F0.080261145232013859
tp510
a(I10857
F0.078461512890325755
tp511
a(I10870
F0.078252013338498821
tp512
a(I10909
F0.079898381094577697
tp513
a(I10914
F0.082734810702163597
tp514
a(I10921
F0.080194261570644534
tp515
a(I10938
F0.080892605892593325
tp516
a(I10945
F0.077867253743082218
tp517
a(I10948
F0.078494344744201611
tp518
a(I10966
F0.081193603004641263
tp519
a(I10972
F0.081695300694627673
tp520
a(I10978
F0.081214371732494073
tp521
a(I10993
F0.080259076462703097
tp522
a(I10998
F0.079251922977301464
tp523
a(I11008
F0.077619553287604226
tp524
a(I11058
F0.075502230941156809
tp525
a(I11066
F0.074901802521775862
tp526
a(I11083
F0.073126490035070671
tp527
a(I11114
F0.071305711894972867
tp528
a(I11127
F0.070860319362359314
tp529
a(I11138
F0.070509809896322301
tp530
a(I11141
F0.071840216517277192
tp531
a(I11144
F0.071502961148618815
tp532
a(I11150
F0.072574312878801603
tp533
a(I11153
F0.07384226806045327
tp534
a(I11157
F0.073347416792744646
tp535
a(I11159
F0.074546134911044892
tp536
a(I11167
F0.076502015114353894
tp537
a(I11178
F0.075915005865761567
tp538
a(I11185
F0.074083046683394105
tp539
a(I11192
F0.074713703152606642
tp540
a(I11194
F0.075153270027593908
tp541
a(I11199
F0.0765980071875378
tp542
a(I11214
F0.073615736807733867
tp543
a(I11276
F0.075707126907536268
tp544
a(I11416
F0.076756390279060643
tp545
a(I11565
F0.078627452743558979
tp546
a(I12345
F0.079490995312825732
tp547
a(I12358
F0.081438201982755434
tp548
a(I12719
F0.081899267148153626
tp549
a(I12795
F0.080543650196879854
tp550
a(I12989
F0.082371707751626833
tp551
a(I13320
F0.081632240307516715
tp552
a(I13403
F0.082447731842243716
tp553
a(I13643
F0.083195793421628708
tp554
a(I13649
F0.081874318934428661
tp555
a(I13653
F0.081333101552584303
tp556
a(I13701
F0.080184251176820653
tp557
a(I13715
F0.081344754032674535
tp558
a(I13742
F0.082875251246935455
tp559
a(I13748
F0.082729408178906019
tp560
a(I13763
F0.08104034075003741
tp561
a(I13769
F0.081163616242796693
tp562
a(I13781
F0.080917467363359669
tp563
a(I13788
F0.082685627279418417
tp564
a(I13792
F0.082464407414167606
tp565
a(I13796
F0.085497387944790684
tp566
a(I13800
F0.084539625033716329
tp567
a(I13803
F0.085921828075628093
tp568
a(I13833
F0.081788151384169755
tp569
a(I13850
F0.081349978904952672
tp570
a(I13879
F0.081094766578299393
tp571
a(I13969
F0.080786553158475952
tp572
a(I13998
F0.079197252242987265
tp573
a(I14000
F0.079307119022437811
tp574
a(I14005
F0.07937763765407356
tp575
a(I14012
F0.077765353662729603
tp576
a(I14023
F0.077750303573187948
tp577
a(I14039
F0.079204814749846836
tp578
a(I14089
F0.078416868436573015
tp579
a(I14093
F0.085279057224595153
tp580
a(I14127
F0.083906187787036832
tp581
a(I14141
F0.084864008866512353
tp582
a(I14162
F0.085252466481837777
tp583
a(I14186
F0.083976693626910418
tp584
a(I14191
F0.083318764873746093
tp585
a(I14196
F0.08427067933213131
tp586
a(I14202
F0.081349432080075737
tp587
a(I14222
F0.081154380039657567
tp588
a(I14231
F0.078487351771387007
tp589
a(I14262
F0.077856852309641067
tp590
a(I14334
F0.075915312528065521
tp591
a(I14346
F0.079456821229585819
tp592
a(I14350
F0.080321181924079624
tp593
a(I14353
F0.081973510673107264
tp594
a(I14355
F0.080237162287074199
tp595
a(I14372
F0.08014994167166424
tp596
a(I14420
F0.079574794384559389
tp597
a(I14424
F0.079668241572992085
tp598
a(I14497
F0.076961512838343391
tp599
a(I14507
F0.076348370839915233
tp600
a(I14555
F0.082676330443042248
tp601
a(I14558
F0.082591852356728571
tp602
a(I14574
F0.083050932940850405
tp603
a(I14583
F0.081708027914176903
tp604
a(I14585
F0.073166941960874754
tp605
a(I14593
F0.072752382001709665
tp606
a(I14611
F0.074435081133742254
tp607
a(I14625
F0.073763971816120821
tp608
a(I14678
F0.073495821016227161
tp609
a(I14688
F0.073787336858740296
tp610
a(I14701
F0.073813294724789869
tp611
a(I14746
F0.075151443184259245
tp612
a(I14754
F0.075584999723857446
tp613
a(I14762
F0.075862936590518751
tp614
a(I14766
F0.076895643117197141
tp615
a(I14792
F0.075827617848877787
tp616
a(I14813
F0.0719671231118542
tp617
a(I14817
F0.070766444140209175
tp618
a(I14819
F0.068328047299622566
tp619
a(I14825
F0.071439271240564983
tp620
a(I14837
F0.072832221065902439
tp621
a(I14871
F0.073020716039963462
tp622
a(I15157
F0.076858585318827236
tp623
a(I15602
F0.077670150665843096
tp624
a(I15613
F0.077871087010900147
tp625
a(I15622
F0.071905589442836787
tp626
a(I15638
F0.07409622739827236
tp627
a(I15646
F0.074101105730668276
tp628
a(I15656
F0.0758823119748855
tp629
a(I15721
F0.077644186592404671
tp630
a(I15732
F0.078489470434505368
tp631
a(I15986
F0.076769325467513153
tp632
a(I16180
F0.076408900876569139
tp633
a(I16182
F0.077556177189531589
tp634
a(I16230
F0.078212266459470992
tp635
a(I16249
F0.077612764895082564
tp636
a(I16251
F0.078190585128048246
tp637
a(I16253
F0.077588958350925177
tp638
a(I16257
F0.078211234465674295
tp639
a(I16263
F0.077270711819982671
tp640
a(I16275
F0.077662608506269992
tp641
a(I16278
F0.077974640315382968
tp642
a(I16280
F0.076050682263551564
tp643
a(I16321
F0.077597840858800671
tp644
a(I16329
F0.075972688762592361
tp645
a(I16334
F0.075478745742084324
tp646
a(I16337
F0.076479911930809996
tp647
a(I16339
F0.073512535991908684
tp648
a(I16345
F0.074121808515306697
tp649
a(I16350
F0.076761724757271901
tp650
a(I16357
F0.076959161861822944
tp651
a(I16370
F0.074962775720689601
tp652
a(I16375
F0.071946635646340296
tp653
a(I16378
F0.0689234323586842
tp654
a(I16381
F0.068713501571029359
tp655
a(I16386
F0.069509303493174676
tp656
a(I16389
F0.070240542395734726
tp657
a(I16392
F0.069419537224852931
tp658
a(I16395
F0.07226685811590397
tp659
a(I16401
F0.072977684155239031
tp660
a(I16404
F0.074433631935382716
tp661
a(I16413
F0.07386138483839759
tp662
a(I16425
F0.07431494839717899
tp663
a(I16429
F0.07526721701415387
tp664
a(I16454
F0.07657391818970484
tp665
a(I16458
F0.075412218587245408
tp666
a(I16462
F0.077426221487815874
tp667
a(I16467
F0.079003005132058671
tp668
a(I16481
F0.077459371493611276
tp669
a(I16490
F0.07736042742983712
tp670
a(I16495
F0.078722685307528975
tp671
a(I16497
F0.078465233448673302
tp672
a(I16502
F0.079217637954088899
tp673
a(I16759
F0.07869217507160356
tp674
a(I17023
F0.077508665213864791
tp675
a(I17026
F0.077084537714425694
tp676
a(I17031
F0.079003241962548709
tp677
a(I17044
F0.080906385835960618
tp678
a(I17059
F0.08302715505104985
tp679
a(I17072
F0.082142911693622617
tp680
a(I17080
F0.081555674284085333
tp681
a(I17093
F0.08236123723260709
tp682
a(I17096
F0.08183664368126696
tp683
a(I17107
F0.077213262557558365
tp684
a(I17112
F0.07637408380424944
tp685
a(I17190
F0.076514277837847644
tp686
a(I17195
F0.077856474311446169
tp687
a(I17198
F0.079673548434071997
tp688
a(I17222
F0.078982237104378475
tp689
a(I17224
F0.077768604638294936
tp690
a(I17227
F0.077726312204236758
tp691
a(I17233
F0.077542105104280612
tp692
a(I17244
F0.081230281108818123
tp693
a(I17254
F0.081760477654185579
tp694
a(I17258
F0.080588148193942194
tp695
a(I17262
F0.076880570419742167
tp696
a(I17270
F0.077376127584080384
tp697
a(I17276
F0.07458422979164589
tp698
a(I17279
F0.076402195766607783
tp699
a(I17286
F0.076010096543735847
tp700
a(I17307
F0.076530457423801754
tp701
a(I17313
F0.074230876218300046
tp702
a(I17320
F0.07408391281895263
tp703
a(I17326
F0.077158934428767964
tp704
a(I17341
F0.077256864223527261
tp705
a(I17346
F0.080115845155341703
tp706
a(I17362
F0.07982139855857176
tp707
a(I17370
F0.080906866556269594
tp708
a(I17412
F0.083892299757397204
tp709
a(I17432
F0.085164664999819853
tp710
a(I17442
F0.083688890082984232
tp711
a(I17448
F0.08149353353993774
tp712
a(I17451
F0.080433619811971321
tp713
a(I17459
F0.080058718044814084
tp714
a(I17808
F0.08061979067687558
tp715
a(I17823
F0.081722684180781546
tp716
a(I17945
F0.078836366548783288
tp717
a(I18127
F0.074329511354447514
tp718
a(I18160
F0.075748424936556424
tp719
a(I18163
F0.076070952570338871
tp720
a(I18169
F0.075983671844163811
tp721
a(I18175
F0.076466753236057103
tp722
a(I18203
F0.07718329753932468
tp723
a(I18209
F0.075942448951509769
tp724
a(I18213
F0.076242788625248872
tp725
a(I18234
F0.076815224341302557
tp726
a(I18252
F0.078789721330702223
tp727
a(I18256
F0.080085283897751408
tp728
a(I18261
F0.080102817205858864
tp729
a(I18266
F0.079739296809768975
tp730
a(I18289
F0.077120272913023535
tp731
a(I18295
F0.07573124184396221
tp732
a(I18359
F0.076609015836388655
tp733
a(I18362
F0.074345880942236431
tp734
a(I18379
F0.073155697409719528
tp735
a(I18389
F0.071039900353800492
tp736
a(I18643
F0.073818026828497918
tp737
a(I19308
F0.075620057630516546
tp738
a(I19397
F0.076567697434551038
tp739
a(I19687
F0.07568511697743964
tp740
a(I19817
F0.076815059562342886
tp741
a(I19920
F0.077811348695735028
tp742
a(I20030
F0.077120977957622724
tp743
a(I20050
F0.074609658055488262
tp744
a(I20058
F0.076393016329283719
tp745
a(I20065
F0.077418678311869202
tp746
a(I20076
F0.076923466396085993
tp747
a(I20082
F0.07877121727908247
tp748
a(I20087
F0.079420704076425139
tp749
a(I20089
F0.078968774510573381
tp750
a(I20098
F0.081648083907441701
tp751
a(I20104
F0.081581931269393879
tp752
a(I20110
F0.081669381862219281
tp753
a(I20112
F0.078497241663010822
tp754
a(I20121
F0.078724069391137755
tp755
a(I20138
F0.081456642409486191
tp756
a(I20141
F0.082815024148194444
tp757
a(I20169
F0.082732191211451866
tp758
a(I20171
F0.083546491957843041
tp759
a(I20178
F0.085059064087609548
tp760
a(I20507
F0.089191612497082975
tp761
a(I20658
F0.088571873925847519
tp762
a(I20815
F0.08845847932668241
tp763
a(I21458
F0.086745132227613181
tp764
a(I21584
F0.088991095548356547
tp765
a(I21749
F0.087554777108666867
tp766
a(I21908
F0.087164923669518751
tp767
a(I21993
F0.091009763397908366
tp768
a(I22161
F0.092039924747823937
tp769
a(I22177
F0.091766816905944085
tp770
a(I22180
F0.092723954083674953
tp771
a(I22192
F0.091586136988034472
tp772
a(I22195
F0.092901372940543847
tp773
a(I22225
F0.094348233048500013
tp774
a(I22228
F0.094818355114504996
tp775
a(I22232
F0.092478448386990916
tp776
a(I22244
F0.092387836689408337
tp777
a(I22249
F0.089923180456732754
tp778
a(I22262
F0.089062223414000871
tp779
a(I22265
F0.091296925938643095
tp780
a(I22288
F0.087884233022878552
tp781
a(I22291
F0.086724247589715642
tp782
a(I22299
F0.086589676874160373
tp783
a(I22305
F0.086367490708120082
tp784
a(I22309
F0.085469169501889847
tp785
a(I22317
F0.083028455641807497
tp786
a(I22320
F0.081512868231715052
tp787
a(I22329
F0.078905145772636937
tp788
a(I22332
F0.078745628376187538
tp789
a(I22336
F0.078113958639325839
tp790
a(I22338
F0.078228769294674178
tp791
a(I22342
F0.079760021755958685
tp792
a(I22345
F0.075886445237704173
tp793
a(I22351
F0.075648138164818357
tp794
a(I22358
F0.075722040948043454
tp795
a(I22362
F0.076701321704906192
tp796
a(I22364
F0.076862573945567364
tp797
a(I22372
F0.075740330184028745
tp798
a(I22383
F0.073605327527710665
tp799
a(I22388
F0.073184575812298786
tp800
a(I22397
F0.071742638152996002
tp801
a(I22401
F0.073855482190606073
tp802
a(I22403
F0.076866474077575853
tp803
a(I22465
F0.076701478936885253
tp804
a(I22470
F0.07839877786673162
tp805
a(I22491
F0.078145393672141558
tp806
a(I22495
F0.080114764552636566
tp807
a(I22523
F0.078607750862794826
tp808
a(I22550
F0.078736468305918572
tp809
a(I22568
F0.078141620819090776
tp810
a(I22944
F0.077543366711710485
tp811
a(I23397
F0.078929952016444135
tp812
a(I23499
F0.077817970315797208
tp813
a(I23509
F0.082260219611660898
tp814
a(I23512
F0.081821396279938161
tp815
a(I23518
F0.081575733745280252
tp816
a(I23530
F0.080872643395764665
tp817
a(I23535
F0.083095422989805184
tp818
a(I23560
F0.082447892606304821
tp819
a(I23615
F0.083773398624668621
tp820
a(I23620
F0.081901359538018359
tp821
a(I23630
F0.083002051331885374
tp822
a(I23643
F0.083497237655167686
tp823
a(I23699
F0.083375121740522432
tp824
a(I23720
F0.085169233197446237
tp825
a(I23722
F0.089450393445599949
tp826
a(I23730
F0.08754914376738189
tp827
a(I23759
F0.087110316470105295
tp828
a(I23771
F0.087688297064073564
tp829
a(I24051
F0.085347714348666823
tp830
a(I24170
F0.088537586812793431
tp831
a(I24340
F0.08776967755394656
tp832
a(I24358
F0.090617179972893924
tp833
a(I24877
F0.089999211369954604
tp834
asS'timeWindow'
p835
I10
sS'nnet'
p836
ccopy_reg
_reconstructor
p837
(cpyrobot.brain.conx
Network
p838
c__builtin__
object
p839
Ntp840
Rp841
(dp842
S'_sweeping'
p843
I0
sS'lastAutoSaveWeightsFilename'
p844
NsS'autoSaveWeightsFile'
p845
NsS'results'
p846
(lp847
sS'sharedWeights'
p848
I0
sS'connections'
p849
(lp850
(ipyrobot.brain.conx
Connection
p851
(dp852
S'wedLast'
p853
cNumeric
array_constructor
p854
((I9
I7
tp855
S'd'
p856
S'\x0e\x96\x8d\xc6\r\x88g\xbf\xf8i\x90\x84\x9b}\xb0?\x1b(\xe4\xc1&fE\xbfrW\x17nfs\xa8\xbf\x85,E\xfa\xaf\xc8\x85?\xbe\xf0\xce\xc7%\x10\x86?G8y{\xb5Q\xa7\xbf\x00\x00\x00\x00\x00\x00\x00\x00\x00\x00\x00\x00\x00\x00\x00\x00\x00\x00\x00\x00\x00\x00\x00\x00\x00\x00\x00\x00\x00\x00\x00\x00\x00\x00\x00\x00\x00\x00\x00\x00\x00\x00\x00\x00\x00\x00\x00\x00\x00\x00\x00\x00\x00\x00\x00\x00\x00\x00\x00\x00\x00\x00\x00\x00\x00\x00\x00\x00\x00\x00\x00\x00\x00\x00\x00\x00\x00\x00\x00\x00\x00\x00\x00\x00\x00\x00\x00\x00\x00\x00\x00\x00\x00\x00\x00\x00\x00\x00\x00\x00\x00\x00\x00\x00\x00\x00\x00\x00\x00\x00\x00\x00\x00\x00\x00\x00\x00\x00\x00\x00\x00\x00\x00\x00\x00\x00\x00\x00\x00\x00\x00\x00\x00\x00\x00\x00\x00\x00\x00\x00\x00\x00\x00\x00\x00\x00\x00\x00\x00\x00\x00\x00\x00\x00\x00\x00\x00\x00\x00\x00\x00\x00\x00\x00\x00\x00\x00\x00\x00\x00\x00\x00\x00\x00\x00\x00\x00\x00\x00\x00\x00\x00\x00\x00\x00\x00\x00\x00\x00\x00\x00\x00\x00\x00\x00\x00\x00\x00\x00\x00\x00\x00\x00\x00\x00\x00\x00\x00\x00\x00\x00\x00\x00\x00\x00\x00\x00\x00\x00\x00\x00\x00\x00\x00\x00\x00\x00\x00\x00\x00\x00\x00\x00\x00\x00\x00\x00\x00\x00\x00\x00\x00\x00\x00\x00\x00\x00\x00\x00\x00\x00\x00\x00\x00\x00\x00\x00\x00\x00\x00\x00\x00\x00\x00\x00\x00\x00\x00\x00\x00\x00\x00\x00\x00\x00\x00\x00\x00\x00\x00\x00\x00\x00\x00\x00\x00\x00\x00\x00\x00\x00\x00\x00\x00\x00\x00\x00\x00\x00\x00\x00\x00\x00\x00\x00\x00\x00\x00\x00\x00\x00\x00\x00\x00\x00\x00\x00\x00\x00\x00\x00\x00\x00\x00\x00\x00\x00\x00\x00\x00\x00\x00\x00\x00\x00\x00\xaa\xbe\x9b\x8du\xe2Y?\xc4\xa7k\xab\xc4#\xa2\xbfQ_\xe1n\xf7\x897?\x98F\xb3\x12W\xe5\x9a?\xf9\xb0\xe5,[\xf6w\xbf\xd2\x08\xca[\xf6Dx\xbfO$\xd2\x07\xae\xa6\x99?\x00\x00\x00\x00\x00\x00\x00\x00\x00\x00\x00\x00\x00\x00\x00\x00\x00\x00\x00\x00\x00\x00\x00\x00\x00\x00\x00\x00\x00\x00\x00\x00\x00\x00\x00\x00\x00\x00\x00\x00\x00\x00\x00\x00\x00\x00\x00\x00\x00\x00\x00\x00\x00\x00\x00\x00'
p857
I1
tp858
Rp859
sS'weight'
p860
g854
((I9
I7
tp861
g856
S"t\x1b.\xcd\x95L\xd1?\x94B\n\x8f\x8f#\xaf?\x13\xefla\x15o\xd0\xbf\x02\xa8b<\xbc\xf9\xbd\xbf\xbb\x86\x04_\xbc\xbc\x9d\xbf\x1b\x8f\xa5\x83\xae\xe9\xdd?\\-\x1b\xa0;\xa6\xaa\xbf\x94:\x98\xca\xdd\x7f\xa0?(\xd6\x04\xe1E\xa3\x9a\xbf\xdd\x0f\xfc4\x89\x7f\xa3\xbf\x8dw\xcf^\xea\xc2\xa9\xbf'\xc5}\x9b\xa7\xb0\xa7\xbf\xd4\xa5l\xee\xbd\xe6\x96\xbfH\xfaQ\xb4\xc0H\xa7?\xe4\xca\xcbhb\x12\xac?Z\x0f\x1a\xbc\x9c\xde\xb5\xbf\xea\x8ab]%5\xb4?\x80\xc0\xd1\xc5\xba\x18\xa5\xbf\x88\xe0y\xa5\r\xef\x9b?\xfe\x8bR\x0f\xf3\xd1\xb3?*E\x912\nr\xa5\xbf\xc7\xe7W\xf5\x9a\xe3\xa8\xbf\xf4\xb6\xea\x9d\xf4\xc7\xa7\xbfXTW\xe5+\x0f\x90\xbfh\xbf\xb9\x8b@\xde\xaa?\r\x89-\x84\x1b^\xb0\xbf\x02\x8b\xbf!H\xd9\xb0\xbf\xaa\xe5\xcb\xc5\xa6\xb7\xab\xbf\xe0#\xaa\xca\x80\xd2\xa0?l4F\xd4\xe6\xa5\xb3\xbf\xa4\x1c\x16\xf3\xb6\x02\xae\xbf\x1a\xfbB\x9fTu\xb1\xbf\x14i\xd5b(G\x90?\x96\xbd\x7f\x82_\x92\xb7?\xe0H\xd4.+Wx?\xec\x15\x05Sg\t\xb8\xbf\x98\xcf/\xffS`\x8b\xbf\xb2\x9ev\xb4\x03\x15\xb6?\xce\xd1\x05\x85R\xe0\xb3?\x92|\xe2\x99\x89\x0c\xb0?\xc4\x91\x1f\xf7\x1b\x07\xab?\x94\x08+B\xe8t\x9b\xbflE\xf5\xa4\xe8\xfa\x9f\xbf\xe4T\xa0%P\xfd\xad\xbf6\xc8\xca\xc6`J\xb4?`\xae\x89\xc4{\x1e\x9d?\xc6\xfc\xc9\x02\xbc\x15\xa1\xbf@C\xa4\x0c\\\xd8\xb5?\xe0\xeff);\xf3\xa3?\x82\x9f\x01\x04Z\xe4\xc3\xbfP V\xf6\x87\x8ev?j\x8c\x92\\\xe6\x02\x9b?PD1(\x1f'\x9d\xbf\xee\x82\xe9\xa2\xcd\xe6\x90\xbf$\xc0p/X\xb4\xd9\xbfl\x94\x8cL\xce\x84c?B)\xf2a\xad\xd9\xae?\x8aZd\x00\xbfC\x85\xbf@\xd9}4\x0b\x05\xb9?\x9a\x1f\xd9\xdd\xf9K\x90\xbfd+#\xb0\xac\xe5\xa9?1\xeeg}\xf8\xfa\xa6\xbf\xea\x16\xdbR\xcb\xf2\xab?"
p862
I1
tp863
Rp864
sS'wed'
p865
g854
((I9
I7
tp866
g856
S'\x00\x00\x00\x00\x00\x00\x00\x80\x00\x00\x00\x00\x00\x00\x00\x00\x00\x00\x00\x00\x00\x00\x00\x80\x00\x00\x00\x00\x00\x00\x00\x80\x00\x00\x00\x00\x00\x00\x00\x00\x00\x00\x00\x00\x00\x00\x00\x00\x00\x00\x00\x00\x00\x00\x00\x80\x00\x00\x00\x00\x00\x00\x00\x00\x00\x00\x00\x00\x00\x00\x00\x00\x00\x00\x00\x00\x00\x00\x00\x00\x00\x00\x00\x00\x00\x00\x00\x00\x00\x00\x00\x00\x00\x00\x00\x00\x00\x00\x00\x00\x00\x00\x00\x00\x00\x00\x00\x00\x00\x00\x00\x00\x00\x00\x00\x00\x00\x00\x00\x00\x00\x00\x00\x00\x00\x00\x00\x00\x00\x00\x00\x00\x00\x00\x00\x00\x00\x00\x00\x00\x00\x00\x00\x00\x00\x00\x00\x00\x00\x00\x00\x00\x00\x00\x00\x00\x00\x00\x00\x00\x00\x00\x00\x00\x00\x00\x00\x00\x00\x00\x00\x00\x00\x00\x00\x00\x00\x00\x00\x00\x00\x00\x00\x00\x00\x00\x00\x00\x00\x00\x00\x00\x00\x00\x00\x00\x00\x00\x00\x00\x00\x00\x00\x00\x00\x00\x00\x00\x00\x00\x00\x00\x00\x00\x00\x00\x00\x00\x00\x00\x00\x00\x00\x00\x00\x00\x00\x00\x00\x00\x00\x00\x00\x00\x00\x00\x00\x00\x00\x00\x00\x00\x00\x00\x00\x00\x00\x00\x00\x00\x00\x00\x00\x00\x00\x00\x00\x00\x00\x00\x00\x00\x00\x00\x00\x00\x00\x00\x00\x00\x00\x00\x00\x00\x00\x00\x00\x00\x00\x00\x00\x00\x00\x00\x00\x00\x00\x00\x00\x00\x00\x00\x00\x00\x00\x00\x00\x00\x00\x00\x00\x00\x00\x00\x00\x00\x00\x00\x00\x00\x00\x00\x00\x00\x00\x00\x00\x00\x00\x00\x00\x00\x00\x00\x00\x00\x00\x00\x00\x00\x00\x00\x00\x00\x00\x00\x00\x00\x00\x00\x00\x00\x00\x00\x00\x00\x00\x00\x00\x00\x00\x00\x00\x00\x00\x00\x00\x00\x00\x00\x00\x00\x00\x00\x00\x00\x00\x00\x00\x00\x00\x00\x00\x00\x00\x00\x00\x00\x00\x00\x00\x00\x00\x00\x00\x00\x00\x00\x00\x00\x00\x00\x00\x00\x00\x00\x00\x00\x00\x00\x00\x00\x00\x00\x00\x00\x00\x80\x00\x00\x00\x00\x00\x00\x00\x00\x00\x00\x00\x00\x00\x00\x00\x00\x00\x00\x00\x00\x00\x00\x00\x80\x00\x00\x00\x00\x00\x00\x00\x80\x00\x00\x00\x00\x00\x00\x00\x00\x00\x00\x00\x00\x00\x00\x00\x00\x00\x00\x00\x00\x00\x00\x00\x00\x00\x00\x00\x00\x00\x00\x00\x00\x00\x00\x00\x00\x00\x00\x00\x00\x00\x00\x00\x00\x00\x00\x00\x00\x00\x00\x00\x00\x00\x00\x00\x00\x00\x00\x00\x00\x00\x00\x00\x00'
p867
I1
tp868
Rp869
sS'frozen'
p870
I0
sS'fromLayer'
p871
(ipyrobot.brain.conx
Layer
p872
(dp874
g860
g854
((I9
tp875
g856
S'\x8a\xd8\x0c\x13/\xb5\xb4?\x90\x109\xb7\x0f\xba\x8c?\xb8\x84\x1c\x92\xc2,\xa5?\xd6u\xd6z;\xec\xb0\xbf\xc0\x9ap\x89\xdd;\x84?\xe0lJc\x98\xdd\xa8\xbf\x04=\x18\xb79\xdf\xae\xbfx\x1e\xc0\x9f/\x8d\x97\xbf\x18$\xdf\xa9\xa5o\xb2?'
p876
I1
tp877
Rp878
sS'maxTarget'
p879
F1.0
sS'displayWidth'
p880
I9
sS'size'
p881
I9
sS'log'
p882
I0
sg865
g854
((I9
tp883
S'f'
p884
S'\x00\x00\x00\x00\x00\x00\x00\x00\x00\x00\x00\x00\x00\x00\x00\x00\x00\x00\x00\x00\x00\x00\x00\x00\x00\x00\x00\x00\x00\x00\x00\x00\x00\x00\x00\x00'
p885
I1
tp886
Rp887
sS'ptotal'
p888
I0
sS'_verbosity'
p889
I0
sS'activationSet'
p890
I0
sS'minTarget'
p891
F0.0
sS'minActivation'
p892
F0.0
sS'netinput'
p893
g854
((I9
tp894
g884
S'\x00\x00\x00\x00\x00\x00\x00\x00\x00\x00\x00\x00\x00\x00\x00\x00\x00\x00\x00\x00\x00\x00\x00\x00\x00\x00\x00\x00\x00\x00\x00\x00\x00\x00\x00\x00'
p895
I1
tp896
Rp897
sS'type'
p898
S'Input'
p899
sS'correct'
p900
I0
sS'maxActivation'
p901
F1.0
sS'activation'
p902
g854
((I9
tp903
g856
S'\x00\x00\x00\x00\x00\x00\xf0\xbf\x00\x00\x00\x00\x00\x00\x00\x00\x00\x00\x00\x00\x00\x00\x00\x00\x00\x00\x00\x00\x00\x00\x00\x00\x00\x00\x00\x00\x00\x00\x00\x00\x00\x00\x00\x00\x00\x00\x00\x00\x00\x00\x00\x00\x00\x00\x00\x00\x9a\x99\x99\x99\x99\x99\xe1?\x00\x00\x00\x00\x00\x00\x00\x00'
p904
I1
tp905
Rp906
sS'error'
p907
g854
((I9
tp908
g856
S'\x80b\x9e\xca\xc1\xed\xe4?\xd1#e$d\xc3t?GCe\xbc\xd4-\xae\xbf\xe9"\xd0p\xa0\xa0\xb6?[\xeew\x9f\x18a\xc2\xbf\xcb\xb5J\x0c\x1bQ\x98?B\xe1\xe8s\x9a\xa1\x89\xbf\x038,!\xd0\xab\xd7\xbf\x1c"\x9a\xd3\xfc\x81\xb6\xbf'
p909
I1
tp910
Rp911
sS'kind'
p912
g899
sS'delta'
p913
g854
((I9
tp914
g884
S'\x00\x00\x00\x00\x00\x00\x00\x00\x00\x00\x00\x00\x00\x00\x00\x00\x00\x00\x00\x00\x00\x00\x00\x00\x00\x00\x00\x00\x00\x00\x00\x00\x00\x00\x00\x00'
p915
I1
tp916
Rp917
sS'active'
p918
I1
sS'targetSet'
p919
I0
sg431
S'input'
p920
sS'_maxRandom'
p921
F0.10000000000000001
sS'pcorrect'
p922
I0
sg853
g854
((I9
tp923
g884
S'\x00\x00\x00\x00\x00\x00\x00\x00\x00\x00\x00\x00\x00\x00\x00\x00\x00\x00\x00\x00\x00\x00\x00\x00\x00\x00\x00\x00\x00\x00\x00\x00\x00\x00\x00\x00'
p924
I1
tp925
Rp926
sS'target'
p927
g854
((I9
tp928
g884
S'\x00\x00\x00\x00\x00\x00\x00\x00\x00\x00\x00\x00\x00\x00\x00\x00\x00\x00\x00\x00\x00\x00\x00\x00\x00\x00\x00\x00\x00\x00\x00\x00\x00\x00\x00\x00'
p929
I1
tp930
Rp931
sg870
I0
sS'dweight'
p932
g854
((I9
tp933
g884
S'\x00\x00\x00\x00\x00\x00\x00\x00\x00\x00\x00\x00\x00\x00\x00\x00\x00\x00\x00\x00\x00\x00\x00\x00\x00\x00\x00\x00\x00\x00\x00\x00\x00\x00\x00\x00'
p934
I1
tp935
Rp936
sS'verify'
p937
I1
sS'logFile'
p938
S''
p939
sS'patternReport'
p940
I0
sbsS'toLayer'
p941
(ipyrobot.brain.conx
Layer
p942
(dp943
g860
g854
((I7
tp944
g856
S'\xcec\xf5\x8d3%\xcc\xbf\xb0\x89\xd8\x11\xbch\xc1\xbf\xf0)e\xf5y\xea\xd9?L\x94\xf4\xbc\x95\xd7\x80?\xf75\xfb\nJw\xb6\xbf\xd9\xc0\x96\xfe\x10"\xe4\xbf\xca\xed\xeb\x8b\xa7\n\xc4?'
p945
I1
tp946
Rp947
sg879
F1.0
sg880
I7
sg881
I7
sg882
I0
sg865
g854
((I7
tp948
g856
S'\x00\x00\x00\x00\x00\x00\x00\x00\x00\x00\x00\x00\x00\x00\x00\x80\x00\x00\x00\x00\x00\x00\x00\x00\x00\x00\x00\x00\x00\x00\x00\x00\x00\x00\x00\x00\x00\x00\x00\x80\x00\x00\x00\x00\x00\x00\x00\x80\x00\x00\x00\x00\x00\x00\x00\x00'
p949
I1
tp950
Rp951
sg888
I0
sg889
I0
sg890
I0
sg891
F0.0
sg892
F0.0
sg893
g854
((I7
tp952
g856
S'\xd0r+\xc2\xe1\x86\xe2\xbfR\x07\x9c\xe2\x9f\xa0\xbe\xbfU\x15h\x8cx\x9d\xe5?(QK\xbc\xdf\xfe\xab?\\/\x8b\x85\nq\xac\xbf\xfb58ds\xe1\xf4\xbf\x16g\xdeE\xff(\xc4?'
p953
I1
tp954
Rp955
sg898
S'Output'
p956
sg900
I0
sg901
F1.0
sg902
g854
((I7
tp957
g884
S';\xe5\xb7>[\xb4\xf0>\x82\xa8)?\xa3\x7f\x03?5\xe4\xf8>\xf7oZ>-\x0f\n?'
p958
I1
tp959
Rp960
sg907
(lp961
F0.008700117212414038
aF-0.18451797810903264
aF0.0020185676391399898
aF0.13651694315972296
aF-0.030407281476211523
aF-0.040225736983299148
aF0.13070593595504765
asg912
g956
sg913
g854
((I7
tp962
g856
S'\x0e\x96\x8d\xc6\r\x88g?\xf8i\x90\x84\x9b}\xb0\xbf\x1b(\xe4\xc1&fE?rW\x17nfs\xa8?\x85,E\xfa\xaf\xc8\x85\xbf\xbe\xf0\xce\xc7%\x10\x86\xbfG8y{\xb5Q\xa7?'
p963
I1
tp964
Rp965
sg918
I1
sg919
I0
sg431
S'output'
p966
sg921
F0.10000000000000001
sg922
I0
sg853
g854
((I7
tp967
g856
S'\x0e\x96\x8d\xc6\r\x88g?\xf8i\x90\x84\x9b}\xb0\xbf\x1b(\xe4\xc1&fE?rW\x17nfs\xa8?\x85,E\xfa\xaf\xc8\x85\xbf\xbe\xf0\xce\xc7%\x10\x86\xbfG8y{\xb5Q\xa7?'
p968
I1
tp969
Rp970
sg927
g854
((I7
tp971
g856
S"\x0e\x84\xb9O2\x8b\xd7?\xad\xd9\x9f\xe1fG\xd2?\xfa\xd5?~\x99E\xe5?\x9f\x11\xc7'M\xce\xe4?@\xf6\x1f>U*\xdd?s\x80\x99\xef\xe0'\xc6?q=\n\xd7\xa3p\xe5?"
p972
I1
tp973
Rp974
sg870
I0
sg932
g854
((I7
tp975
g856
S'\x0e\x96\x8d\xc6\r\x88W?\xf8i\x90\x84\x9b}\xa0\xbf\x1b(\xe4\xc1&f5?rW\x17nfs\x98?\x85,E\xfa\xaf\xc8u\xbf\xbe\xf0\xce\xc7%\x10v\xbfG8y{\xb5Q\x97?'
p976
I1
tp977
Rp978
sg937
I1
sg938
g939
sg940
I1
sbsg932
g854
((I9
I7
tp979
g856
S"\x0e\x96\x8d\xc6\r\x88W\xbf\xf8i\x90\x84\x9b}\xa0?\x1b(\xe4\xc1&f5\xbfrW\x17nfs\x98\xbf\x85,E\xfa\xaf\xc8u?\xbe\xf0\xce\xc7%\x10v?G8y{\xb5Q\x97\xbf\x00\x00\x00\x00\x00\x00\x00\x00\x00\x00\x00\x00\x00\x00\x00\x00\x00\x00\x00\x00\x00\x00\x00\x00\x00\x00\x00\x00\x00\x00\x00\x00\x00\x00\x00\x00\x00\x00\x00\x00\x00\x00\x00\x00\x00\x00\x00\x00\x00\x00\x00\x00\x00\x00\x00\x00\x00\x00\x00\x00\x00\x00\x00\x00\x00\x00\x00\x00\x00\x00\x00\x00\x00\x00\x00\x00\x00\x00\x00\x00\x00\x00\x00\x00\x00\x00\x00\x00\x00\x00\x00\x00\x00\x00\x00\x00\x00\x00\x00\x00\x00\x00\x00\x00\x00\x00\x00\x00\x00\x00\x00\x00\x00\x00\x00\x00\x00\x00\x00\x00\x00\x00\x00\x00\x00\x00\x00\x00\x00\x00\x00\x00\x00\x00\x00\x00\x00\x00\x00\x00\x00\x00\x00\x00\x00\x00\x00\x00\x00\x00\x00\x00\x00\x00\x00\x00\x00\x00\x00\x00\x00\x00\x00\x00\x00\x00\x00\x00\x00\x00\x00\x00\x00\x00\x00\x00\x00\x00\x00\x00\x00\x00\x00\x00\x00\x00\x00\x00\x00\x00\x00\x00\x00\x00\x00\x00\x00\x00\x00\x00\x00\x00\x00\x00\x00\x00\x00\x00\x00\x00\x00\x00\x00\x00\x00\x00\x00\x00\x00\x00\x00\x00\x00\x00\x00\x00\x00\x00\x00\x00\x00\x00\x00\x00\x00\x00\x00\x00\x00\x00\x00\x00\x00\x00\x00\x00\x00\x00\x00\x00\x00\x00\x00\x00\x00\x00\x00\x00\x00\x00\x00\x00\x00\x00\x00\x00\x00\x00\x00\x00\x00\x00\x00\x00\x00\x00\x00\x00\x00\x00\x00\x00\x00\x00\x00\x00\x00\x00\x00\x00\x00\x00\x00\x00\x00\x00\x00\x00\x00\x00\x00\x00\x00\x00\x00\x00\x00\x00\x00\x00\x00\x00\x00\x00\x00\x00\x00\x00\x00\x00\x00\x00\x00\x00\x00\x00\x00\x00\x00\x00\x00\x00\x00\x00\x00\x00\xaa\xbe\x9b\x8du\xe2I?\xc4\xa7k\xab\xc4#\x92\xbfQ_\xe1n\xf7\x89'?\x98F\xb3\x12W\xe5\x8a?\xf9\xb0\xe5,[\xf6g\xbf\xd2\x08\xca[\xf6Dh\xbfO$\xd2\x07\xae\xa6\x89?\x00\x00\x00\x00\x00\x00\x00\x00\x00\x00\x00\x00\x00\x00\x00\x00\x00\x00\x00\x00\x00\x00\x00\x00\x00\x00\x00\x00\x00\x00\x00\x00\x00\x00\x00\x00\x00\x00\x00\x00\x00\x00\x00\x00\x00\x00\x00\x00\x00\x00\x00\x00\x00\x00\x00\x00"
p980
I1
tp981
Rp982
sg918
I1
sbasS'autoSaveNetworkFile'
p983
NsS'hyperbolicError'
p984
I0
sS'seed'
p985
F1336746808.1175935
sS'learning'
p986
I1
sS'autoSaveNetworkFileFormat'
p987
S'conx'
p988
sS'sigmoid_prime_offset'
p989
F0.10000000000000001
sS'targets'
p990
(lp991
sS'targetMap'
p992
(lp993
sS'layers'
p994
(lp995
g872
ag942
asS'mu'
p996
F1.75
sg882
NsS'resetEpoch'
p997
I1
sS'decay'
p998
F0.0
sS'crossValidationCorpus'
p999
(tsS'layersByName'
p1000
(dp1001
g920
g872
sg966
g942
ssS'autoCrossValidation'
p1002
I0
sS'epoch'
p1003
I0
sS'totalEpoch'
p1004
I0
sS'crossValidationReportLayers'
p1005
(lp1006
sS'crossValidationSampleRate'
p1007
I0
sS'saveResults'
p1008
I0
sS'tolerance'
p1009
F0.40000000000000002
sS'momentum'
p1010
I0
sS'_quickprop'
p1011
I0
sg2
(lp1012
sS'lastAutoSaveNetworkFilename'
p1013
NsS'complete'
p1014
I0
sS'epsilon'
p1015
F0.5
sS'splitEpsilon'
p1016
I0
sS'_cv'
p1017
I00
sS'orderedInputs'
p1018
I0
sS'cacheLayers'
p1019
(lp1020
sg921
F0.10000000000000001
sS'echo'
p1021
I00
sS'stopPercent'
p1022
F1.0
sS'autoSaveWeightsFileFormat'
p1023
g988
sg889
I0
sS'cacheConnections'
p1024
(lp1025
sS'association'
p1026
(lp1027
sg431
S'Backprop Network'
p1028
sS'count'
p1029
I892
sS'patterned'
p1030
I0
sS'crossValidationSampleFile'
p1031
S'sample.cv'
p1032
sS'inputMap'
p1033
(lp1034
sS'currentSweepCount'
p1035
NsS'resetCount'
p1036
I1
sS'batch'
p1037
I0
sS'lastLowestTSSError'
p1038
I9223372036854775807
sS'patterns'
p1039
(dp1040
sS'reportRate'
p1041
I25
sS'resetLimit'
p1042
I1
sS'loadOrder'
p1043
(lp1044
sS'useCrossValidationToStop'
p1045
I0
sS'sweepReportRate'
p1046
NsS'interactive'
p1047
I0
sbsS'targetVectorSize'
p1048
I7
sS'smoothing'
p1049
I15
sS'inputVectorSize'
p1050
I9
sg990
(lp1051
(lp1052
F0.19710110677226389
aF0.33161946393203612
aF0.5454157280781754
aF0.43446211858191458
aF0.41715480000000016
aF0.28012079999999989
aF0.67000000000000004
aa(lp1053
F0.33751948723236846
aF0.25201377936341024
aF0.50101121938826054
aF0.49732163659560324
aF0.57157960000000008
aF0.14644599999999991
aF0.67000000000000004
aa(lp1054
F0.36374038820661109
aF0.38713149117760148
aF0.7213162556547299
aF0.58415943833551698
aF0.54815959999999997
aF0.23276320000000011
aF0.67000000000000004
aa(lp1055
F0.34029090891814001
aF0.50960440371151638
aF0.58134766682256078
aF0.34620083503098675
aF0.36386479999999999
aF0.12270208111352013
aF0.67000000000000004
aa(lp1056
F0.40069520834902672
aF0.28275142678418919
aF0.80994073930537847
aF0.55996183909771147
aF0.41683720000000013
aF0.25936440000000011
aF0.33000000000000002
aa(lp1057
F0.43220848110669297
aF0.7143174751985274
aF0.68408700787560262
aF0.5360658384770649
aF0.36608440000000009
aF0.18175039999999995
aF0.33000000000000002
aa(lp1058
F0.21287747645512581
aF0.29327734437574265
aF0.54294443094096256
aF0.49387911517652566
aF0.41624839999999991
aF0.26815040000000001
aF0.67000000000000004
aa(lp1059
F0.31218471225326139
aF0.54761319318581836
aF0.73404610605151999
aF0.47745957716256399
aF0.59386079999999986
aF0.29497919999999989
aF0.33000000000000002
aa(lp1060
F0.33333940725280697
aF0.33646911995328954
aF0.57964606128584717
aF0.48531053135034408
aF0.5754528000000001
aF0.17330000000000007
aF0.33000000000000002
aa(lp1061
F0.22414173451913691
aF0.47629560012613548
aF0.54131745095546502
aF0.36674375931057318
aF0.42811120000000003
aF0.22801679999999996
aF0.33000000000000002
aa(lp1062
F0.28878346149866285
aF0.50495526424200676
aF0.61178832221575696
aF0.59072792199186264
aF0.45494799999999991
aF0.20645999999999987
aF0.33000000000000002
aa(lp1063
F0.3397363332241381
aF0.3586909396398969
aF0.55224744842071627
aF0.36894089329995688
aF0.55010119999999996
aF0.11156199999999998
aF0.33000000000000002
aa(lp1064
F0.29465285424483412
aF0.32744905540487357
aF0.58910535712594125
aF0.46523838739242362
aF0.38044319999999987
aF0.17578679999999985
aF0.67000000000000004
aa(lp1065
F0.31824209322579761
aF0.30446552009025324
aF0.55884677833746788
aF0.4269176968145294
aF0.46651039999999994
aF0.13896879999999995
aF0.33000000000000002
aa(lp1066
F0.44215367055854365
aF0.41183603296008081
aF0.80446902933666142
aF0.52560522068740712
aF0.44754919999999992
aF0.18018999999999999
aF0.67000000000000004
aa(lp1067
F0.37256823612789697
aF0.68767676810599032
aF0.61890164998708419
aF0.48179686767170432
aF0.37436439999999999
aF0.19528679999999987
aF0.33000000000000002
aa(lp1068
F0.31922160520093368
aF0.6419698430221018
aF0.69999812208106216
aF0.45088308899036389
aF0.51565680000000003
aF0.26658159999999997
aF0.33000000000000002
aa(lp1069
F0.29722101972551135
aF0.5307483557935132
aF0.6414372293541859
aF0.5416921248703066
aF0.47086760000000005
aF0.22539039999999985
aF0.33000000000000002
aa(lp1070
F0.27323991871292685
aF0.47778124035377623
aF0.61805736640649866
aF0.49089877971218676
aF0.5447044000000002
aF0.23747702395999964
aF0.33000000000000002
aa(lp1071
F0.24273692862779406
aF0.58895854463118158
aF0.62453799566994062
aF0.40593120770854585
aF0.5226251999999999
aF0.28772599999999998
aF0.33000000000000002
aa(lp1072
F0.38695271200256121
aF0.56904876400114301
aF0.74983475473871086
aF0.42500401777879232
aF0.47894919999999991
aF0.2100691841309402
aF0.33000000000000002
aa(lp1073
F0.394111653482632
aF0.63228105465092066
aF0.74746048574152835
aF0.42147809916953455
aF0.44224800000000003
aF0.22349919999999984
aF0.67000000000000004
aa(lp1074
F0.27110412298713593
aF0.32540853256489866
aF0.49947023204086172
aF0.45982664186246974
aF0.43804960000000009
aF0.13299120000000003
aF0.67000000000000004
aa(lp1075
F0.2747223334654525
aF0.6813251684983197
aF0.5052098394858191
aF0.43915655278335297
aF0.51320399999999999
aF0.15495279999999986
aF0.67000000000000004
aa(lp1076
F0.26040892110311598
aF0.6308859412324217
aF0.62940912271080296
aF0.55938171933014158
aF0.4804544
aF0.29326040000000014
aF0.67000000000000004
aa(lp1077
F0.30882785578369648
aF0.51628631666639713
aF0.65592113048162626
aF0.35486920900648683
aF0.49177759999999998
aF0.21986080000000002
aF0.33000000000000002
aa(lp1078
F0.30224942085763246
aF0.3773539981155043
aF0.65527363783382098
aF0.51724799462565163
aF0.4590204
aF0.23570239999999992
aF0.67000000000000004
aa(lp1079
F0.44675218154996066
aF0.70327063287542191
aF0.78104200016640912
aF0.38694784271631699
aF0.38685520000000012
aF0.23418160000000016
aF0.67000000000000004
aa(lp1080
F0.36968033471563821
aF0.72613170293817719
aF0.62628858897308282
aF0.55263752861662241
aF0.40068680000000007
aF0.21712759999999989
aF0.67000000000000004
aa(lp1081
F0.24881031416385657
aF0.50031799833784163
aF0.48885102912126255
aF0.46168031948466104
aF0.44666919999999982
aF0.141094
aF0.33000000000000002
aa(lp1082
F0.37273222935895461
aF0.55787973127836321
aF0.69084986168811857
aF0.3833409142410254
aF0.47010639999999987
aF0.17108600000000002
aF0.33000000000000002
aa(lp1083
F0.36984635299663471
aF0.39690576555894347
aF0.71314605282029964
aF0.54583954353233821
aF0.56618920000000017
aF0.21825639999999993
aF0.33000000000000002
aa(lp1084
F0.32406407823727124
aF0.34258848062936809
aF0.65431056735551141
aF0.42307203592459997
aF0.51839200000000007
aF0.23107520000000009
aF0.33000000000000002
aa(lp1085
F0.34137547198522944
aF0.45378510675712036
aF0.70191465360173377
aF0.38917664853937595
aF0.39648600000000017
aF0.22254919999999992
aF0.33000000000000002
aa(lp1086
F0.24447467967067232
aF0.3947471488872985
aF0.48569909260565397
aF0.5083236995016599
aF0.5861675999999999
aF0.19778599999999996
aF0.33000000000000002
aa(lp1087
F0.23223329090560638
aF0.59668234611590876
aF0.52775425864500458
aF0.39171946706515515
aF0.38810080000000013
aF0.2740648
aF0.33000000000000002
aa(lp1088
F0.42564956024791722
aF0.50267768343828367
aF0.768027185578676
aF0.53705880616701529
aF0.47793680000000016
aF0.16657645196995113
aF0.33000000000000002
aa(lp1089
F0.29477159402649278
aF0.72610823050076445
aF0.61378463318485466
aF0.5264845517479898
aF0.46910839999999998
aF0.28555959999999986
aF0.33000000000000002
aa(lp1090
F0.27510456835110625
aF0.49315720660566742
aF0.54086404856438253
aF0.41667591707162271
aF0.54285600000000012
aF0.15499480000000004
aF0.33000000000000002
aa(lp1091
F0.14973062886099786
aF0.38865069211077879
aF0.47917337776959956
aF0.4254319854207666
aF0.38959560000000015
aF0.26742440000000017
aF0.67000000000000004
aa(lp1092
F0.51943089854871072
aF0.25697680506037168
aF0.78289107873091979
aF0.55984040387613243
aF0.59116120000000016
aF0.12872160000000007
aF0.33000000000000002
aa(lp1093
F0.40891503428111059
aF0.65197855984019171
aF0.7096494077142772
aF0.43513852709005507
aF0.45335840000000011
aF0.16653519999999986
aF0.33000000000000002
aa(lp1094
F0.37114598558440171
aF0.59161460382380326
aF0.71804858431912888
aF0.55227529196614533
aF0.42357839999999991
aF0.22079360000000001
aF0.33000000000000002
aa(lp1095
F0.39813160443561041
aF0.33450299623707558
aF0.64227922241871516
aF0.50138724961688563
aF0.59358119999999981
aF0.1423832000000001
aF0.67000000000000004
aa(lp1096
F0.39280345466241201
aF0.31817508033456432
aF0.69595811519393291
aF0.52048043151984802
aF0.56505520000000009
aF0.1983243999999999
aF0.67000000000000004
aa(lp1097
F0.27389356596301473
aF0.43109085092695665
aF0.54029974489183274
aF0.40896692909308069
aF0.44266800000000012
aF0.15312880000000001
aF0.67000000000000004
aa(lp1098
F0.24498529657481916
aF0.56146237706532531
aF0.55668436915862607
aF0.35155671717591519
aF0.39342719999999998
aF0.25369959999999986
aF0.33000000000000002
aa(lp1099
F0.24889281420795212
aF0.40078630980737023
aF0.63256468011951017
aF0.445292453304375
aF0.37328359999999988
aF0.28165319999999988
aF0.33000000000000002
aa(lp1100
F0.28262815410362374
aF0.62816511251008045
aF0.5810231187199062
aF0.5324301029570736
aF0.37728399999999984
aF0.26987039999999995
aF0.33000000000000002
aa(lp1101
F0.36441207193248443
aF0.32261351218796258
aF0.64603776933815527
aF0.51685774670519036
aF0.56175640000000016
aF0.18952600000000003
aF0.33000000000000002
aa(lp1102
F0.29699942416879793
aF0.41421310234631542
aF0.69201505516954787
aF0.65079793131797969
aF0.54070880000000021
aF0.29149519999999995
aF0.33000000000000002
aa(lp1103
F0.28605665634027921
aF0.38798096022912854
aF0.67543638247230287
aF0.52701724334251843
aF0.43205120000000008
aF0.2732987999999999
aF0.33000000000000002
aa(lp1104
F0.4065561845430456
aF0.53791762913915553
aF0.70691947050340609
aF0.54602814213990214
aF0.43738279999999996
aF0.14082000000000008
aF0.33000000000000002
aa(lp1105
F0.34867116241709767
aF0.2588092341642067
aF0.76127818377415157
aF0.5402115064347226
aF0.3896291999999999
aF0.28585279999999996
aF0.33000000000000002
aa(lp1106
F0.34157988227800234
aF0.49501419757633158
aF0.59106067185737499
aF0.4296783984574013
aF0.41971360000000002
aF0.11389880000000012
aF0.33000000000000002
aa(lp1107
F0.29682362954309977
aF0.42940892972804151
aF0.70967017045396652
aF0.59792029302512861
aF0.50362839999999987
aF0.29651159999999982
aF0.33000000000000002
aa(lp1108
F0.36236905696310029
aF0.71256139666575713
aF0.58002641844932867
aF0.530135725297461
aF0.39473720000000012
aF0.17801839999999985
aF0.67000000000000004
aa(lp1109
F0.48921508697859079
aF0.70941331076481728
aF0.83293255420769829
aF0.48971100637189191
aF0.41095240000000005
aF0.20876599999999995
aF0.67000000000000004
aa(lp1110
F0.33024748114170627
aF0.47431461732102848
aF0.68591628390750825
aF0.58474051303274566
aF0.36977639999999995
aF0.23072559999999989
aF0.33000000000000002
aa(lp1111
F0.4088747962200755
aF0.32978478000160755
aF0.69993417715128525
aF0.37075892021489548
aF0.44956120000000011
aF0.13423920000000003
aF0.67000000000000004
aa(lp1112
F0.24003314817266894
aF0.38578413092550967
aF0.56043371075833337
aF0.41108002927251169
aF0.46830280000000002
aF0.23115799999999992
aF0.67000000000000004
aa(lp1113
F0.25626266677873549
aF0.25598319794095303
aF0.61172992342776344
aF0.50253252858737496
aF0.38273159999999995
aF0.27220680000000003
aF0.33000000000000002
aa(lp1114
F0.32859906614914336
aF0.30525891292441615
aF0.59073251418955652
aF0.54490084767798219
aF0.47223840000000017
aF0.15705920000000012
aF0.67000000000000004
aa(lp1115
F0.27435610927104703
aF0.52213844914484964
aF0.56835218774071339
aF0.49187089810459206
aF0.40723960000000015
aF0.19775698559814039
aF0.33000000000000002
aa(lp1116
F0.15279168657548028
aF0.53154700262202614
aF0.50026444393860037
aF0.42737447150120306
aF0.48663759999999989
aF0.28890279999999996
aF0.33000000000000002
aa(lp1117
F0.33205802891307662
aF0.30266039356768604
aF0.6633941221012869
aF0.56193599701182317
aF0.40991239999999995
aF0.20620480000000008
aF0.67000000000000004
aa(lp1118
F0.3293560237469903
aF0.52841230417002227
aF0.69211973245302649
aF0.58463658485490655
aF0.58164599999999989
aF0.22939199999999998
aF0.33000000000000002
aa(lp1119
F0.20229310588165975
aF0.60813674796404416
aF0.49062522254317609
aF0.47917940547761501
aF0.51291720000000007
aF0.22085079999999985
aF0.67000000000000004
aa(lp1120
F0.33009885631444658
aF0.64433761408530899
aF0.61065657491888137
aF0.40097082559720065
aF0.40798079999999998
aF0.20808239999999997
aF0.33000000000000002
aa(lp1121
F0.36624062956694658
aF0.29248824921545236
aF0.72961682176462583
aF0.6107973603157506
aF0.58060679999999998
aF0.29920760000000007
aF0.33000000000000002
aa(lp1122
F0.25249814128259906
aF0.47683550941927744
aF0.55347561176821003
aF0.51864871727980333
aF0.37109759999999986
aF0.21240360000000003
aF0.33000000000000002
aa(lp1123
F0.31143045548110904
aF0.59299562157308583
aF0.62178550210988492
aF0.46273742661667761
aF0.57238599999999984
aF0.18183879999999988
aF0.67000000000000004
aa(lp1124
F0.41356080830092223
aF0.64484502437646929
aF0.76896849441274218
aF0.4246376430997949
aF0.39900319999999995
aF0.23828320000000006
aF0.67000000000000004
aa(lp1125
F0.37347216388675902
aF0.3877966533167953
aF0.69259399560737156
aF0.52793620398393093
aF0.42213479999999992
aF0.16554199999999994
aF0.67000000000000004
aa(lp1126
F0.365180791369899
aF0.71852173634165162
aF0.63940795486846835
aF0.62272936555429304
aF0.57667119999999983
aF0.14282719999999999
aF0.67000000000000004
aa(lp1127
F0.31755083144603313
aF0.3416375905430552
aF0.72892297385879101
aF0.64305408840690059
aF0.43120119999999995
aF0.28886000000000001
aF0.67000000000000004
aa(lp1128
F0.45380469066632345
aF0.717322708258185
aF0.70895258783994142
aF0.40607667532653186
aF0.4734908000000001
aF0.11529999999999987
aF0.67000000000000004
aa(lp1129
F0.2775242405999529
aF0.61999989577601977
aF0.5124847867892488
aF0.46589697054693785
aF0.54023679999999996
aF0.12819679999999992
aF0.67000000000000004
aa(lp1130
F0.31790513566553907
aF0.46693155058502034
aF0.70954691937726577
aF0.40635583309671508
aF0.59518920000000008
aF0.27864399999999989
aF0.67000000000000004
aa(lp1131
F0.35558835157413299
aF0.38210781829601004
aF0.70194139408962042
aF0.43425060166254531
aF0.58562119999999995
aF0.24208439999999989
aF0.67000000000000004
aa(lp1132
F0.45293759221872748
aF0.63817375881194249
aF0.79382401146412851
aF0.48180418879908654
aF0.40364639999999985
aF0.19775199999999984
aF0.33000000000000002
aa(lp1133
F0.32123807213275768
aF0.36986637371796827
aF0.68388564657150464
aF0.53194834094433463
aF0.48126600000000008
aF0.24345640000000018
aF0.67000000000000004
aa(lp1134
F0.26540931606199297
aF0.29364255207674467
aF0.63345853163184385
aF0.62221959227156975
aF0.3737120000000001
aF0.26675280000000007
aF0.33000000000000002
aa(lp1135
F0.16831749799661561
aF0.37315181947453696
aF0.5003446105890379
aF0.48762687239210356
aF0.49349440000000017
aF0.29496879999999981
aF0.33000000000000002
aa(lp1136
F0.35888188678942168
aF0.49905891175185957
aF0.63876373492383609
aF0.38681510749377834
aF0.46055959999999985
aF0.1326903999999999
aF0.67000000000000004
aa(lp1137
F0.38205448180438806
aF0.32656881814456895
aF0.63053303134028449
aF0.46450802535857477
aF0.54696279999999997
aF0.13721999999999995
aF0.67000000000000004
aa(lp1138
F0.32938584185642783
aF0.43343029928028115
aF0.67361113974207143
aF0.34165123182776203
aF0.3850539999999999
aF0.21030799999999986
aF0.67000000000000004
aa(lp1139
F0.30847199561373556
aF0.46684065816821663
aF0.63349496085323875
aF0.40678125425959966
aF0.56206239999999996
aF0.20776879999999984
aF0.33000000000000002
aa(lp1140
F0.38845921300458286
aF0.60223387093548486
aF0.66487454216912989
aF0.58118674230844658
aF0.41537919999999995
aF0.14826400000000001
aF0.67000000000000004
aa(lp1141
F0.20017828755006625
aF0.61924072032724209
aF0.57043609260860284
aF0.44706305204627217
aF0.59413799999999983
aF0.28845640000000011
aF0.33000000000000002
aa(lp1142
F0.46934985877049495
aF0.35827176302053088
aF0.85338868064513063
aF0.5711633231474621
aF0.41972239999999983
aF0.19247839999999988
aF0.33000000000000002
aa(lp1143
F0.26906410658130614
aF0.45457250998494664
aF0.66007544269549778
aF0.4328807550673533
aF0.39556000000000002
aF0.28416520000000001
aF0.33000000000000002
aa(lp1144
F0.24558826486721469
aF0.69943343678739434
aF0.58064920131335751
aF0.49888803954551358
aF0.58156600000000014
aF0.25394679999999992
aF0.67000000000000004
aa(lp1145
F0.20786048506778604
aF0.63989794766867758
aF0.52883427085586521
aF0.44994089172725987
aF0.54226799999999997
aF0.2515612000000001
aF0.33000000000000002
aa(lp1146
F0.41393565834903334
aF0.36125846849460752
aF0.79778284967447632
aF0.40769496278789014
aF0.50846200000000008
aF0.23119960000000006
aF0.67000000000000004
aa(lp1147
F0.31338926988905863
aF0.72149805578482962
aF0.703780768046953
aF0.6278017927455749
aF0.59094679999999999
aF0.28024559999999993
aF0.33000000000000002
aa(lp1148
F0.26918463212957594
aF0.57615683087353953
aF0.6338629789295076
aF0.53480182991902914
aF0.37748440000000016
aF0.30913232506759519
aF0.67000000000000004
aa(lp1149
F0.38891987014902557
aF0.59278981729464275
aF0.64998653020816055
aF0.58500900742174144
aF0.54755560000000014
aF0.10183399999999984
aF0.33000000000000002
aa(lp1150
F0.35657714542145824
aF0.46559677619256978
aF0.7020202592102851
aF0.58039765210059702
aF0.44673760000000018
aF0.19809680000000007
aF0.67000000000000004
aa(lp1151
F0.35203332414937094
aF0.56215838303405652
aF0.65869270674769242
aF0.51727966645932688
aF0.4833672
aF0.16711680000000015
aF0.33000000000000002
aa(lp1152
F0.31254299206330483
aF0.35005645903580601
aF0.57700156091099153
aF0.48773605268306464
aF0.4603335999999999
aF0.14897680000000016
aF0.33000000000000002
aa(lp1153
F0.19384084043515934
aF0.53928019801648508
aF0.50141328843328059
aF0.54555720266329344
aF0.53731319999999982
aF0.22728800000000007
aF0.33000000000000002
aa(lp1154
F0.34315163325289599
aF0.57390518886024822
aF0.6300391087478413
aF0.58029706617656285
aF0.46668079999999995
aF0.15674320000000003
aF0.67000000000000004
aa(lp1155
F0.34996839346721881
aF0.34121102038002749
aF0.68903898662255292
aF0.55763913185822844
aF0.38197839999999983
aF0.19579079999999999
aF0.67000000000000004
aa(lp1156
F0.30301841730262269
aF0.27862761616988402
aF0.50721800537836292
aF0.59658848446133539
aF0.44232960000000004
aF0.1111851999999999
aF0.33000000000000002
aa(lp1157
F0.32371354805426789
aF0.32522257586626646
aF0.60517089955117775
aF0.47411716420269101
aF0.43417400000000017
aF0.1605243999999999
aF0.67000000000000004
aa(lp1158
F0.41689097872259367
aF0.53077803355115338
aF0.68606942291799733
aF0.51196882516329334
aF0.41978800000000016
aF0.10703800000000001
aF0.33000000000000002
aa(lp1159
F0.31313343055551357
aF0.31697787592252202
aF0.63756469462054599
aF0.4040374230406954
aF0.47852679999999986
aF0.22524559999999988
aF0.33000000000000002
aa(lp1160
F0.40723274831320871
aF0.67345675484774359
aF0.76571543141720677
aF0.36910402711662599
aF0.4074335999999999
aF0.25492320000000002
aF0.67000000000000004
aa(lp1161
F0.35230886604347372
aF0.25346183044858106
aF0.53018104166021585
aF0.5323061212564052
aF0.58277439999999991
aF0.15628759999999992
aF0.67000000000000004
aa(lp1162
F0.36965151406386831
aF0.30529978423223947
aF0.64832200939803819
aF0.54456853215680645
aF0.56969759999999992
aF0.19734720000000011
aF0.33000000000000002
aa(lp1163
F0.34291732403998959
aF0.49290667022744084
aF0.66628966587957272
aF0.52708838560208038
aF0.46220719999999993
aF0.18230399999999988
aF0.67000000000000004
aa(lp1164
F0.32731152032990868
aF0.43018999490453497
aF0.64627466989198046
aF0.59166645869127554
aF0.56537000000000004
aF0.20356479999999982
aF0.33000000000000002
aa(lp1165
F0.32506317532889684
aF0.46614895133579071
aF0.63619827117847405
aF0.47663388131780315
aF0.43061119999999986
aF0.17786520000000011
aF0.67000000000000004
aa(lp1166
F0.32446136908433743
aF0.64956704747135596
aF0.62168381502493264
aF0.51095866873948925
aF0.50338439999999984
aF0.18673439999999991
aF0.33000000000000002
aa(lp1167
F0.46090574938354373
aF0.59618189372027008
aF0.77074140712932004
aF0.45215234966152174
aF0.48825439999999992
aF0.12791959999999988
aF0.33000000000000002
aa(lp1168
F0.36244352249673478
aF0.38519034115264078
aF0.60206144714935417
aF0.51334551542103835
aF0.51895519999999995
aF0.10725079999999991
aF0.33000000000000002
aa(lp1169
F0.36186606384509723
aF0.25797823957672106
aF0.70813492422155488
aF0.48863098092807045
aF0.47435319999999981
aF0.24437208308132022
aF0.33000000000000002
aa(lp1170
F0.26231694506129971
aF0.54621821317867503
aF0.61166647270388519
aF0.56990106529380036
aF0.45679400000000003
aF0.2516335999999999
aF0.33000000000000002
aa(lp1171
F0.3952575339508978
aF0.69291114031961354
aF0.74693452829965357
aF0.50500420485359221
aF0.56592279999999984
aF0.20257159999999991
aF0.33000000000000002
aa(lp1172
F0.39369245388329699
aF0.31872386867815977
aF0.61831865653917539
aF0.45452741887728204
aF0.59174520000000008
aF0.13308999999999999
aF0.67000000000000004
aa(lp1173
F0.44633015889934946
aF0.52472561190762335
aF0.7277942396022713
aF0.40582027671321075
aF0.59242600000000001
aF0.10022920000000006
aF0.67000000000000004
aa(lp1174
F0.35327221928281882
aF0.50365824061848985
aF0.59563443682922146
aF0.34700615904303184
aF0.37995559999999989
aF0.11158880000000018
aF0.33000000000000002
aa(lp1175
F0.26720802525248183
aF0.42076764765638153
aF0.58826583988867431
aF0.38952456124497464
aF0.43565520000000008
aF0.21067
aF0.67000000000000004
aa(lp1176
F0.35639819535001105
aF0.32481587832844738
aF0.75607488139449364
aF0.44994900862935755
aF0.51395279999999988
aF0.28888479999999994
aF0.33000000000000002
aa(lp1177
F0.29119117423684349
aF0.46502600403994415
aF0.5791859094744769
aF0.39388540668569261
aF0.52289719999999984
aF0.17146599999999984
aF0.67000000000000004
aa(lp1178
F0.32060398776465932
aF0.29901186249681083
aF0.55876582002518727
aF0.56511081981662048
aF0.36985719999999989
aF0.11093240000000008
aF0.33000000000000002
aa(lp1179
F0.42779632203333184
aF0.24284981036526326
aF0.76669797016500285
aF0.56419360987958189
aF0.58322399999999985
aF0.26653319999999991
aF0.33000000000000002
aa(lp1180
F0.33819128694638861
aF0.61123076452621172
aF0.61022707245585261
aF0.41732272276034826
aF0.58793599999999979
aF0.13251999999999989
aF0.33000000000000002
aa(lp1181
F0.35632592214066044
aF0.50971077625249916
aF0.7180912926406553
aF0.50696101487890699
aF0.43584120000000015
aF0.21961399999999998
aF0.67000000000000004
aa(lp1182
F0.29946875404668555
aF0.39118407828979757
aF0.61054825731609452
aF0.32235496821741433
aF0.40957079999999985
aF0.18743480000000012
aF0.67000000000000004
aa(lp1183
F0.46507500987219696
aF0.43280294380778839
aF0.76764402948910049
aF0.42799501662431849
aF0.39999119999999982
aF0.11074759999999984
aF0.33000000000000002
aa(lp1184
F0.37046531198027488
aF0.25184723073563087
aF0.73201069212424097
aF0.38118531969178876
aF0.36610200000000004
aF0.22070359999999986
aF0.67000000000000004
aa(lp1185
F0.3316355952739814
aF0.31782179746982953
aF0.74762608891568116
aF0.45546659219646735
aF0.36032480000000006
aF0.28055239999999981
aF0.33000000000000002
aa(lp1186
F0.31567912969646827
aF0.72749413391515494
aF0.63034783339665812
aF0.57819065050474172
aF0.55064680000000021
aF0.22043120000000016
aF0.67000000000000004
aa(lp1187
F0.27755370388832251
aF0.34586452797031131
aF0.47469549982008735
aF0.52416423183265315
aF0.53799999999999992
aF0.13241480000000011
aF0.33000000000000002
aa(lp1188
F0.30177833398404297
aF0.206857921174878
aF0.56111457073472693
aF0.45951374324435107
aF0.40091880000000019
aF0.18100839999999999
aF0.33000000000000002
aa(lp1189
F0.24874720931816435
aF0.3378378179805136
aF0.64820938537976391
aF0.59934441145591477
aF0.38612840000000015
aF0.29975799999999991
aF0.33000000000000002
aa(lp1190
F0.4149734417760253
aF0.3541264071452293
aF0.8008967703020794
aF0.58106658032641212
aF0.41868640000000001
aF0.21759759999999986
aF0.67000000000000004
aa(lp1191
F0.33699693586982077
aF0.51388291090578986
aF0.7633509992555666
aF0.61738064538180371
aF0.48213480000000003
aF0.28782400000000019
aF0.67000000000000004
aa(lp1192
F0.35879618731062607
aF0.30470592438145944
aF0.75004346938381872
aF0.50870121502667376
aF0.41211200000000014
aF0.25412679999999988
aF0.67000000000000004
aa(lp1193
F0.22028861771942265
aF0.33665540574188774
aF0.51910347384410971
aF0.4001685255290745
aF0.44735839999999988
aF0.2279008000000001
aF0.33000000000000002
aa(lp1194
F0.37562379578530863
aF0.43508288238199705
aF0.77174571735900632
aF0.46898266658360349
aF0.37083680000000002
aF0.24443279999999987
aF0.67000000000000004
aa(lp1195
F0.39798627816804244
aF0.32165756438751425
aF0.65763900342083159
aF0.43704265682920646
aF0.47408719999999993
aF0.11583520000000007
aF0.33000000000000002
aa(lp1196
F0.25173049441029632
aF0.60051529937906101
aF0.54766781124642849
aF0.47926646323148631
aF0.5532644000000001
aF0.1948167999999999
aF0.33000000000000002
aa(lp1197
F0.3888751425773479
aF0.63520424056160107
aF0.70713478751558334
aF0.42476035156091874
aF0.48393559999999985
aF0.17839519999999992
aF0.33000000000000002
aa(lp1198
F0.35760902005404704
aF0.56805378205506507
aF0.72991980155580938
aF0.40446045687943361
aF0.43849720000000014
aF0.24106039999999992
aF0.67000000000000004
aa(lp1199
F0.31927586388199142
aF0.37742508818012188
aF0.61912406341473025
aF0.52969327455566551
aF0.51200359999999989
aF0.1881219999999999
aF0.33000000000000002
aa(lp1200
F0.34124931538181613
aF0.69658109054551853
aF0.56022060369601401
aF0.54240879957904942
aF0.4482047999999999
aF0.14644359999999992
aF0.33000000000000002
aa(lp1201
F0.46203807806297598
aF0.3023535293438499
aF0.69036863411655214
aF0.62345654448928001
aF0.59827079999999988
aF0.10779560000000003
aF0.33000000000000002
aa(lp1202
F0.20684250011979002
aF0.49612391608714079
aF0.57403154759125208
aF0.57835664911038664
aF0.42239399999999988
aF0.29095639999999995
aF0.33000000000000002
aa(lp1203
F0.40329908021831112
aF0.5126831629658255
aF0.80253381886432817
aF0.40651037254645733
aF0.49997720000000001
aF0.23232433568384109
aF0.33000000000000002
aa(lp1204
F0.37278985609325299
aF0.26974628929932115
aF0.72292501750633664
aF0.48880621052041456
aF0.3706683999999999
aF0.20547040000000011
aF0.67000000000000004
aa(lp1205
F0.38058270615618695
aF0.41898175394923526
aF0.7225315381109112
aF0.43754383574500283
aF0.3637588000000001
aF0.1871468
aF0.67000000000000004
aa(lp1206
F0.26249713603918257
aF0.70588593393512933
aF0.57986625697537231
aF0.5065593078025431
aF0.50886679999999984
aF0.26523479999999999
aF0.33000000000000002
aa(lp1207
F0.27712464878934612
aF0.42294532326391093
aF0.64825309766780637
aF0.39319515169750313
aF0.37743360000000015
aF0.2589912000000002
aF0.67000000000000004
aa(lp1208
F0.26195107181958882
aF0.75258990444739271
aF0.50942769677270439
aF0.56356717602357209
aF0.54287880000000011
aF0.20404599999999995
aF0.33000000000000002
aa(lp1209
F0.33359920778061897
aF0.70509359589051002
aF0.56096166019159777
aF0.52775238002465985
aF0.42394479999999996
aF0.18210520000000016
aF0.33000000000000002
aa(lp1210
F0.32025607479570706
aF0.36629558830113818
aF0.66517723624317182
aF0.55976830668691158
aF0.59542399999999984
aF0.27450079999999988
aF0.67000000000000004
aa(lp1211
F0.27099484510523747
aF0.37216277078172516
aF0.63901404264426664
aF0.46516390287905662
aF0.44788400000000017
aF0.26332440000000013
aF0.67000000000000004
aa(lp1212
F0.37859095411259364
aF0.64812097746620378
aF0.74047310577743342
aF0.40207806653629102
aF0.50172719999999982
aF0.22546719999999992
aF0.67000000000000004
aa(lp1213
F0.46028318604876695
aF0.52788686863741885
aF0.80893842521306136
aF0.54649462527810444
aF0.48124600000000017
aF0.15967279999999989
aF0.33000000000000002
aa(lp1214
F0.26105658068043824
aF0.58029543625971525
aF0.63491359946454862
aF0.5328766917273895
aF0.56782840000000012
aF0.26593440000000007
aF0.67000000000000004
aa(lp1215
F0.28654659018853612
aF0.46206187337998195
aF0.64378825800679318
aF0.37646621647417083
aF0.50516280000000013
aF0.24084879999999984
aF0.67000000000000004
aa(lp1216
F0.35855243276177357
aF0.70970499097405371
aF0.66847508736056827
aF0.50446594283605528
aF0.40622320000000017
aF0.26225039999999994
aF0.33000000000000002
aa(lp1217
F0.31744830870955287
aF0.43234730752191908
aF0.68057384406041876
aF0.55567850211427927
aF0.54140559999999982
aF0.24508200000000002
aF0.33000000000000002
aa(lp1218
F0.39687089873696046
aF0.60752029768273341
aF0.66818121909683403
aF0.52983269428581403
aF0.49167920000000009
aF0.11900559999999985
aF0.33000000000000002
aa(lp1219
F0.37598018472013339
aF0.44668256050420679
aF0.6987111742705604
aF0.50971964750751897
aF0.50164879999999989
aF0.16984360000000009
aF0.67000000000000004
aa(lp1220
F0.48606734986058486
aF0.66679331955411814
aF0.7972034518388359
aF0.57801255612342184
aF0.44199880000000003
aF0.14759559999999999
aF0.33000000000000002
aa(lp1221
F0.29261262926884446
aF0.41572578955011147
aF0.56196427366554891
aF0.41947815815464179
aF0.50250680000000014
aF0.15734920000000016
aF0.67000000000000004
aa(lp1222
F0.11889282592986178
aF0.46065356232529275
aF0.2657333679960569
aF0.51943414692396239
aF0.40563671121746447
aF0.10684927751235769
aF0.33000000000000002
aa(lp1223
F0.33515164073033499
aF0.62680692663990745
aF0.68175768475010057
aF0.56096069552055627
aF0.41905840000000011
aF0.25573680000000004
aF0.33000000000000002
aa(lp1224
F0.40043906844987581
aF0.5569560321235475
aF0.65543945435040174
aF0.51419078732379941
aF0.42641400000000013
aF0.1043844
aF0.67000000000000004
aa(lp1225
F0.3946159138030948
aF0.34477775061503985
aF0.80404308210079489
aF0.52381488673256626
aF0.5072279999999999
aF0.27013919999999986
aF0.67000000000000004
aa(lp1226
F0.45143706518045668
aF0.56030707724648576
aF0.79990390990537996
aF0.44780009858773073
aF0.47079599999999999
aF0.1677816
aF0.33000000000000002
aa(lp1227
F0.33857955195784245
aF0.47231523792583269
aF0.6348247221180493
aF0.48015757175785784
aF0.4932044000000001
aF0.15645680000000012
aF0.67000000000000004
aa(lp1228
F0.28798333609913856
aF0.6643368725299581
aF0.64452200023436856
aF0.40717118387017481
aF0.53304960000000001
aF0.25899320000000009
aF0.33000000000000002
aa(lp1229
F0.33434624540417707
aF0.51524815952731728
aF0.65747300587378132
aF0.4790543096923448
aF0.49853160000000007
aF0.18493160000000017
aF0.67000000000000004
aa(lp1230
F0.41709902219991013
aF0.55941291211986943
aF0.7158001119377545
aF0.58431270454571449
aF0.5700868
aF0.12602960000000002
aF0.33000000000000002
aa(lp1231
F0.36664376918027897
aF0.64311287407309981
aF0.63229447257792304
aF0.49565273786234154
aF0.39511000000000002
aF0.17693760000000011
aF0.33000000000000002
aa(lp1232
F0.21684589027118545
aF0.50719588616211486
aF0.5714865802024629
aF0.52842289979990587
aF0.55720479999999983
aF0.26892519999999998
aF0.33000000000000002
aa(lp1233
F0.26552124687711948
aF0.69266368722869065
aF0.60648677413606822
aF0.44804296903088897
aF0.48320839999999982
aF0.29482742847851251
aF0.67000000000000004
aa(lp1234
F0.38508342635689635
aF0.20718476637418243
aF0.64036332676566088
aF0.41789631717525133
aF0.5718167999999999
aF0.23586120000000008
aF0.33000000000000002
aa(lp1235
F0.25880476586631029
aF0.29657845016411744
aF0.5675701486512128
aF0.53413894958105146
aF0.52109720000000015
aF0.27851800000000004
aF0.67000000000000004
aa(lp1236
F0.33260974568548135
aF0.27372851650879115
aF0.49927522991102824
aF0.42126642309522233
aF0.52398120000000004
aF0.10098880000000002
aF0.33000000000000002
aa(lp1237
F0.2925951862287644
aF0.498134378551358
aF0.56269443682782561
aF0.43704233851932028
aF0.54562999999999984
aF0.15163720000000006
aF0.33000000000000002
aa(lp1238
F0.20919415542874928
aF0.63013810760836042
aF0.58997857537379628
aF0.41185081666190576
aF0.53018880000000013
aF0.3115283549786888
aF0.33000000000000002
aa(lp1239
F0.19546050685461555
aF0.51339915314050732
aF0.5614683486095714
aF0.41410079009239587
aF0.43696160000000006
aF0.29582399999999998
aF0.33000000000000002
aa(lp1240
F0.21534570212626183
aF0.59405094596956332
aF0.55672720088040817
aF0.5626020604486629
aF0.43696160000000006
aF0.29582399999999998
aF0.33000000000000002
aa(lp1241
F0.31075968646796753
aF0.48082265458446188
aF0.58540088617088126
aF0.51876139897951257
aF0.40207839999999989
aF0.15303240000000001
aF0.33000000000000002
aa(lp1242
F0.39391509578459422
aF0.49395546913792715
aF0.68354860704496656
aF0.45137328621508688
aF0.38615640000000012
aF0.13699800000000018
aF0.33000000000000002
aa(lp1243
F0.49776568905895485
aF0.22240932402234465
aF0.88380978700171897
aF0.57103886398196424
aF0.43506840000000013
aF0.21275280000000016
aF0.33000000000000002
aa(lp1244
F0.32238265345115646
aF0.63560091010187203
aF0.614371409664491
aF0.42893625895776377
aF0.57903640000000001
aF0.16197599999999995
aF0.33000000000000002
aa(lp1245
F0.39919186247169475
aF0.60075191695526298
aF0.68320542498581571
aF0.5193376990284484
aF0.41633439999999988
aF0.14963399999999999
aF0.67000000000000004
aa(lp1246
F0.44055352312655904
aF0.43191895126707608
aF0.72735867044457803
aF0.37949461673132345
aF0.51945839999999988
aF0.11050240000000003
aF0.33000000000000002
aa(lp1247
F0.39205687670444556
aF0.63054506201224958
aF0.73966937173693059
aF0.49029717402729933
aF0.44738919999999993
aF0.21634239999999991
aF0.33000000000000002
aa(lp1248
F0.3645715002888687
aF0.60570089889460266
aF0.77393042689130209
aF0.52139971047114675
aF0.47499840000000015
aF0.27519039999999995
aF0.33000000000000002
aa(lp1249
F0.4048160489159946
aF0.64043898418359502
aF0.65179989957680817
aF0.53916601761355198
aF0.43963360000000018
aF0.11567560000000014
aF0.67000000000000004
aa(lp1250
F0.4065949966293475
aF0.49167529119389608
aF0.78798165611510917
aF0.580537708450518
aF0.4105684
aF0.21871839999999984
aF0.67000000000000004
aa(lp1251
F0.38806623834803589
aF0.64323896798722235
aF0.66013948293894842
aF0.47403010644881988
aF0.49458759999999985
aF0.13184639999999986
aF0.67000000000000004
aa(lp1252
F0.31957780748078207
aF0.54241299635245888
aF0.67428017264405748
aF0.4658807367427425
aF0.52571159999999995
aF0.22263759999999982
aF0.67000000000000004
aa(lp1253
F0.24797664875543096
aF0.44704367213050344
aF0.58485959125204656
aF0.55516124854923055
aF0.38129999999999986
aF0.24038520000000005
aF0.33000000000000002
aa(lp1254
F0.43220723679143397
aF0.4050588466087337
aF0.72977518502508365
aF0.55167989332403844
aF0.51193160000000015
aF0.12795759999999987
aF0.67000000000000004
aa(lp1255
F0.27598470872230035
aF0.61362745246334072
aF0.63473950410271485
aF0.38500615241059577
aF0.43054920000000008
aF0.2900404000000002
aF0.67000000000000004
aa(lp1256
F0.41353984302672631
aF0.46625002812746102
aF0.76826570796361193
aF0.42622776013622604
aF0.54814240000000003
aF0.18919400000000017
aF0.67000000000000004
aa(lp1257
F0.27241951295557926
aF0.541894745637584
aF0.53813193331144016
aF0.37232500485491987
aF0.45495839999999993
aF0.16280959999999994
aF0.33000000000000002
aa(lp1258
F0.4528756516640135
aF0.49732373985385686
aF0.78614841465297336
aF0.39254961924832249
aF0.49937159999999992
aF0.14568879999999992
aF0.33000000000000002
aa(lp1259
F0.26203800738688066
aF0.55401743727841291
aF0.54839834056353776
aF0.38892677527872149
aF0.53141120000000019
aF0.17851080000000011
aF0.67000000000000004
aa(lp1260
F0.32855069137511494
aF0.33311231739910419
aF0.72996665511354664
aF0.36923453416996138
aF0.44208800000000004
aF0.27828599999999992
aF0.33000000000000002
aa(lp1261
F0.36195340512956842
aF0.47078119778215355
aF0.71734431886579775
aF0.48366359599922926
aF0.57657880000000006
aF0.21651759999999989
aF0.67000000000000004
aa(lp1262
F0.47177567509539492
aF0.67978593791439368
aF0.79889653291076324
aF0.56094111946255587
aF0.39507200000000003
aF0.19550400000000004
aF0.67000000000000004
aa(lp1263
F0.23335955116029994
aF0.62764536251002312
aF0.62662050616582687
aF0.56531692546792445
aF0.59366799999999986
aF0.29835400000000012
aF0.33000000000000002
aa(lp1264
F0.36338481863220184
aF0.63400693753108683
aF0.61135703796609808
aF0.50791530791768591
aF0.43305840000000018
aF0.1383700000000001
aF0.67000000000000004
aa(lp1265
F0.41909884440681938
aF0.21073274273039039
aF0.71199789715095074
aF0.45316282439521216
aF0.41218000000000005
aF0.15458719999999992
aF0.67000000000000004
aa(lp1266
F0.44724045652606897
aF0.56179312740075882
aF0.76571965136808973
aF0.54059697970689113
aF0.45424760000000008
aF0.14243640000000007
aF0.67000000000000004
aa(lp1267
F0.32385715946836363
aF0.57604771021670198
aF0.57437539628309653
aF0.47866262937739568
aF0.37355519999999987
aF0.1635667999999999
aF0.67000000000000004
aa(lp1268
F0.3185789799354507
aF0.68106694243657628
aF0.6809314837293059
aF0.53112280425451686
aF0.54562120000000003
aF0.25123439999999986
aF0.67000000000000004
aa(lp1269
F0.3803879171109501
aF0.24040464654987304
aF0.64693667876081451
aF0.4702759596511682
aF0.42655679999999985
aF0.14222159999999989
aF0.67000000000000004
aa(lp1270
F0.39641958558471446
aF0.34298082210533493
aF0.70173748184563645
aF0.40655254860637657
aF0.39372520000000011
aF0.14341679999999996
aF0.33000000000000002
aa(lp1271
F0.25666230648023414
aF0.36736640861491948
aF0.5962376508246916
aF0.51576339731649035
aF0.50122840000000013
aF0.25884760000000001
aF0.33000000000000002
aa(lp1272
F0.3049400087058422
aF0.6307545035597496
aF0.49346571199146572
aF0.47681563626281426
aF0.42446400000000006
aF0.11475599999999986
aF0.67000000000000004
aa(lp1273
F0.30713977674893495
aF0.54343462885164906
aF0.61264638797232718
aF0.50975211511590957
aF0.41013120000000003
aF0.19924600000000012
aF0.33000000000000002
aa(lp1274
F0.30991992187901407
aF0.35047594244470587
aF0.68737625014536086
aF0.59543827168761021
aF0.45160920000000004
aF0.26091079999999989
aF0.67000000000000004
aa(lp1275
F0.2509589173228946
aF0.36471581152517629
aF0.58864179470488587
aF0.38985894578041075
aF0.50717199999999996
aF0.26357719999999996
aF0.33000000000000002
aa(lp1276
F0.31587816377920924
aF0.63333109196454518
aF0.56767123222413718
aF0.36824522704370211
aF0.52567920000000012
aF0.13411720000000002
aF0.33000000000000002
aa(lp1277
F0.21821727662302356
aF0.41567564610598318
aF0.58799578792971341
aF0.47110436112996162
aF0.52515959999999995
aF0.2994636
aF0.33000000000000002
aa(lp1278
F0.38008049847643804
aF0.42623050043746924
aF0.64551667022577808
aF0.38929362742254858
aF0.56769800000000004
aF0.12695200000000001
aF0.67000000000000004
aa(lp1279
F0.30627937306407832
aF0.24654065494430136
aF0.58409685544345957
aF0.4631160562262932
aF0.50062040000000008
aF0.23330120000000001
aF0.67000000000000004
aa(lp1280
F0.35817356247793664
aF0.3451961468894954
aF0.69613117257696833
aF0.48270421000227121
aF0.43027839999999989
aF0.19679399999999986
aF0.33000000000000002
aa(lp1281
F0.42410787082822565
aF0.37245080000000003
aF0.71079959999999998
aF0.45381424557728733
aF0.39608680000000013
aF0.11148640000000007
aF0.33000000000000002
aa(lp1282
F0.33565091548976078
aF0.43794569616196954
aF0.57441332942157541
aF0.56059686732064806
aF0.54572879999999979
aF0.11213000000000015
aF0.67000000000000004
aa(lp1283
F0.42947332800187721
aF0.26208037451350102
aF0.69922344003451331
aF0.43419871715109737
aF0.4591135999999999
aF0.12470399999999984
aF0.33000000000000002
aa(lp1284
F0.28380425416229227
aF0.27819756939455653
aF0.50376853782935815
aF0.45576437109499235
aF0.51326959999999988
aF0.17845200000000006
aF0.67000000000000004
aa(lp1285
F0.31805720903376683
aF0.40781179811685997
aF0.55600616444378625
aF0.4895999162216137
aF0.4665996
aF0.11006360000000015
aF0.67000000000000004
aa(lp1286
F0.26941048115287003
aF0.54514117756793889
aF0.62742571267815495
aF0.48227512827569546
aF0.38376400000000005
aF0.28228599999999987
aF0.33000000000000002
aa(lp1287
F0.25266845773469809
aF0.45026313060185041
aF0.47795322029106513
aF0.56684879179518399
aF0.41501920000000003
aF0.12236839999999986
aF0.67000000000000004
aa(lp1288
F0.34737653591398671
aF0.66214712444966217
aF0.5848606060304139
aF0.54923431846848847
aF0.36370840000000015
aF0.19463599999999986
aF0.67000000000000004
aa(lp1289
F0.24788055482519511
aF0.30932660677764118
aF0.49977921122402369
aF0.43641685959296916
aF0.45228479999999999
aF0.17969720000000003
aF0.33000000000000002
aa(lp1290
F0.39827359213857122
aF0.26222515533770474
aF0.68777223866379233
aF0.52053788645430421
aF0.49108039999999986
aF0.17311799999999983
aF0.67000000000000004
aa(lp1291
F0.29417112630202413
aF0.45933927031506377
aF0.55232928399573811
aF0.41063232641759434
aF0.3743264
aF0.14508720000000003
aF0.33000000000000002
aa(lp1292
F0.437489557670873
aF0.40654594681713013
aF0.83558178003624062
aF0.56869578490976547
aF0.48877200000000015
aF0.22236639999999994
aF0.33000000000000002
aa(lp1293
F0.32693785544667375
aF0.40161207784449215
aF0.62244211487115675
aF0.61060223635551991
aF0.57716319999999999
aF0.19470559999999998
aF0.33000000000000002
aa(lp1294
F0.3135675943004263
aF0.35333315738876081
aF0.65335671435276088
aF0.55116964257648582
aF0.59613640000000001
aF0.28228278942062629
aF0.33000000000000002
aa(lp1295
F0.3431483122423567
aF0.29595486428067447
aF0.68933235064995135
aF0.46351330696425047
aF0.48885800000000013
aF0.24403480000000002
aF0.33000000000000002
aa(lp1296
F0.37697729747491493
aF0.32524923848795845
aF0.6694083496679728
aF0.47464603607858541
aF0.47507279999999985
aF0.15776719999999997
aF0.33000000000000002
aa(lp1297
F0.38913643539609727
aF0.31272269988326257
aF0.64469624962021188
aF0.52493581499676256
aF0.45090119999999984
aF0.11200399999999995
aF0.67000000000000004
aa(lp1298
F0.39487117289311785
aF0.2516191765076744
aF0.63830549608364318
aF0.47116277099407639
aF0.57479480000000005
aF0.18288919999999997
aF0.67000000000000004
aa(lp1299
F0.20354087659475439
aF0.44511601037555232
aF0.53028311685888208
aF0.51815979329462525
aF0.58240480000000017
aF0.27728199999999992
aF0.33000000000000002
aa(lp1300
F0.26783892544725785
aF0.29580538814137897
aF0.57783720615256051
aF0.43027284216984968
aF0.40552759999999993
aF0.21529559999999998
aF0.67000000000000004
aa(lp1301
F0.22538974961861188
aF0.69503485841976842
aF0.59135127095792939
aF0.49831810569430157
aF0.58835279999999979
aF0.29098480000000004
aF0.33000000000000002
aa(lp1302
F0.2780899886281552
aF0.51419212585862117
aF0.67672089592494056
aF0.40513973017654981
aF0.43541160000000012
aF0.29141359999999994
aF0.67000000000000004
aa(lp1303
F0.29195492504129894
aF0.65147809447915006
aF0.60801171237669926
aF0.35934018966782444
aF0.51163840000000005
aF0.21952719999999992
aF0.33000000000000002
aa(lp1304
F0.36305367150804663
aF0.3142521365859281
aF0.56777535881089425
aF0.47806468425619941
aF0.54704240000000015
aF0.11014599999999994
aF0.67000000000000004
aa(lp1305
F0.29634528176475988
aF0.24792139690382484
aF0.6003215487046063
aF0.52589615592337902
aF0.49708520000000006
aF0.26333720000000016
aF0.33000000000000002
aa(lp1306
F0.45536474885102024
aF0.24755533190682399
aF0.70159143419828074
aF0.53827029359383083
aF0.59977200000000008
aF0.16246480000000005
aF0.33000000000000002
aa(lp1307
F0.39269216335157253
aF0.58340407744673684
aF0.73394992370461298
aF0.35024623537449656
aF0.44459599999999994
aF0.19622640000000011
aF0.33000000000000002
aa(lp1308
F0.31652991458311897
aF0.25882917959016788
aF0.67727539874191045
aF0.47896916179779064
aF0.42255959999999992
aF0.26065240000000001
aF0.33000000000000002
aa(lp1309
F0.32294680441285167
aF0.63313400821217802
aF0.69505110776799983
aF0.42003933848398373
aF0.45714359999999987
aF0.2736052000000001
aF0.67000000000000004
aa(lp1310
F0.28771010204099057
aF0.50721945419006897
aF0.61166228262371336
aF0.57283524582464251
aF0.59875719999999999
aF0.21520919999999996
aF0.67000000000000004
aa(lp1311
F0.32707966364183261
aF0.52384600204167775
aF0.59842625324304211
aF0.54091274311398541
aF0.54400399999999993
aF0.13630519999999996
aF0.33000000000000002
aa(lp1312
F0.25790378916733775
aF0.48885001415493046
aF0.56708977720359532
aF0.4004142607612084
aF0.39124240000000016
aF0.21566200000000002
aF0.67000000000000004
aa(lp1313
F0.19335855177750097
aF0.66570905421333215
aF0.51504344943011271
aF0.58778928512261386
aF0.51593680000000008
aF0.28625679999999998
aF0.67000000000000004
aa(lp1314
F0.25888954917359108
aF0.36092513752753774
aF0.49731904253225212
aF0.42866633217427996
aF0.46225559999999993
aF0.14549559999999992
aF0.33000000000000002
aa(lp1315
F0.44406960438205301
aF0.35386262920712352
aF0.743538861748269
aF0.50080569745482806
aF0.46100799999999997
aF0.12473719999999985
aF0.67000000000000004
aa(lp1316
F0.32099068923669949
aF0.41378567658135951
aF0.58235359875312009
aF0.54579338859884163
aF0.52406040000000009
aF0.1420020000000001
aF0.33000000000000002
aa(lp1317
F0.40070581828035173
aF0.28495499904317328
aF0.69751384175026276
aF0.42630606436822732
aF0.42526079999999988
aF0.14847414571784584
aF0.67000000000000004
aa(lp1318
F0.33171643813969792
aF0.41189891116809535
aF0.72642573712049985
aF0.55169389895903054
aF0.49766639999999995
aF0.26521480000000003
aF0.67000000000000004
aa(lp1319
F0.25464487811895264
aF0.62293710188955309
aF0.62163246223260593
aF0.54238842774633356
aF0.56524399999999986
aF0.26616159999999989
aF0.33000000000000002
aa(lp1320
F0.27464683432792208
aF0.62720303089665852
aF0.54095411182460396
aF0.44121967831065328
aF0.5366316000000001
aF0.16325240000000002
aF0.33000000000000002
aa(lp1321
F0.36175980386005374
aF0.64781753819741927
aF0.64029758451327257
aF0.43636895395509828
aF0.49332239999999994
aF0.15257679999999993
aF0.67000000000000004
aa(lp1322
F0.20539285950637778
aF0.51090842012152538
aF0.55759986793360172
aF0.56065543633970583
aF0.4783304000000001
aF0.26896319999999996
aF0.33000000000000002
aa(lp1323
F0.21095553691851004
aF0.48227706618683186
aF0.583671047975858
aF0.60721876142032938
aF0.45159880000000002
aF0.28691640000000013
aF0.67000000000000004
aa(lp1324
F0.35170433969734405
aF0.27877040084903049
aF0.7491302220506515
aF0.46956978916866948
aF0.40320639999999985
aF0.26756239999999992
aF0.67000000000000004
aa(lp1325
F0.3295718353362701
aF0.54981955763358559
aF0.56790637891561313
aF0.52935857171034328
aF0.50205640000000007
aF0.10427520000000001
aF0.33000000000000002
aa(lp1326
F0.21611221995672436
aF0.52460391351047198
aF0.50765022831733897
aF0.5118403871242182
aF0.51116959999999989
aF0.20231679999999982
aF0.67000000000000004
aa(lp1327
F0.2853371238392855
aF0.47480552388917341
aF0.70480873400352384
aF0.57954792385942933
aF0.57361280000000003
aF0.31356498559814056
aF0.67000000000000004
aa(lp1328
F0.40360577828567701
aF0.52791327258570675
aF0.72522161836243837
aF0.3702125412952611
aF0.3921868
aF0.17080880000000001
aF0.33000000000000002
aa(lp1329
F0.36817596488653853
aF0.65483247647007947
aF0.68695197803874142
aF0.3307809492145854
aF0.56506879999999993
aF0.17406840000000018
aF0.67000000000000004
aa(lp1330
F0.42342788562322614
aF0.69971456093942275
aF0.76038492522593126
aF0.54064663604913588
aF0.44523960000000001
aF0.2183288000000001
aF0.33000000000000002
aa(lp1331
F0.21528893179206479
aF0.57157606284130469
aF0.53806994262044761
aF0.37862817722113112
aF0.59275319999999998
aF0.23434279999999993
aF0.67000000000000004
aa(lp1332
F0.35344999184467368
aF0.60917727407178679
aF0.5938948486743264
aF0.36096516163679271
aF0.43884480000000003
aF0.12395800000000001
aF0.67000000000000004
aa(lp1333
F0.31759771729850311
aF0.6806496533828561
aF0.59368750730090303
aF0.45425844702345691
aF0.53042079999999991
aF0.17040520000000009
aF0.67000000000000004
aa(lp1334
F0.36687531569852422
aF0.29902291384843521
aF0.64927961099984055
aF0.40722211345196418
aF0.50231239999999988
aF0.17192399999999991
aF0.33000000000000002
aa(lp1335
F0.5361024271787892
aF0.67824509838308633
aF0.85659177642471707
aF0.54532101672774502
aF0.50002600000000008
aF0.11967280000000002
aF0.33000000000000002
aa(lp1336
F0.36353197555202282
aF0.38004988733727102
aF0.65483560145196229
aF0.49497441949488397
aF0.52563199999999988
aF0.16176679999999982
aF0.67000000000000004
aa(lp1337
F0.28525881886693205
aF0.41778835134402853
aF0.60890945778409777
aF0.51758031014682748
aF0.48129880000000008
aF0.21052320000000008
aF0.67000000000000004
aa(lp1338
F0.3188597812465791
aF0.5037445445553328
aF0.56439215639053264
aF0.42519898258407995
aF0.40066279999999993
aF0.12539639999999999
aF0.67000000000000004
aa(lp1339
F0.38115084637811852
aF0.28323711645673127
aF0.70293434835432334
aF0.51314545765757191
aF0.39862679999999989
aF0.17640120000000009
aF0.67000000000000004
aa(lp1340
F0.33714164610766528
aF0.48768254495904911
aF0.60579032406303379
aF0.38833201325638711
aF0.46600239999999998
aF0.12949319999999992
aF0.67000000000000004
aa(lp1341
F0.34045817134914275
aF0.62956012131871619
aF0.64239319935200245
aF0.40736646698534862
aF0.49478760000000011
aF0.1801596
aF0.33000000000000002
aa(lp1342
F0.2818500674819141
aF0.3184642768494747
aF0.62414933009425089
aF0.53495286796002339
aF0.54509439999999998
aF0.29625039999999991
aF0.67000000000000004
aa(lp1343
F0.29268630764601739
aF0.48908203763689251
aF0.6278033646675254
aF0.45651924299007707
aF0.44605519999999999
aF0.21612480000000006
aF0.33000000000000002
aa(lp1344
F0.36839748229025632
aF0.6074834356743104
aF0.61245273245958354
aF0.49091374027683743
aF0.46091920000000003
aF0.11250040000000006
aF0.67000000000000004
aa(lp1345
F0.30830471006946314
aF0.2824912620740182
aF0.69453021484317967
aF0.55946257004123212
aF0.43371799999999999
aF0.28558759999999983
aF0.67000000000000004
aa(lp1346
F0.34300176120804715
aF0.74681111169799552
aF0.60545368751408613
aF0.52241591478278859
aF0.41368199999999999
aF0.25285559999999985
aF0.33000000000000002
aa(lp1347
F0.33766062846040606
aF0.59035800801155747
aF0.68875681071395856
aF0.54326998697611961
aF0.46159800000000006
aF0.22891960000000006
aF0.33000000000000002
aa(lp1348
F0.30831532490829283
aF0.29116027711780357
aF0.59283022973641264
aF0.6525287413241041
aF0.59159040000000007
aF0.27682639999999986
aF0.33000000000000002
aa(lp1349
F0.46807108376948742
aF0.5754968572000102
aF0.80367568104703935
aF0.56022348982415437
aF0.51435679999999984
aF0.14455279999999995
aF0.33000000000000002
aa(lp1350
F0.22715168918651618
aF0.64388984664962801
aF0.57419028531745586
aF0.5289415857594425
aF0.48587079999999999
aF0.29450159999999992
aF0.67000000000000004
aa(lp1351
F0.4032925818240039
aF0.23793148919830073
aF0.72993124766256412
aF0.46577044236717974
aF0.56342080000000005
aF0.2615867999999999
aF0.33000000000000002
aa(lp1352
F0.28023478707509786
aF0.26144948237941856
aF0.6491744931509047
aF0.50200699896528556
aF0.44337000000000015
aF0.29708359999999984
aF0.33000000000000002
aa(lp1353
F0.29284916061804689
aF0.57412187876104892
aF0.67487692919603859
aF0.42424453039035792
aF0.48602120000000004
aF0.27020480000000013
aF0.67000000000000004
aa(lp1354
F0.33058419630111169
aF0.36588612835452705
aF0.71485344879017743
aF0.41958908914997683
aF0.50658239999999988
aF0.26901000000000008
aF0.33000000000000002
aa(lp1355
F0.41287430559715776
aF0.40951112182793781
aF0.77552150426803124
aF0.63072260426119742
aF0.40239720000000007
aF0.19167239999999985
aF0.67000000000000004
aa(lp1356
F0.40200869470893558
aF0.49135625055507148
aF0.68088267634401267
aF0.59331227995778879
aF0.57124600000000003
aF0.11799759999999999
aF0.67000000000000004
aa(lp1357
F0.3578436932092236
aF0.63268120826209895
aF0.75828606273059085
aF0.47868220543539591
aF0.56786959999999986
aF0.25638599999999984
aF0.67000000000000004
aa(lp1358
F0.3503978729113566
aF0.32369782876635683
aF0.61932431745084249
aF0.41393463233180794
aF0.40082079999999998
aF0.12982520000000014
aF0.67000000000000004
aa(lp1359
F0.35925497683755436
aF0.39656718672073732
aF0.70506317414232489
aF0.59325959967162545
aF0.36495399999999983
aF0.1979844
aF0.67000000000000004
aa(lp1360
F0.34006491792585775
aF0.5554708127832757
aF0.66649205867889383
aF0.33623375671985684
aF0.54401919999999993
aF0.18570400000000015
aF0.67000000000000004
aa(lp1361
F0.43745279753944266
aF0.21645564205560461
aF0.65216455283972441
aF0.4519553158419739
aF0.5663803999999999
aF0.14198559999999993
aF0.67000000000000004
aa(lp1362
F0.42688103082705031
aF0.33624893217185275
aF0.72464786502203071
aF0.60182882011757932
aF0.42180120000000015
aF0.12703960000000017
aF0.67000000000000004
aa(lp1363
F0.34675771550507734
aF0.31277877148772576
aF0.58441046500844074
aF0.54851843953446111
aF0.55368239999999991
aF0.15727200000000002
aF0.67000000000000004
aa(lp1364
F0.4163472714093015
aF0.47818982981410907
aF0.72401022939880944
aF0.54101412481273514
aF0.40563840000000012
aF0.13969319999999996
aF0.33000000000000002
aa(lp1365
F0.32118293265533593
aF0.34351247139452534
aF0.73851494669197493
aF0.43610475674956589
aF0.43676880000000012
aF0.29396999999999984
aF0.67000000000000004
aa(lp1366
F0.46960907908151472
aF0.24968851479632798
aF0.74960547255295684
aF0.41935672293306281
aF0.5270764
aF0.14618080000000014
aF0.67000000000000004
aa(lp1367
F0.23181624191993813
aF0.58283403678586654
aF0.5991378096294383
aF0.48269322831119793
aF0.46810040000000014
aF0.29203240000000008
aF0.67000000000000004
aa(lp1368
F0.4504796430020287
aF0.60108866500290503
aF0.73912924923995793
aF0.3966435618494753
aF0.52345439999999999
aF0.10680280000000017
aF0.67000000000000004
aa(lp1369
F0.33108897954538491
aF0.48307645752162925
aF0.62733857652338654
aF0.4390782485513518
aF0.55061360000000015
aF0.16400439999999997
aF0.33000000000000002
aa(lp1370
F0.44237343144349855
aF0.25108454012632142
aF0.71641564401394753
aF0.5141919014084011
aF0.43898359999999992
aF0.11968919999999983
aF0.33000000000000002
aa(lp1371
F0.24555599353244636
aF0.64545870837029684
aF0.58086485187191172
aF0.57096628932791438
aF0.58678039999999998
aF0.2385895999999999
aF0.33000000000000002
aa(lp1372
F0.30801753284763378
aF0.38985574797050437
aF0.66624127592661497
aF0.55576062606491461
aF0.51939360000000012
aF0.25034519999999993
aF0.33000000000000002
aa(lp1373
F0.44681505832838692
aF0.30646567711734213
aF0.6893210694783114
aF0.45855276569796227
aF0.56900079999999986
aF0.11454920000000009
aF0.67000000000000004
aa(lp1374
F0.2553892484980918
aF0.35691834957125901
aF0.60437965032820495
aF0.57078724001693593
aF0.45917160000000018
aF0.25798160000000009
aF0.67000000000000004
aa(lp1375
F0.46972322715296466
aF0.59048166395683666
aF0.81259595570806409
aF0.36222550963113731
aF0.57671799999999995
aF0.14844960000000001
aF0.67000000000000004
aa(lp1376
F0.39751345949997663
aF0.59902807800533431
aF0.81779905879709458
aF0.42601258265316572
aF0.54864519999999994
aF0.25789240000000008
aF0.67000000000000004
aa(lp1377
F0.31886169509981871
aF0.64524401965076128
aF0.68115625711484173
aF0.41119939547983075
aF0.46356239999999999
aF0.26843679999999992
aF0.67000000000000004
aa(lp1378
F0.32937067985538016
aF0.45335312070052469
aF0.65135850114398119
aF0.46724103404134892
aF0.47866759999999997
aF0.18624639999999992
aF0.67000000000000004
aa(lp1379
F0.3638680764927823
aF0.69353052000478854
aF0.66892437518410264
aF0.47466147410806531
aF0.45803559999999982
aF0.21138520000000013
aF0.33000000000000002
aa(lp1380
F0.49468616046986225
aF0.54375986618031469
aF0.84666121723532695
aF0.34477289688156626
aF0.5921831999999998
aF0.14874720000000002
aF0.33000000000000002
aa(lp1381
F0.29712599520630584
aF0.46726289288914058
aF0.57028560951887708
aF0.59783546344046046
aF0.54651199999999989
aF0.1576267999999999
aF0.33000000000000002
aa(lp1382
F0.25487068605760899
aF0.44449745900912346
aF0.58337703292185028
aF0.56590914101116929
aF0.49590600000000007
aF0.22662039999999983
aF0.67000000000000004
aa(lp1383
F0.2091446456204174
aF0.50286757482673461
aF0.55623519262633536
aF0.3738842458323911
aF0.59529159999999981
aF0.27527119999999988
aF0.33000000000000002
aa(lp1384
F0.41167360758062815
aF0.57715210331029465
aF0.67128353467688984
aF0.55049339322328839
aF0.36994720000000003
aF0.12720960000000012
aF0.67000000000000004
aa(lp1385
F0.39651798268025013
aF0.60162657080988635
aF0.71127504020504129
aF0.54185191643317077
aF0.43366760000000004
aF0.17625840000000004
aF0.67000000000000004
aa(lp1386
F0.32337756593097772
aF0.51518193893272368
aF0.72357852259793809
aF0.56815513556808217
aF0.52595120000000006
aF0.26638039999999991
aF0.67000000000000004
aa(lp1387
F0.37888744247825257
aF0.38704439871698249
aF0.76319858516609462
aF0.5865451709324645
aF0.59526760000000001
aF0.26948359999999988
aF0.33000000000000002
aa(lp1388
F0.322388245638006
aF0.39222058079749156
aF0.73163958747956992
aF0.53237296633250375
aF0.47411560000000003
aF0.28312920000000014
aF0.33000000000000002
aa(lp1389
F0.33218886661600744
aF0.3422589099359904
aF0.68412041694106662
aF0.63018338731400192
aF0.43623559999999983
aF0.22382999999999989
aF0.33000000000000002
aa(lp1390
F0.43327988253556704
aF0.64874679985986605
aF0.68739934310390505
aF0.58543411027474002
aF0.46523879999999984
aF0.10277320000000004
aF0.67000000000000004
aa(lp1391
F0.3696001787869288
aF0.41953728306080434
aF0.67641704934893565
aF0.37890685752648512
aF0.38645239999999992
aF0.15477160000000012
aF0.33000000000000002
aa(lp1392
F0.31403143099847436
aF0.45234132563062845
aF0.55335870040403812
aF0.45115444816833555
aF0.41023679999999985
aF0.11125159999999994
aF0.33000000000000002
aa(lp1393
F0.2095441775355206
aF0.70466344534435343
aF0.54256123889601537
aF0.52599339959360825
aF0.54989999999999983
aF0.28984440000000011
aF0.67000000000000004
aa(lp1394
F0.45032624736584415
aF0.44750598616839776
aF0.84859909870523142
aF0.40099278897934754
aF0.5250651999999999
aF0.2164819999999999
aF0.67000000000000004
aa(lp1395
F0.23838763968764543
aF0.374022042644307
aF0.54894546052576954
aF0.34190810790591225
aF0.37602879999999994
aF0.21182039999999985
aF0.33000000000000002
aa(lp1396
F0.33767676502868094
aF0.60163085114517578
aF0.54861020564140373
aF0.46934872295271485
aF0.43173959999999989
aF0.10230519999999999
aF0.67000000000000004
aa(lp1397
F0.40696783268471809
aF0.53598496861542877
aF0.70840692527034366
aF0.58305219739642666
aF0.56067199999999995
aF0.13339719999999994
aF0.67000000000000004
aa(lp1398
F0.46421473549385711
aF0.23496166762967191
aF0.72029809510110676
aF0.46654886919384214
aF0.47516040000000004
aF0.10931919999999984
aF0.33000000000000002
aa(lp1399
F0.3192026319182148
aF0.67084855981928693
aF0.51633557768413785
aF0.51712608193924336
aF0.45839880000000016
aF0.11803199999999983
aF0.67000000000000004
aa(lp1400
F0.28325889545654981
aF0.34555713326049509
aF0.55215085901501271
aF0.35730157400176027
aF0.39358320000000013
aF0.15445160000000016
aF0.33000000000000002
aa(lp1401
F0.4007317075436414
aF0.7164898558036672
aF0.67580246079027506
aF0.53740114844960596
aF0.49340000000000012
aF0.15483919999999998
aF0.67000000000000004
aa(lp1402
F0.24956466737509247
aF0.66854282102472884
aF0.49657471537396169
aF0.48519530317154558
aF0.42472519999999997
aF0.24139240000000015
aF0.33000000000000002
aa(lp1403
F0.51438200260147315
aF0.57293746721463523
aF0.86399285279084204
aF0.53977351203133384
aF0.45198919999999987
aF0.14667199999999986
aF0.67000000000000004
aa(lp1404
F0.42030579693853659
aF0.75179902665872511
aF0.59835795060975916
aF0.54277199115918517
aF0.38739360000000006
aF0.12875960000000006
aF0.33000000000000002
aa(lp1405
F0.22526856512029328
aF0.40196699417704485
aF0.43841927495751454
aF0.45432401886001061
aF0.36433719999999992
aF0.12207159999999995
aF0.67000000000000004
aa(lp1406
F0.33073640709212015
aF0.61054106926905549
aF0.66528983371603512
aF0.48494176934720029
aF0.47840920000000009
aF0.21660919999999989
aF0.33000000000000002
aa(lp1407
F0.25381146221562945
aF0.29431546067561704
aF0.63355036561537115
aF0.47891616320174091
aF0.38130839999999999
aF0.28530799999999984
aF0.67000000000000004
aa(lp1408
F0.2247051343964756
aF0.46949025173796494
aF0.61399826976073446
aF0.58145921557101998
aF0.4701224
aF0.29621784991869793
aF0.67000000000000004
aa(lp1409
F0.25648800153444168
aF0.33341143751295127
aF0.59317717924189206
aF0.53538927081398135
aF0.49542719999999996
aF0.26864199999999983
aF0.67000000000000004
aa(lp1410
F0.42569752680484896
aF0.2881395652508264
aF0.75165135291292984
aF0.38719914837145891
aF0.54415799999999981
aF0.20677400000000007
aF0.33000000000000002
aa(lp1411
F0.39276983681613648
aF0.32212369171672145
aF0.63769883129907856
aF0.47593105308910949
aF0.50884199999999991
aF0.11456160000000004
aF0.67000000000000004
aa(lp1412
F0.17651849748368162
aF0.56480489698252256
aF0.49059233310792683
aF0.51228999983845303
aF0.42462799999999989
aF0.28402999999999989
aF0.67000000000000004
aa(lp1413
F0.31575357666170778
aF0.47610961753292891
aF0.71555894824925237
aF0.59238679396370952
aF0.37016799999999994
aF0.28176519999999988
aF0.33000000000000002
aa(lp1414
F0.36063631968623022
aF0.50635284834514283
aF0.64848215810714827
aF0.3902162486276522
aF0.56573360000000006
aF0.14193399999999984
aF0.67000000000000004
aa(lp1415
F0.3419121344409331
aF0.30365645147577214
aF0.66596683148727787
aF0.59298442077501945
aF0.59891760000000005
aF0.28304560000000017
aF0.33000000000000002
aa(lp1416
F0.40220802787347892
aF0.64333957069761072
aF0.73066349474425107
aF0.32306814151740904
aF0.43589440000000013
aF0.20103240000000006
aF0.67000000000000004
aa(lp1417
F0.46974181861382608
aF0.35208330055505749
aF0.79284012171787988
aF0.4930389362319435
aF0.44545040000000002
aF0.13511880000000004
aF0.67000000000000004
aa(lp1418
F0.315881412973891
aF0.60217353349819758
aF0.69655290780289758
aF0.46944055535487889
aF0.43118680000000004
aF0.28384759999999998
aF0.33000000000000002
aa(lp1419
F0.39103450245683574
aF0.33404958362641468
aF0.78317585046035953
aF0.41275322518923679
aF0.38527079999999997
aF0.23254680000000008
aF0.33000000000000002
aa(lp1420
F0.36656880693144545
aF0.55475234929353157
aF0.71905257476943196
aF0.53760311607238964
aF0.36234240000000001
aF0.23767560000000004
aF0.67000000000000004
aa(lp1421
F0.36012008324583
aF0.32769612931392944
aF0.66052251255482908
aF0.40502959495593033
aF0.46630800000000006
aF0.17046160000000016
aF0.67000000000000004
aa(lp1422
F0.23142761847630466
aF0.34298940469993833
aF0.5991423520810315
aF0.63150580573615256
aF0.42209320000000011
aF0.28155760000000002
aF0.33000000000000002
aa(lp1423
F0.26812768020416017
aF0.38970457662562763
aF0.60485925914121486
aF0.35936820093780869
aF0.44497520000000002
aF0.2297191999999999
aF0.67000000000000004
aa(lp1424
F0.40258896388057114
aF0.36698291492498925
aF0.74152062431755894
aF0.54225012210078682
aF0.45662319999999995
aF0.17927479999999996
aF0.33000000000000002
aa(lp1425
F0.20590176512967995
aF0.42047689104224129
aF0.52701515279704014
aF0.55760300368614646
aF0.58439000000000019
aF0.28634200000000015
aF0.33000000000000002
aa(lp1426
F0.20358002205604403
aF0.31466321763227184
aF0.48660150035284599
aF0.45783052056621121
aF0.45672919999999984
aF0.23618802744646245
aF0.33000000000000002
aa(lp1427
F0.38379359602401603
aF0.51514293567454073
aF0.69286403046311695
aF0.39440998137812355
aF0.37572679999999997
aF0.16830880000000015
aF0.67000000000000004
aa(lp1428
F0.26422633544298629
aF0.43315716576050856
aF0.53237427108137392
aF0.4244466571680845
aF0.52118679999999995
aF0.16921880000000017
aF0.67000000000000004
aa(lp1429
F0.28287897042627608
aF0.55769090047917902
aF0.50376689514310868
aF0.4975985661965831
aF0.4487335999999999
aF0.11883920000000003
aF0.67000000000000004
aa(lp1430
F0.29613402702710323
aF0.62385686962984832
aF0.56438525166099285
aF0.56149561528428804
aF0.49657680000000004
aF0.16539840000000011
aF0.67000000000000004
aa(lp1431
F0.31617949667389977
aF0.58703006905427768
aF0.60212660638667259
aF0.54743300282257434
aF0.55346280000000014
aF0.15624300422299556
aF0.67000000000000004
aa(lp1432
F0.47677390363990024
aF0.38627136496962605
aF0.7602352995987598
aF0.37928309981195429
aF0.57231200000000015
aF0.11214919999999999
aF0.67000000000000004
aa(lp1433
F0.43768584775932923
aF0.54630888623686968
aF0.71232769035837218
aF0.61339620138149809
aF0.36071120000000007
aF0.12182679999999983
aF0.67000000000000004
aa(lp1434
F0.28288500532741806
aF0.5806860408458917
aF0.53372603701413013
aF0.54679686051503607
aF0.40800359999999997
aF0.1728539999999999
aF0.33000000000000002
aa(lp1435
F0.30476538735702224
aF0.63389553642819751
aF0.55481370168039845
aF0.54507273501652154
aF0.45637439999999996
aF0.16206679999999984
aF0.67000000000000004
aa(lp1436
F0.40939084792650726
aF0.38439882250682056
aF0.69659554585456041
aF0.55235391450803273
aF0.55723960000000017
aF0.14403080000000018
aF0.67000000000000004
aa(lp1437
F0.27754631113779277
aF0.54238329307100341
aF0.61727766240776771
aF0.52393138815090956
aF0.59953360000000022
aF0.22895080000000015
aF0.33000000000000002
aa(lp1438
F0.42495922052018675
aF0.29351819878720525
aF0.69186880746560142
aF0.3491999507786106
aF0.4128768000000001
aF0.1028576000000001
aF0.67000000000000004
aa(lp1439
F0.25845050994143887
aF0.50537384609707847
aF0.48783094847151282
aF0.57456382766156355
aF0.55132559999999986
aF0.12522680000000008
aF0.67000000000000004
aa(lp1440
F0.36698986972279846
aF0.52796810984350662
aF0.74565315739974092
aF0.45548791895884178
aF0.56747839999999994
aF0.22815720000000006
aF0.33000000000000002
aa(lp1441
F0.35053100454353553
aF0.49458624928454248
aF0.5978821076350378
aF0.52672360247251382
aF0.52951960000000009
aF0.1033888000000001
aF0.33000000000000002
aa(lp1442
F0.34880002808772098
aF0.53092823045568205
aF0.75119614703178317
aF0.51604303255150286
aF0.42662839999999991
aF0.26907120000000012
aF0.33000000000000002
aa(lp1443
F0.26395954171201963
aF0.46253958659911165
aF0.58761657393738209
aF0.51229843505043671
aF0.56346799999999997
aF0.22822439999999986
aF0.67000000000000004
aa(lp1444
F0.31607993914736654
aF0.17817941378286087
aF0.65027394106550851
aF0.40229674542809923
aF0.41541159999999983
aF0.27141519999999986
aF0.67000000000000004
aa(lp1445
F0.41712628006741936
aF0.6967370485546116
aF0.66389522797664746
aF0.56315066753750054
aF0.39261879999999999
aF0.15842440000000019
aF0.33000000000000002
aa(lp1446
F0.3479092991925356
aF0.58069436251845619
aF0.68887312327986372
aF0.58291516499042462
aF0.49960759999999987
aF0.20358279999999987
aF0.67000000000000004
aa(lp1447
F0.31999768972868547
aF0.20806651780706426
aF0.48457439059745544
aF0.43323439735090369
aF0.51357880000000011
aF0.1507192
aF0.33000000000000002
aa(lp1448
F0.3598381459186864
aF0.48579579984050658
aF0.68436481714326725
aF0.5852639736405747
aF0.4606904
aF0.17609648111351994
aF0.33000000000000002
aa(lp1449
F0.26861350101631504
aF0.71357403973014433
aF0.59387444340763695
aF0.51304503088848075
aF0.49078879999999997
aF0.28618440000000012
aF0.67000000000000004
aa(lp1450
F0.2271278116420348
aF0.48032109649468141
aF0.60785094310784049
aF0.58963786978662625
aF0.42709000000000008
aF0.29108519999999982
aF0.33000000000000002
aa(lp1451
F0.406819056047802
aF0.62764845330758878
aF0.75149095381257069
aF0.40567274008096449
aF0.46409680000000009
aF0.1998984
aF0.67000000000000004
aa(lp1452
F0.28099739503622256
aF0.35478499816637205
aF0.6217177165646216
aF0.43512722708909551
aF0.4069915999999999
aF0.22777160000000016
aF0.67000000000000004
aa(lp1453
F0.32622054962213204
aF0.48069049818081133
aF0.66111514382529857
aF0.49469748989390411
aF0.45252799999999987
aF0.20062999999999995
aF0.33000000000000002
aa(lp1454
F0.41838505067335335
aF0.27265695982588839
aF0.65324230342824019
aF0.57288474301194403
aF0.52896199999999993
aF0.11995080000000016
aF0.33000000000000002
aa(lp1455
F0.3096135149362455
aF0.39295713289836731
aF0.5850173772172873
aF0.5511847622960796
aF0.51316360000000005
aF0.16398119999999991
aF0.33000000000000002
aa(lp1456
F0.42891719046675864
aF0.59776529327392258
aF0.85502241026094905
aF0.35739038246000571
aF0.56660480000000002
aF0.24924280000000004
aF0.67000000000000004
aa(lp1457
F0.31223688082728657
aF0.27604217497471523
aF0.5725918392985726
aF0.45538812880952317
aF0.55158239999999981
aF0.2275392
aF0.67000000000000004
aa(lp1458
F0.34229497201017151
aF0.56443252025182211
aF0.59129682755142565
aF0.57653527994164289
aF0.56662479999999993
aF0.10722360000000002
aF0.67000000000000004
aa(lp1459
F0.28067352686134722
aF0.69254246721194723
aF0.57444872329195995
aF0.48478627496779941
aF0.50919320000000001
aF0.22240000000000001
aF0.67000000000000004
aa(lp1460
F0.31332431301133373
aF0.28295625276323727
aF0.72702539856832549
aF0.42066879628391224
aF0.37116280000000013
aF0.29278599999999988
aF0.67000000000000004
aa(lp1461
F0.34410079431718754
aF0.47168848128544455
aF0.73258108665577137
aF0.42480364170543966
aF0.4041115999999999
aF0.25066400000000011
aF0.67000000000000004
aa(lp1462
F0.40515195322541431
aF0.64012608143575811
aF0.72175834257929095
aF0.38969358379453828
aF0.59123360000000003
aF0.15087679999999998
aF0.33000000000000002
aa(lp1463
F0.35317159726150776
aF0.53605148715818596
aF0.7427482861564666
aF0.42662914890270365
aF0.56668279999999993
aF0.24422840000000007
aF0.33000000000000002
aa(lp1464
F0.43465150737455477
aF0.30770975115842847
aF0.73625800152831755
aF0.47567831503947955
aF0.3943743999999999
aF0.12770800000000015
aF0.67000000000000004
aa(lp1465
F0.44967716708062
aF0.22948602508083696
aF0.69288412213854012
aF0.56692279884372165
aF0.55390760000000017
aF0.14591999999999991
aF0.67000000000000004
aa(lp1466
F0.33802934378958649
aF0.57926363765069233
aF0.59978792128162584
aF0.39920229586956357
aF0.43070200000000014
aF0.14541240000000002
aF0.67000000000000004
aa(lp1467
F0.25376147990079972
aF0.21028170142210775
aF0.53207793308613138
aF0.45653690918876039
aF0.47163000000000005
aF0.28613719999999992
aF0.67000000000000004
aa(lp1468
F0.47022061473788823
aF0.24183575565922197
aF0.76041543871816553
aF0.56135126175090366
aF0.3656839999999999
aF0.10705759999999991
aF0.33000000000000002
aa(lp1469
F0.2603855226513917
aF0.33423684569611822
aF0.56537897979684826
aF0.55271249059481875
aF0.56808559999999986
aF0.28092159999999994
aF0.33000000000000002
aa(lp1470
F0.30842851649376629
aF0.67414124910881057
aF0.5818390114369365
aF0.40871259949401983
aF0.56176719999999991
aF0.16037919999999986
aF0.67000000000000004
aa(lp1471
F0.31872881496344285
aF0.3744151436116866
aF0.71160384982769709
aF0.46307785903995102
aF0.48590920000000004
aF0.27485999999999999
aF0.33000000000000002
aa(lp1472
F0.40027992973295834
aF0.29196926925085015
aF0.81399511268976565
aF0.60089951440486578
aF0.42141039999999991
aF0.26291159999999997
aF0.67000000000000004
aa(lp1473
F0.34580920187002367
aF0.66879163417906184
aF0.57872438777577107
aF0.61631558050263291
aF0.52951240000000011
aF0.10992880000000013
aF0.67000000000000004
aa(lp1474
F0.45985596313894483
aF0.41747969270986507
aF0.82288243679152728
aF0.48697672444957324
aF0.42326160000000002
aF0.17257360000000013
aF0.33000000000000002
aa(lp1475
F0.30570359555576154
aF0.74599479419113379
aF0.58944996048719422
aF0.54825758458273355
aF0.54770040000000009
aF0.2052772000000001
aF0.67000000000000004
aa(lp1476
F0.36787088189709116
aF0.28560802491792964
aF0.66474604280546079
aF0.65018327492775885
aF0.45570880000000002
aF0.17309200000000011
aF0.67000000000000004
aasb.