(iexpert
Expert
p0
(dp1
S'inputs'
p2
(lp3
(lp4
F0.46206357952379673
aF0.47088020122645136
aF0.76087797613418995
aF0.55458399357063626
aF0.37609999999999993
aF0.11433159999999987
aF0.67000000000000004
aF0.4892449518311926
aF0.46518120638334254
aF0.8004699129114965
aF0.53866849926144666
aF0.37609999999999993
aF0.11433159999999987
aF0.67000000000000004
aa(lp5
F0.5202778927714633
aF0.45724733359803621
aF0.84562721851096256
aF0.47818962088652639
aF0.37609999999999993
aF0.11433159999999987
aF0.67000000000000004
aF0.5539497353995565
aF0.46867407931003485
aF0.89224590024586303
aF0.45909102771549892
aF0.37609999999999993
aF0.11433159999999987
aF0.67000000000000004
aa(lp6
F0.43913192822717401
aF0.66166253203813064
aF0.83316740337545203
aF0.4278533687249666
aF0.54508200000000007
aF0.22318159999999984
aF0.67000000000000004
aF0.55398663386438129
aF0.4669365798874594
aF0.89250323707228352
aF0.49092201633387805
aF0.37609999999999993
aF0.11433159999999987
aF0.67000000000000004
aa(lp7
F0.3559723431275732
aF0.6202801158533674
aF0.72095450154334384
aF0.47559985165253527
aF0.54508200000000007
aF0.22318159999999984
aF0.67000000000000004
aF0.43913192822717401
aF0.66166253203813064
aF0.83316740337545203
aF0.4278533687249666
aF0.54508200000000007
aF0.22318159999999984
aF0.67000000000000004
aa(lp8
F0.35504144225658929
aF0.58889388941480081
aF0.63674510020816366
aF0.50733391491057134
aF0.56260039999999978
aF0.13532960000000002
aF0.67000000000000004
aF0.41147458749887239
aF0.59718213521697727
aF0.71621407723953356
aF0.4914184206013818
aF0.56260039999999978
aF0.13532960000000002
aF0.67000000000000004
aa(lp9
F0.41336376425665994
aF0.56562757769901706
aF0.71990640367058778
aF0.47550292629219226
aF0.56260039999999978
aF0.13532960000000002
aF0.67000000000000004
aF0.46765490957599193
aF0.58953865888445345
aF0.79614467178728321
aF0.45958743198300267
aF0.56260039999999978
aF0.13532960000000002
aF0.67000000000000004
aa(lp10
F0.23179620668977771
aF0.48871508890595017
aF0.45470386896055004
aF0.4277564433646236
aF0.56260039999999978
aF0.13532960000000002
aF0.67000000000000004
aF0.27643621432328447
aF0.52729574612356311
aF0.52467204899652597
aF0.4277564433646236
aF0.56260039999999978
aF0.13532960000000002
aF0.67000000000000004
aa(lp11
F0.38732859654976198
aF0.62325085100046995
aF0.69218324133414766
aF0.59813897191693677
aF0.45329000000000014
aF0.17145280000000013
aF0.67000000000000004
aF0.41973566553208169
aF0.51507386439801583
aF0.86992464857373197
aF0.36479045069400629
aF0.44300159999999983
aF0.28072039999999987
aF0.67000000000000004
aa(lp12
F0.39603211086517709
aF0.58731895138518619
aF0.71525341222605687
aF0.59813897191693677
aF0.45329000000000014
aF0.17145280000000013
aF0.67000000000000004
aF0.41702096578137066
aF0.56756100238565566
aF0.75003305356020467
aF0.58222347760774718
aF0.45329000000000014
aF0.17145280000000013
aF0.67000000000000004
aa(lp13
F0.27640793870697083
aF0.46061964108548886
aF0.66067296486297278
aF0.3387705273577985
aF0.36932800000000016
aF0.28058280000000019
aF0.33000000000000002
aF0.31358027909973418
aF0.53396871854089445
aF0.69235775877630845
aF0.32285503304860896
aF0.36932800000000016
aF0.28058280000000019
aF0.33000000000000002
aa(lp14
F0.2305294049037466
aF0.50385877267105772
aF0.61808961581365196
aF0.39633893928839714
aF0.56743279999999996
aF0.29833040000000005
aF0.33000000000000002
aF0.26940181977056243
aF0.55541250177143164
aF0.679132439673095
aF0.39633893928839714
aF0.56743279999999996
aF0.29833040000000005
aF0.33000000000000002
aa(lp15
F0.28348363929828646
aF0.57840760902222921
aF0.65939991561606459
aF0.50204694685600149
aF0.55364159999999996
aF0.25925919999999997
aF0.67000000000000004
aF0.31175966408674988
aF0.58188874579735317
aF0.69924814878584096
aF0.50204694685600149
aF0.55364159999999996
aF0.25925919999999997
aF0.67000000000000004
aa(lp16
F0.28340109398679514
aF0.56646080215538819
aF0.65984380804048504
aF0.50204694685600149
aF0.55364159999999996
aF0.25925919999999997
aF0.67000000000000004
aF0.33963867027031547
aF0.57738386978634115
aF0.73899366541508371
aF0.47021595823762247
aF0.55364159999999996
aF0.25925919999999997
aF0.67000000000000004
aa(lp17
F0.40293814861737026
aF0.57074285231193511
aF0.8288431274292577
aF0.38745538782983679
aF0.55364159999999996
aF0.25925919999999997
aF0.67000000000000004
aF0.42356757482186352
aF0.5996353050406924
aF0.8565058491918851
aF0.37153989352064726
aF0.55364159999999996
aF0.25925919999999997
aF0.67000000000000004
aa(lp18
F0.38635688001317808
aF0.32830277039378081
aF0.81588945430014514
aF0.57413395016027235
aF0.41992160000000001
aF0.27723440000000005
aF0.33000000000000002
aF0.41971145339576749
aF0.31128343488507787
aF0.86076945232943236
aF0.55503535698924489
aF0.41992160000000001
aF0.27723440000000005
aF0.33000000000000002
aa(lp19
F0.33435975457945383
aF0.29990674934439099
aF0.63316395761635247
aF0.62801187727045626
aF0.55894200000000005
aF0.23757120000000001
aF0.33000000000000002
aF0.42184698453638592
aF0.32217876806448198
aF0.86575465922946582
aF0.55821845585108276
aF0.41992160000000001
aF0.27723440000000005
aF0.33000000000000002
aa(lp20
F0.46773119784101386
aF0.15897335093569609
aF0.76442034978117979
aF0.7426034362966204
aF0.55894200000000005
aF0.23757120000000001
aF0.33000000000000002
aF0.49262717196860262
aF0.11151227542104358
aF0.77158403006850773
aF0.72350484312559316
aF0.55894200000000005
aF0.23757120000000001
aF0.33000000000000002
aa(lp21
F0.30199602748596344
aF0.66027459254585597
aF0.69323865647831118
aF0.62490580940107476
aF0.52641920000000009
aF0.28766999999999998
aF0.67000000000000004
aF0.31808823766355088
aF0.63497367132082838
aF0.724220318557111
aF0.59307482078269569
aF0.52641920000000009
aF0.28766999999999998
aF0.67000000000000004
aa(lp22
F0.22030163108798886
aF0.56552345601504295
aF0.59675975149585447
aF0.48166636061836876
aF0.52641920000000009
aF0.28766999999999998
aF0.67000000000000004
aF0.27676467030320784
aF0.57866248321472147
aF0.67557205569472811
aF0.48166636061836876
aF0.52641920000000009
aF0.28766999999999998
aF0.67000000000000004
aa(lp23
F0.3407671706053047
aF0.27355779994475427
aF0.64123285230445826
aF0.54664375345978167
aF0.5867228000000001
aF0.27493760000000017
aF0.33000000000000002
aF0.64687159259682447
aF0.74328078720758306
aF0.88304198055324401
aF0.36707480159220401
aF0.42328341684952236
aF0.026019578532193145
aF0.67000000000000004
aa(lp24
F0.43003780274348563
aF0.28253625860725651
aF0.80156419599146855
aF0.498897270532213
aF0.5867228000000001
aF0.27493760000000017
aF0.33000000000000002
aF0.43003780274348563
aF0.28253625860725651
aF0.80156419599146855
aF0.48298177622302346
aF0.5867228000000001
aF0.27493760000000017
aF0.33000000000000002
aa(lp25
F0.10885557072232298
aF0.63225169927461378
aF0.35331923246922797
aF0.54607063650970766
aF0.51431800000000005
aF0.25437119999999991
aF0.67000000000000004
aF0.16897160115476376
aF0.61361055849224289
aF0.47172757055447934
aF0.53015514220051818
aF0.51431800000000005
aF0.25437119999999991
aF0.67000000000000004
aa(lp26
F0.34382732469336874
aF0.46247561476986443
aF0.77594294064210556
aF0.48530289191307574
aF0.41879519999999992
aF0.29166360000000002
aF0.33000000000000002
aF0.37266951227984663
aF0.46635573721138035
aF0.81654751674809245
aF0.43755640898550713
aF0.41879519999999992
aF0.29166360000000002
aF0.33000000000000002
aa(lp27
F0.26697409652207155
aF0.49103511856487181
aF0.55883810599990014
aF0.57053131886844421
aF0.53351959999999998
aF0.18367760000000005
aF0.67000000000000004
aF0.32271436074523963
aF0.46794559999999985
aF0.63532919999999993
aF0.53870033025006514
aF0.53351959999999998
aF0.18367760000000005
aF0.67000000000000004
aa(lp28
F0.52484244604402741
aF0.22291126772836556
aF0.857800474743312
aF0.6692073835854192
aF0.53351959999999998
aF0.18367760000000005
aF0.67000000000000004
aF0.55442326075088832
aF0.18359589635568979
aF0.88533542667890119
aF0.65010879041439185
aF0.53351959999999998
aF0.18367760000000005
aF0.67000000000000004
aa(lp29
F0.44870021378113506
aF0.29809295252831908
aF0.85479273670337008
aF0.4510968340789363
aF0.37790159999999984
aF0.22527359999999988
aF0.67000000000000004
aF0.42847336209234838
aF0.28780633151699142
aF0.82449116202202222
aF0.44791373521709837
aF0.37790159999999984
aF0.22527359999999988
aF0.67000000000000004
aa(lp30
F0.44525375447828514
aF0.53596013566648537
aF0.84009770624184976
aF0.57516384179701996
aF0.38148920000000003
aF0.22965480000000013
aF0.33000000000000002
aF0.4733475649768723
aF0.5186507400485848
aF0.88486663327399595
aF0.55606524862599249
aF0.38148920000000003
aF0.22965480000000013
aF0.33000000000000002
aa(lp31
F0.41045579775205582
aF0.26960698499400737
aF0.62878600117111672
aF0.50624274862073326
aF0.55400239999999989
aF0.12275519999999993
aF0.67000000000000004
aF0.49863223714044685
aF0.40803151630550866
aF0.89183925643994644
aF0.5450455195212528
aF0.56709199999999993
aF0.20484000000000008
aF0.67000000000000004
aa(lp32
F0.55131548688759935
aF0.25338481374232413
aF0.82543953678134163
aF0.57534734744640492
aF0.59324039999999978
aF0.12373040000000017
aF0.67000000000000004
aF0.57951877134368546
aF0.23879268877848006
aF0.86268292396671387
aF0.55943185313721533
aF0.59324039999999978
aF0.12373040000000017
aF0.67000000000000004
aa(lp33
F0.45760125140828961
aF0.59421064461342821
aF0.84010174531979798
aF0.47752578561889025
aF0.36211880000000002
aF0.23600640000000012
aF0.33000000000000002
aF0.45739640308842777
aF0.59038065182380772
aF0.84124971149602989
aF0.44569479700051118
aF0.36211880000000002
aF0.23600640000000012
aF0.33000000000000002
aa(lp34
F0.3919117482956806
aF0.43028938229371716
aF0.82455435833422686
aF0.42905721671451369
aF0.47999520000000012
aF0.27254080000000014
aF0.33000000000000002
aF0.36953173239812276
aF0.40952712510172801
aF0.79036475938522344
aF0.41314172240532415
aF0.47999520000000012
aF0.27254080000000014
aF0.33000000000000002
aa(lp35
F0.43300218830880527
aF0.36176869268740219
aF0.87699425026254862
aF0.56719829605021377
aF0.42500360000000015
aF0.26791039999999988
aF0.33000000000000002
aF0.43841160122442174
aF0.35863700040738744
aF0.88435580603991648
aF0.56401519718837578
aF0.42500360000000015
aF0.26791039999999988
aF0.33000000000000002
aa(lp36
F0.28653342596532111
aF0.21414849725622459
aF0.6615022783622333
aF0.53300528892140775
aF0.37046799999999996
aF0.28764800000000007
aF0.67000000000000004
aF0.31375080909569175
aF0.20986161253649555
aF0.70127189766390319
aF0.51708979461221827
aF0.37046799999999996
aF0.28764800000000007
aF0.67000000000000004
aa(lp37
F0.56126997165178871
aF0.81075429731325921
aF0.88787907642524855
aF0.33655079336649585
aF0.4226216000000001
aF0.19549120000000003
aF0.33000000000000002
aF0.56614070259774207
aF0.81768163679164618
aF0.89188057211451022
aF0.33336769450465792
aF0.4226216000000001
aF0.19549120000000003
aF0.33000000000000002
aa(lp38
F0.23917617586661555
aF0.30668965281264954
aF0.56312474718593786
aF0.55443693440321939
aF0.46371840000000014
aF0.26353760000000009
aF0.33000000000000002
aF0.2683649837787439
aF0.60167887611729998
aF0.59675610367918952
aF0.40203398061705448
aF0.50925359999999986
aF0.22865679999999991
aF0.67000000000000004
aa(lp39
F0.21149878251017806
aF0.406326448821477
aF0.55708424696575987
aF0.55721689379420558
aF0.46371840000000014
aF0.26353760000000009
aF0.33000000000000002
aF0.23972802462634479
aF0.39606238779463077
aF0.59574493825855979
aF0.54130139948501599
aF0.46371840000000014
aF0.26353760000000009
aF0.33000000000000002
aa(lp40
F0.30054150024570475
aF0.44516744236811262
aF0.71401188345590749
aF0.47518270654669126
aF0.53389319999999996
aF0.29834600000000011
aF0.67000000000000004
aF0.3260549616715776
aF0.45529331540872564
aF0.75270899827297622
aF0.47518270654669126
aF0.53389319999999996
aF0.29834600000000011
aF0.67000000000000004
aa(lp41
F0.44882688812241739
aF0.43158163322609583
aF0.78294429114043673
aF0.42738370248790242
aF0.46851759999999987
aF0.14928279999999994
aF0.33000000000000002
aF0.47221876786700012
aF0.45270223964506007
aF0.81691368890511917
aF0.41146820817871288
aF0.46851759999999987
aF0.14928279999999994
aF0.33000000000000002
aa(lp42
F0.37297602662878088
aF0.38986825743584924
aF0.67085399723836403
aF0.47513018541547108
aF0.46851759999999987
aF0.14928279999999994
aF0.33000000000000002
aF0.44882688812241739
aF0.43158163322609583
aF0.78294429114043673
aF0.42738370248790242
aF0.46851759999999987
aF0.14928279999999994
aF0.33000000000000002
aa(lp43
F0.31863950279165704
aF0.38139391818996027
aF0.59140464920305758
aF0.50696117403385021
aF0.46851759999999987
aF0.14928279999999994
aF0.33000000000000002
aF0.37297602662878088
aF0.38986825743584924
aF0.67085399723836403
aF0.47513018541547108
aF0.46851759999999987
aF0.14928279999999994
aF0.33000000000000002
aa(lp44
F0.23421792308855077
aF0.39852593652516466
aF0.47303770426219349
aF0.55470765696141877
aF0.46851759999999987
aF0.14928279999999994
aF0.33000000000000002
aF0.31863950279165704
aF0.38139391818996027
aF0.59140464920305758
aF0.50696117403385021
aF0.46851759999999987
aF0.14928279999999994
aF0.33000000000000002
aa(lp45
F0.17892999476287602
aF0.42917905065300876
aF0.39925152721557422
aF0.58653864557979796
aF0.46851759999999987
aF0.14928279999999994
aF0.33000000000000002
aF0.23421792308855077
aF0.39852593652516466
aF0.47303770426219349
aF0.55470765696141877
aF0.46851759999999987
aF0.14928279999999994
aF0.33000000000000002
aa(lp46
F0.11149623126931056
aF0.5009619475251782
aF0.30358828754896622
aF0.63428512850736651
aF0.46851759999999987
aF0.14928279999999994
aF0.33000000000000002
aF0.17892999476287602
aF0.42917905065300876
aF0.39925152721557422
aF0.58653864557979796
aF0.46851759999999987
aF0.14928279999999994
aF0.33000000000000002
aa(lp47
F0.21798432782707305
aF0.39980793859481312
aF0.60244113930810561
aF0.50693332191880902
aF0.36852599999999996
aF0.29575600000000007
aF0.33000000000000002
aF0.52607914384638121
aF0.18756017735659683
aF0.88681071961809044
aF0.57491444600119501
aF0.47067839999999989
aF0.19879719999999992
aF0.67000000000000004
aa(lp48
F0.16292856177176845
aF0.40727274950511932
aF0.52289058980049319
aF0.5387643105371881
aF0.36852599999999996
aF0.29575600000000007
aF0.33000000000000002
aF0.21798432782707305
aF0.39980793859481312
aF0.60244113930810561
aF0.50693332191880902
aF0.36852599999999996
aF0.29575600000000007
aF0.33000000000000002
aa(lp49
F0.098391954466065412
aF0.44755944352997545
aF0.41027965786482812
aF0.58651079346475676
aF0.36852599999999996
aF0.29575600000000007
aF0.33000000000000002
aF0.16292856177176845
aF0.40727274950511932
aF0.52289058980049319
aF0.5387643105371881
aF0.36852599999999996
aF0.29575600000000007
aF0.33000000000000002
aa(lp50
F0.19830155993089021
aF0.67266254458887287
aF0.37383124701129128
aF0.52802739976632262
aF0.54103360000000011
aF0.12620080000000017
aF0.33000000000000002
aF0.24661989920321092
aF0.66261372583879674
aF0.45309684213690565
aF0.52802739976632262
aF0.54103360000000011
aF0.12620080000000017
aF0.33000000000000002
aa(lp51
F0.14923897435929698
aF0.70526640100406834
aF0.25876071101823755
aF0.57577388269389129
aF0.54103360000000011
aF0.12620080000000017
aF0.33000000000000002
aF0.19830155993089021
aF0.67266254458887287
aF0.37383124701129128
aF0.52802739976632262
aF0.54103360000000011
aF0.12620080000000017
aF0.33000000000000002
aa(lp52
F0.45201322517742942
aF0.25965405760113675
aF0.79756319475108239
aF0.7307798155743237
aF0.56178799999999995
aF0.23422759999999981
aF0.67000000000000004
aF0.44997412950147264
aF0.25858463268150728
aF0.79371053314492068
aF0.69894882695594485
aF0.56178799999999995
aF0.23422759999999981
aF0.67000000000000004
aa(lp53
F0.44973013581967369
aF0.8143975085505254
aF0.79268427806361574
aF0.30298342431898417
aF0.46870559999999983
aF0.25881959999999998
aF0.67000000000000004
aF0.49027316963272932
aF0.89296475873942072
aF0.80721701788256262
aF0.27115243570060504
aF0.46870559999999983
aF0.25881959999999998
aF0.67000000000000004
aa(lp54
F0.38467320604851313
aF0.47165141892577617
aF0.72432022122276007
aF0.50107275944933616
aF0.56386879999999984
aF0.18818319999999994
aF0.67000000000000004
aF0.4736905803226989
aF0.4484628250773362
aF0.77169294944488409
aF0.39520432369909519
aF0.40681480000000009
aF0.10308920000000014
aF0.33000000000000002
aa(lp55
F0.52186555384878608
aF0.36318832885263747
aF0.86146620509380445
aF0.43240901981602897
aF0.46351359999999991
aF0.13028760000000011
aF0.33000000000000002
aF0.51708465940528714
aF0.35989204652632123
aF0.85417686199409959
aF0.43240901981602897
aF0.46351359999999991
aF0.13028760000000011
aF0.33000000000000002
aa(lp56
F0.39422370356638881
aF0.27357078494771975
aF0.61295422330746308
aF0.5358395201479883
aF0.59721599999999986
aF0.15899560000000007
aF0.67000000000000004
aF0.29597782315157034
aF0.35427800000000004
aF0.63385760000000002
aF0.56751453692213738
aF0.51862520000000001
aF0.24889560000000016
aF0.67000000000000004
aa(lp57
F0.35394669796867179
aF0.52006627490118196
aF0.61103426402650274
aF0.43109026195756955
aF0.38566199999999995
aF0.12885999999999989
aF0.67000000000000004
aF0.40936128587428067
aF0.55717295199014782
aF0.68179518434488817
aF0.43109026195756955
aF0.38566199999999995
aF0.12885999999999989
aF0.67000000000000004
aa(lp58
F0.26958394832826132
aF0.48097444568263087
aF0.4980029913838443
aF0.47883674488513817
aF0.38566199999999995
aF0.12885999999999989
aF0.67000000000000004
aF0.35394669796867179
aF0.52006627490118196
aF0.61103426402650274
aF0.43109026195756955
aF0.38566199999999995
aF0.12885999999999989
aF0.67000000000000004
aa(lp59
F0.29051799191916294
aF0.40842056011632694
aF0.70007399671896342
aF0.61979868643219893
aF0.48531639999999998
aF0.29647959999999995
aF0.33000000000000002
aF0.29051799191916294
aF0.40842056011632694
aF0.70007399671896342
aF0.60388319212300934
aF0.48531639999999998
aF0.29647959999999995
aF0.33000000000000002
aa(lp60
F0.34070181566079227
aF0.49639265543869121
aF0.73528505250544929
aF0.55285175117002416
aF0.43261199999999994
aF0.25770000000000015
aF0.33000000000000002
aF0.39481039237007681
aF0.48192492137722065
aF0.8138642991295818
aF0.52102076255164509
aF0.43261199999999994
aF0.25770000000000015
aF0.33000000000000002
aa(lp61
F0.26167025541849842
aF0.56401976359315209
aF0.66819315143273739
aF0.64581097033113843
aF0.59376840000000009
aF0.29933319999999985
aF0.67000000000000004
aF0.30748707410999865
aF0.50861937238356314
aF0.72576753794891435
aF0.61397998171275925
aF0.59376840000000009
aF0.29933319999999985
aF0.67000000000000004
aa(lp62
F0.42022029022955576
aF0.18969960157763985
aF0.6699480797545494
aF0.57493370374930908
aF0.41278080000000017
aF0.11912599999999998
aF0.33000000000000002
aF0.44833256182743841
aF0.1789986455797461
aF0.70849012874952566
aF0.5590182094401196
aF0.41278080000000017
aF0.11912599999999998
aF0.33000000000000002
aa(lp63
F0.49523356134495683
aF0.75018290891359451
aF0.87150749880546952
aF0.31243070258597594
aF0.4283608000000001
aF0.24945999999999985
aF0.33000000000000002
aF0.51531763758850702
aF0.78848667365568159
aF0.88303232446935065
aF0.28059971396759681
aF0.4283608000000001
aF0.24945999999999985
aF0.33000000000000002
aa(lp64
F0.17525932075288053
aF0.63209586949224528
aF0.37705677604804821
aF0.45263761308300887
aF0.54300719999999991
aF0.14576719999999987
aF0.67000000000000004
aF0.23162075723338946
aF0.66667589369147673
aF0.44908618153823809
aF0.4208066244646298
aF0.54300719999999991
aF0.14576719999999987
aF0.67000000000000004
aa(lp65
F0.46070682097345089
aF0.36703610011759336
aF0.85841308822496032
aF0.58123162400239847
aF0.42755040000000016
aF0.20969160000000003
aF0.33000000000000002
aF0.41861848352628828
aF0.36703610011759336
aF0.85841308822496032
aF0.5780485251405606
aF0.56130479999999994
aF0.29917920000000003
aF0.67000000000000004
aa(lp66
F0.42225359737438523
aF0.51042668073716724
aF0.80834299993691228
aF0.54370734475973614
aF0.44445119999999994
aF0.21484200000000014
aF0.67000000000000004
aF0.47179021806482091
aF0.50109160293278943
aF0.87964564354497166
aF0.51187635614135696
aF0.44445119999999994
aF0.21484200000000014
aF0.67000000000000004
aa(lp67
F0.31505037857854246
aF0.53271788611778703
aF0.73782975009344476
aF0.61603403540830326
aF0.52345159999999991
aF0.29237760000000002
aF0.67000000000000004
aF0.29303156485411425
aF0.55625339242788385
aF0.70548659096006072
aF0.60011854109911367
aF0.52345159999999991
aF0.29237760000000002
aF0.67000000000000004
aa(lp68
F0.41104331494196511
aF0.21938375351120207
aF0.7205009348042466
aF0.48356635232899997
aF0.53379599999999994
aF0.2315652
aF0.33000000000000002
aF0.45488651729043761
aF0.23158100552247909
aF0.79946447304983859
aF0.48356635232899997
aF0.53379599999999994
aF0.2315652
aF0.33000000000000002
aa(lp69
F0.44732824078690958
aF0.47249014608055617
aF0.76901183353251557
aF0.41964670323937603
aF0.57197759999999997
aF0.14426600000000001
aF0.67000000000000004
aF0.4681832434315783
aF0.49523650504478522
aF0.80191476887072566
aF0.38781571462099695
aF0.57197759999999997
aF0.14426600000000001
aF0.67000000000000004
aa(lp70
F0.40242458305672857
aF0.43738609457517724
aF0.69723635793814975
aF0.45147769185775516
aF0.57197759999999997
aF0.14426600000000001
aF0.67000000000000004
aF0.44732824078690958
aF0.47249014608055617
aF0.76901183353251557
aF0.41964670323937603
aF0.57197759999999997
aF0.14426600000000001
aF0.67000000000000004
aa(lp71
F0.32805522904897366
aF0.41305407217444207
aF0.58013728709315338
aF0.49922417478532377
aF0.57197759999999997
aF0.14426600000000001
aF0.67000000000000004
aF0.40242458305672857
aF0.43738609457517724
aF0.69723635793814975
aF0.45147769185775516
aF0.57197759999999997
aF0.14426600000000001
aF0.67000000000000004
aa(lp72
F0.24712817020238406
aF0.42441394493676227
aF0.46107766758387037
aF0.54697065771289244
aF0.57197759999999997
aF0.14426600000000001
aF0.67000000000000004
aF0.32805522904897366
aF0.41305407217444207
aF0.58013728709315338
aF0.49922417478532377
aF0.57197759999999997
aF0.14426600000000001
aF0.67000000000000004
aa(lp73
F0.19093161508338524
aF0.45144529132252453
aF0.38588910700805812
aF0.57880164633127151
aF0.57197759999999997
aF0.14426600000000001
aF0.67000000000000004
aF0.24712817020238406
aF0.42441394493676227
aF0.46107766758387037
aF0.54697065771289244
aF0.57197759999999997
aF0.14426600000000001
aF0.67000000000000004
aa(lp74
F0.22834651044432921
aF0.4749358697051278
aF0.34406811475501975
aF0.59790023950229898
aF0.62507847881018674
aF0.058163489760252499
aF0.67000000000000004
aF0.19093161508338524
aF0.45144529132252453
aF0.38588910700805812
aF0.57880164633127151
aF0.57197759999999997
aF0.14426600000000001
aF0.67000000000000004
aa(lp75
F0.52602400264484162
aF0.47977959327408365
aF0.88698465035949892
aF0.66328156758927859
aF0.54033599999999993
aF0.14554319999999982
aF0.33000000000000002
aF0.52263647087192822
aF0.48653686750170733
aF0.8827022158868314
aF0.66009846872744071
aF0.54033599999999993
aF0.14554319999999982
aF0.33000000000000002
aa(lp76
F0.34743878900885289
aF0.30035512523443264
aF0.69789782154958535
aF0.51377921264096382
aF0.50213199999999991
aF0.24988719999999986
aF0.33000000000000002
aF0.52935989234958203
aF0.47293802747660257
aF0.89113109189878759
aF0.66328156758927859
aF0.54033599999999993
aF0.14554319999999982
aF0.33000000000000002
aa(lp77
F0.29368000108082598
aF0.31123376376376904
aF0.61874184544772848
aF0.5456102012593429
aF0.50213199999999991
aF0.24988719999999986
aF0.33000000000000002
aF0.34743878900885289
aF0.30035512523443264
aF0.69789782154958535
aF0.51377921264096382
aF0.50213199999999991
aF0.24988719999999986
aF0.33000000000000002
aa(lp78
F0.16000290805317682
aF0.35980688991941284
aF0.42580031551600472
aF0.5296947069501533
aF0.50213199999999991
aF0.24988719999999986
aF0.33000000000000002
aF0.21039442731276567
aF0.34892825139007649
aF0.5049562916178616
aF0.5296947069501533
aF0.50213199999999991
aF0.24988719999999986
aF0.33000000000000002
aa(lp79
F0.15551580026161316
aF0.37853359211091941
aF0.3481258412408586
aF0.56152569556853238
aF0.5207057669424987
aF0.18032416972122506
aF0.33000000000000002
aF0.16000290805317682
aF0.35980688991941284
aF0.42580031551600472
aF0.5296947069501533
aF0.50213199999999991
aF0.24988719999999986
aF0.33000000000000002
aa(lp80
F0.15864312173954503
aF0.397368477018815
aF0.30397701209700756
aF0.58062428873955985
aF0.53499828060475141
aF0.12679541792170781
aF0.33000000000000002
aF0.15551580026161316
aF0.37853359211091941
aF0.3481258412408586
aF0.56152569556853238
aF0.5207057669424987
aF0.18032416972122506
aF0.33000000000000002
aa(lp81
F0.14495827405744535
aF0.46214955397127505
aF0.19381219617090081
aF0.56789189329220824
aF0.5862623520646405
aF0.030650264997958133
aF0.33000000000000002
aF0.14066368841768123
aF0.45898580987149201
aF0.20116003417068598
aF0.56470879443037036
aF0.58102368469669408
aF0.044063555578871316
aF0.33000000000000002
aa(lp82
F0.16762827068161618
aF0.56954863154347701
aF0.54107759950931111
aF0.62075616256983979
aF0.47905440000000005
aF0.3219674255790867
aF0.33000000000000002
aF0.49073133375503519
aF0.63861917197814189
aF0.90284239975872038
aF0.5034320723257304
aF0.43034840000000008
aF0.24083199999999999
aF0.67000000000000004
aa(lp83
F0.44291251606247667
aF0.62668042057555762
aF0.88040547530375401
aF0.49489165892447623
aF0.59222800000000009
aF0.2549807999999999
aF0.67000000000000004
aF0.43725716867597542
aF0.62642369143232524
aF0.87240959573068544
aF0.49489165892447623
aF0.59222800000000009
aF0.2549807999999999
aF0.67000000000000004
aa(lp84
F0.52604128477901069
aF0.60017125500946733
aF0.85464994801321015
aF0.50015252556837875
aF0.45590280000000016
aF0.12483800000000009
aF0.67000000000000004
aF0.52604128477901069
aF0.60017125500946733
aF0.85464994801321015
aF0.48423703125918921
aF0.45590280000000016
aF0.12483800000000009
aF0.67000000000000004
aa(lp85
F0.23919705062634858
aF0.5646415889279961
aF0.55631573365899634
aF0.41032786301145946
aF0.42884959999999983
aF0.24649159999999987
aF0.33000000000000002
aF0.49580282768800188
aF0.44702838535086825
aF0.86640084379989413
aF0.54877467899283894
aF0.38556999999999986
aF0.16792839999999992
aF0.67000000000000004
aa(lp86
F0.37976947264863298
aF0.65324167050938375
aF0.62409856780212603
aF0.60661731489038517
aF0.37946880000000005
aF0.16204000000000002
aF0.67000000000000004
aF0.42164190267443208
aF0.89597706006318523
aF0.61710693188760923
aF0.21615883243934694
aF0.42884959999999983
aF0.24649159999999987
aF0.33000000000000002
aa(lp87
F0.36797775161876434
aF0.44073506475128321
aF0.73014853648761435
aF0.53025031685648716
aF0.44318999999999986
aF0.20975520000000003
aF0.33000000000000002
aF0.4481640896229262
aF0.41326325525550411
aF0.88287589218891038
aF0.50902525449080893
aF0.50595520000000005
aF0.25589079999999986
aF0.33000000000000002
aa(lp88
F0.39891505668156518
aF0.44999575354501042
aF0.66886448841766433
aF0.49666273513120285
aF0.51210559999999994
aF0.1081427999999999
aF0.33000000000000002
aF0.46430787367605897
aF0.50459569054645004
aF0.89112442963883542
aF0.50954394045034535
aF0.4678875999999999
aF0.23552080000000011
aF0.67000000000000004
aa(lp89
F0.47010991758585641
aF0.33321298363767476
aF0.84378806275981577
aF0.50664111344329232
aF0.36223519999999992
aF0.17958600000000011
aF0.33000000000000002
aF0.49262524913673938
aF0.33507665338997905
aF0.87573374689796424
aF0.49072561913410273
aF0.36223519999999992
aF0.17958600000000011
aF0.33000000000000002
aa(lp90
F0.37740715768641664
aF0.39995962684385911
aF0.79136845522359101
aF0.54188836291513887
aF0.38737999999999995
aF0.25778239999999997
aF0.67000000000000004
aF0.43344590003957634
aF0.3909348565097453
aF0.87075716253959534
aF0.52597286860594927
aF0.38737999999999995
aF0.25778239999999997
aF0.67000000000000004
aa(lp91
F0.29611982238629658
aF0.42727152834219773
aF0.67465475982187573
aF0.55780385722432846
aF0.38737999999999995
aF0.25778239999999997
aF0.67000000000000004
aF0.35036924270557196
aF0.41036619837454535
aF0.75274588062043046
aF0.54188836291513887
aF0.38737999999999995
aF0.25778239999999997
aF0.67000000000000004
aa(lp92
F0.33135037089382352
aF0.60801736862323674
aF0.73319877803996292
aF0.42332620636871765
aF0.50647599999999993
aF0.27573240000000004
aF0.33000000000000002
aF0.35792935850484847
aF0.62999703382720829
aF0.7666187468837744
aF0.39149521775033852
aF0.50647599999999993
aF0.27573240000000004
aF0.33000000000000002
aa(lp93
F0.32140427306797226
aF0.61689747527198402
aF0.61421445659266705
aF0.45062239319357933
aF0.49327040000000011
aF0.17681560000000013
aF0.67000000000000004
aF0.34945265767547984
aF0.63285096971375232
aF0.65089532374567294
aF0.41879140457520025
aF0.49327040000000011
aF0.17681560000000013
aF0.67000000000000004
aa(lp94
F0.26491435301808863
aF0.59633753477325446
aF0.53700498712435374
aF0.48245338181195846
aF0.49327040000000011
aF0.17681560000000013
aF0.67000000000000004
aF0.32140427306797226
aF0.61689747527198402
aF0.61421445659266705
aF0.45062239319357933
aF0.49327040000000011
aF0.17681560000000013
aF0.67000000000000004
aa(lp95
F0.18474007250187574
aF0.59511181384634493
aF0.41741093495167797
aF0.53019986473952707
aF0.49327040000000011
aF0.17681560000000013
aF0.67000000000000004
aF0.26491435301808863
aF0.59633753477325446
aF0.53700498712435374
aF0.48245338181195846
aF0.49327040000000011
aF0.17681560000000013
aF0.67000000000000004
aa(lp96
F0.14345532992183943
aF0.61408496007634739
aF0.33979629038620518
aF0.56203085335790615
aF0.49327040000000011
aF0.17681560000000013
aF0.67000000000000004
aF0.18474007250187574
aF0.59511181384634493
aF0.41741093495167797
aF0.53019986473952707
aF0.49327040000000011
aF0.17681560000000013
aF0.67000000000000004
aa(lp97
F0.30418907853800642
aF0.57339842645712946
aF0.65389926249242336
aF0.61902312439451224
aF0.58712519999999979
aF0.22393000000000002
aF0.67000000000000004
aF0.32768339980828198
aF0.54925966965454553
aF0.68579472329840174
aF0.60310763008532264
aF0.58712519999999979
aF0.22393000000000002
aF0.67000000000000004
aa(lp98
F0.25382980957760842
aF0.66308144981927308
aF0.5747715490950519
aF0.66676960732208068
aF0.58712519999999979
aF0.22393000000000002
aF0.67000000000000004
aF0.30418907853800642
aF0.57339842645712946
aF0.65389926249242336
aF0.61902312439451224
aF0.58712519999999979
aF0.22393000000000002
aF0.67000000000000004
aa(lp99
F0.32304035917530249
aF0.40975776435018291
aF0.64159191799318405
aF0.58175237897619525
aF0.56623200000000007
aF0.21237640000000013
aF0.33000000000000002
aF0.32304035917530249
aF0.40975776435018291
aF0.64159191799318405
aF0.56583688466700566
aF0.56623200000000007
aF0.21237640000000013
aF0.33000000000000002
aa(lp100
F0.24240913223355573
aF0.47863175697788274
aF0.54381353159623591
aF0.62949886190376392
aF0.56623200000000007
aF0.21237640000000013
aF0.33000000000000002
aF0.32304035917530249
aF0.40975776435018291
aF0.64159191799318405
aF0.58175237897619525
aF0.56623200000000007
aF0.21237640000000013
aF0.33000000000000002
aa(lp101
F0.19856759292059536
aF0.53937406001985022
aF0.4919060567005385
aF0.66132985052214288
aF0.56623200000000007
aF0.21237640000000013
aF0.33000000000000002
aF0.24240913223355573
aF0.47863175697788274
aF0.54381353159623591
aF0.62949886190376392
aF0.56623200000000007
aF0.21237640000000013
aF0.33000000000000002
aa(lp102
F0.29925488410881507
aF0.61119193315491882
aF0.52309820815124264
aF0.61870051732486486
aF0.4889420000000001
aF0.11792920000000003
aF0.33000000000000002
aF0.33366372655413146
aF0.55997498178147365
aF0.58442387342199065
aF0.61870051732486486
aF0.4889420000000001
aF0.11792920000000003
aF0.33000000000000002
aa(lp103
F0.35783210412329791
aF0.51840259723111048
aF0.70207085303893169
aF0.57098697947051635
aF0.54248520000000011
aF0.19659319999999986
aF0.67000000000000004
aF0.35783210412329791
aF0.51840259723111048
aF0.70207085303893169
aF0.55507148516132676
aF0.54248520000000011
aF0.19659319999999986
aF0.67000000000000004
aa(lp104
F0.28641818617127213
aF0.58051030455788322
aF0.59986091028636357
aF0.61873346239808502
aF0.54248520000000011
aF0.19659319999999986
aF0.67000000000000004
aF0.35783210412329791
aF0.51840259723111048
aF0.70207085303893169
aF0.57098697947051635
aF0.54248520000000011
aF0.19659319999999986
aF0.67000000000000004
aa(lp105
F0.30526714277967237
aF0.28957421294995883
aF0.59650504874139221
aF0.56326064360317718
aF0.47379800000000005
aF0.20607240000000004
aF0.33000000000000002
aF0.33328563787060961
aF0.27784980327155784
aF0.6347481947638236
aF0.53142965498479811
aF0.47379800000000005
aF0.20607240000000004
aF0.33000000000000002
aa(lp106
F0.24877080948462243
aF0.32414643564463008
aF0.52447189840878683
aF0.59509163222155625
aF0.47379800000000005
aF0.20607240000000004
aF0.33000000000000002
aF0.30526714277967237
aF0.28957421294995883
aF0.59650504874139221
aF0.56326064360317718
aF0.47379800000000005
aF0.20607240000000004
aF0.33000000000000002
aa(lp107
F0.16839137951542874
aF0.40096417176294741
aF0.43280251898180533
aF0.64283811514912492
aF0.47379800000000005
aF0.20607240000000004
aF0.33000000000000002
aF0.24877080948462243
aF0.32414643564463008
aF0.52447189840878683
aF0.59509163222155625
aF0.47379800000000005
aF0.20607240000000004
aF0.33000000000000002
aa(lp108
F0.15496004887614365
aF0.43878790499429454
aF0.42240438270758707
aF0.72241558669507233
aF0.47379800000000005
aF0.20607240000000004
aF0.33000000000000002
aF0.16672605454109043
aF0.39863021496852513
aF0.42955608758840036
aF0.67466910376750389
aF0.47379800000000005
aF0.20607240000000004
aF0.33000000000000002
aa(lp109
F0.30263201145145663
aF0.51599923552913263
aF0.64915705567085991
aF0.60711419662271804
aF0.59824680000000008
aF0.22914799999999999
aF0.33000000000000002
aF0.27656036026674585
aF0.53768606495023297
aF0.61554632182495761
aF0.59119870231352845
aF0.59824680000000008
aF0.22914799999999999
aF0.33000000000000002
aa(lp110
F0.23645707423407838
aF0.59951602471790688
aF0.56354639260562467
aF0.6548606795502866
aF0.59824680000000008
aF0.22914799999999999
aF0.33000000000000002
aF0.30263201145145663
aF0.51599923552913263
aF0.64915705567085991
aF0.60711419662271804
aF0.59824680000000008
aF0.22914799999999999
aF0.33000000000000002
aa(lp111
F0.30844636088276484
aF0.69636547133931082
aF0.56482620760007551
aF0.60591814722538251
aF0.44228559999999995
aF0.21025360000000007
aF0.33000000000000002
aF0.33611308697997694
aF0.65697693072711449
aF0.63434279696787321
aF0.57408715860700332
aF0.44228559999999995
aF0.21025360000000007
aF0.33000000000000002
aa(lp112
F0.24098245418663228
aF0.57490112438506247
aF0.58868585001014329
aF0.5598162123247824
aF0.50878319999999988
aF0.25436039999999982
aF0.33000000000000002
aF0.26753824463200254
aF0.56790385842061186
aF0.62806907320254768
aF0.54390071801559281
aF0.50878319999999988
aF0.25436039999999982
aF0.33000000000000002
aa(lp113
F0.19778723338245874
aF0.60790643124603927
aF0.51592141468695518
aF0.59164720094316148
aF0.50878319999999988
aF0.25436039999999982
aF0.33000000000000002
aF0.24098245418663228
aF0.57490112438506247
aF0.58868585001014329
aF0.5598162123247824
aF0.50878319999999988
aF0.25436039999999982
aF0.33000000000000002
aa(lp114
F0.4725535882066742
aF0.51305556185418089
aF0.78145934164882325
aF0.46166026596183157
aF0.44464439999999994
aF0.11667839999999999
aF0.33000000000000002
aF0.4725535882066742
aF0.51305556185418089
aF0.78145934164882325
aF0.44574477165264198
aF0.44464439999999994
aF0.11667839999999999
aF0.33000000000000002
aa(lp115
F0.38805910551351247
aF0.49626009315139469
aF0.66304417396357673
aF0.50940674888940018
aF0.44464439999999994
aF0.11667839999999999
aF0.33000000000000002
aF0.4725535882066742
aF0.51305556185418089
aF0.78145934164882325
aF0.46166026596183157
aF0.44464439999999994
aF0.11667839999999999
aF0.33000000000000002
aa(lp116
F0.33292022065027921
aF0.50496024794422001
aF0.58361923685015782
aF0.54123773750777926
aF0.44464439999999994
aF0.11667839999999999
aF0.33000000000000002
aF0.38805910551351247
aF0.49626009315139469
aF0.66304417396357673
aF0.50940674888940018
aF0.44464439999999994
aF0.11667839999999999
aF0.33000000000000002
aa(lp117
F0.26122638528355424
aF0.54699209303828555
aF0.47164797399731773
aF0.58898422043534793
aF0.44464439999999994
aF0.11667839999999999
aF0.33000000000000002
aF0.33292022065027921
aF0.50496024794422001
aF0.58361923685015782
aF0.54123773750777926
aF0.44464439999999994
aF0.11667839999999999
aF0.33000000000000002
aa(lp118
F0.22988787321466686
aF0.59270554042442181
aF0.40611711060483202
aF0.620815209053727
aF0.44464439999999994
aF0.11667839999999999
aF0.33000000000000002
aF0.26122638528355424
aF0.54699209303828555
aF0.47164797399731773
aF0.58898422043534793
aF0.44464439999999994
aF0.11667839999999999
aF0.33000000000000002
aa(lp119
F0.27337824258249666
aF0.59808020878565782
aF0.58711165573684243
aF0.55056835520148473
aF0.39194800000000002
aF0.26003240000000005
aF0.67000000000000004
aF0.31771839289335863
aF0.58474130146772085
aF0.66589037672451246
aF0.51873736658310565
aF0.39194800000000002
aF0.26003240000000005
aF0.67000000000000004
aa(lp120
F0.415700089000481
aF0.69602270389861221
aF0.75435855100864513
aF0.53755107240599864
aF0.40549679999999988
aF0.24327359999999984
aF0.33000000000000002
aF0.41410363794503213
aF0.69203912660371425
aF0.75401535566209499
aF0.50572008378761957
aF0.40549679999999988
aF0.24327359999999984
aF0.33000000000000002
aa(lp121
F0.36565590581103219
aF0.7354498025764169
aF0.64144378848078953
aF0.58529755533356731
aF0.40549679999999988
aF0.24327359999999984
aF0.33000000000000002
aF0.415700089000481
aF0.69602270389861221
aF0.75435855100864513
aF0.53755107240599864
aF0.40549679999999988
aF0.24327359999999984
aF0.33000000000000002
aa(lp122
F0.24847260762310736
aF0.4688029263537114
aF0.64260575067130221
aF0.4132738210080904
aF0.52299800000000007
aF0.29541679999999992
aF0.33000000000000002
aF0.45036768644228936
aF0.51393526100004971
aF0.88811215834099744
aF0.42708783344869461
aF0.47505319999999995
aF0.252384
aF0.67000000000000004
aa(lp123
F0.20633835284389182
aF0.43085374769926654
aF0.57229306925221057
aF0.44510480962646953
aF0.52299800000000007
aF0.29541679999999992
aF0.33000000000000002
aF0.24847260762310736
aF0.4688029263537114
aF0.64260575067130221
aF0.4132738210080904
aF0.52299800000000007
aF0.29541679999999992
aF0.33000000000000002
aa(lp124
F0.1423852397717984
aF0.40185360110971119
aF0.4562619044530255
aF0.49285129255403815
aF0.52299800000000007
aF0.29541679999999992
aF0.33000000000000002
aF0.20633835284389182
aF0.43085374769926654
aF0.57229306925221057
aF0.44510480962646953
aF0.52299800000000007
aF0.29541679999999992
aF0.33000000000000002
aa(lp125
F0.086139602712949251
aF0.40843825668332839
aF0.3368429695312628
aF0.54059777548160681
aF0.52299800000000007
aF0.29541679999999992
aF0.33000000000000002
aF0.1423852397717984
aF0.40185360110971119
aF0.4562619044530255
aF0.49285129255403815
aF0.52299800000000007
aF0.29541679999999992
aF0.33000000000000002
aa(lp126
F0.3022484129843267
aF0.36103470759991863
aF0.69098739826866584
aF0.50876678686322774
aF0.52299800000000007
aF0.29541679999999992
aF0.33000000000000002
aF0.32813118157194493
aF0.3628307696737309
aF0.73094705493669809
aF0.47693579824484861
aF0.52299800000000007
aF0.29541679999999992
aF0.33000000000000002
aa(lp127
F0.35435028424986509
aF0.68712058826275846
aF0.6029315818698201
aF0.55903651225857509
aF0.5866887999999999
aF0.11197160000000003
aF0.67000000000000004
aF0.50815835664864895
aF0.24220604729772965
aF0.84790289925003604
aF0.43314240579379631
aF0.56408400000000003
aF0.20537320000000001
aF0.33000000000000002
aa(lp128
F0.28007834749247912
aF0.76625468315313694
aF0.46502096633955931
aF0.62269848949533335
aF0.5866887999999999
aF0.11197160000000003
aF0.67000000000000004
aF0.31021233071036242
aF0.71976902751478211
aF0.53000632737388709
aF0.59086750087695428
aF0.5866887999999999
aF0.11197160000000003
aF0.67000000000000004
aa(lp129
F0.35222856460122792
aF0.46323327370423223
aF0.67748201161385713
aF0.49539554347430509
aF0.44189599999999984
aF0.17981279999999983
aF0.33000000000000002
aF0.38041587710251218
aF0.46837622352630459
aF0.71715000963654096
aF0.49539554347430509
aF0.44189599999999984
aF0.17981279999999983
aF0.33000000000000002
aa(lp130
F0.26837873258140021
aF0.47172603771935506
aF0.55818359307339693
aF0.5431420264018737
aF0.44189599999999984
aF0.17981279999999983
aF0.33000000000000002
aF0.35222856460122792
aF0.46323327370423223
aF0.67748201161385713
aF0.49539554347430509
aF0.44189599999999984
aF0.17981279999999983
aF0.33000000000000002
aa(lp131
F0.28758458423216238
aF0.25936933041960941
aF0.54897546641810246
aF0.57446101356832624
aF0.41387600000000013
aF0.17276079999999999
aF0.67000000000000004
aF0.29410751702400822
aF0.45722154948250732
aF0.5954611978916674
aF0.38398708330997827
aF0.44189599999999984
aF0.17981279999999983
aF0.33000000000000002
aa(lp132
F0.51465882922908934
aF0.61418985727212738
aF0.84719324099708115
aF0.43054467881265057
aF0.50248999999999988
aF0.12797799999999987
aF0.67000000000000004
aF0.48853065214810659
aF0.5937480381814183
aF0.81281109399805407
aF0.41462918450346103
aF0.50248999999999988
aF0.12797799999999987
aF0.67000000000000004
aa(lp133
F0.29412188289475794
aF0.49531866155067023
aF0.60806547647575793
aF0.55044548758541767
aF0.41718639999999996
aF0.19951839999999982
aF0.67000000000000004
aF0.32030252373724299
aF0.48670825050323535
aF0.64712774499147796
aF0.5186144989670386
aF0.41718639999999996
aF0.19951839999999982
aF0.67000000000000004
aa(lp134
F0.17990372346030728
aF0.54973022773128688
aF0.41668845585233322
aF0.53452999327622819
aF0.41718639999999996
aF0.19951839999999982
aF0.67000000000000004
aF0.22562809773975823
aF0.5364521415547987
aF0.49547745100000251
aF0.53452999327622819
aF0.41718639999999996
aF0.19951839999999982
aF0.67000000000000004
aa(lp135
F0.33534032636756878
aF0.48535724777912392
aF0.67294317558326822
aF0.38649250042413097
aF0.4103871999999999
aF0.20466359999999995
aF0.33000000000000002
aF0.38015510745951625
aF0.54607479999999986
aF0.72487959999999985
aF0.37057700611494138
aF0.4103871999999999
aF0.20466359999999995
aF0.33000000000000002
aa(lp136
F0.40695440051966969
aF0.5764446640331109
aF0.64502365949251261
aF0.53058119998317521
aF0.38190440000000014
aF0.10337999999999994
aF0.67000000000000004
aF0.51995177733079567
aF0.68632868727640572
aF0.8637606707442671
aF0.4341099086928521
aF0.42002960000000017
aF0.17835239999999999
aF0.67000000000000004
aa(lp137
F0.42897187636244472
aF0.56070101837521591
aF0.68309157541539989
aF0.61015867152912295
aF0.38190440000000014
aF0.10337999999999994
aF0.67000000000000004
aF0.42686826616570211
aF0.55727603516130242
aF0.68102852885879273
aF0.57832768291074388
aF0.38190440000000014
aF0.10337999999999994
aF0.67000000000000004
aa(lp138
F0.40232571486901325
aF0.55516078840041883
aF0.72586316420520303
aF0.44079537123237023
aF0.57025000000000003
aF0.1570888
aF0.33000000000000002
aF0.53074294098739139
aF0.30504544420762303
aF0.89822848537930366
aF0.51382791405354988
aF0.58101799999999992
aF0.20022039999999991
aF0.33000000000000002
aa(lp139
F0.50902976191043992
aF0.46108753975558014
aF0.82271453356524626
aF0.55239195253943163
aF0.59270479999999992
aF0.11497199999999985
aF0.67000000000000004
aF0.48077624134242297
aF0.47017502650372017
aF0.78376048904349749
aF0.53647645823024204
aF0.59270479999999992
aF0.11497199999999985
aF0.67000000000000004
aa(lp140
F0.31197045238264592
aF0.42066769970191764
aF0.5364135521281852
aF0.41713746640658927
aF0.53359239999999986
aF0.10991719999999994
aF0.33000000000000002
aF0.35259254555576264
aF0.4638273982109915
aF0.60365382096684717
aF0.41713746640658927
aF0.53359239999999986
aF0.10991719999999994
aF0.33000000000000002
aa(lp141
F0.29740117290744827
aF0.45476718399163901
aF0.60066463735881181
aF0.40988748128392416
aF0.50074760000000007
aF0.18259679999999995
aF0.67000000000000004
aF0.4934175759471458
aF0.57823925325871739
aF0.89058476997853797
aF0.46218070262574207
aF0.59482159999999984
aF0.19298399999999988
aF0.67000000000000004
aa(lp142
F0.4449355432432911
aF0.64231885515510501
aF0.84296614106533529
aF0.44783956901361754
aF0.58193400000000006
aF0.21663640000000015
aF0.67000000000000004
aF0.47711998855500393
aF0.66237463279849962
aF0.88657391316372769
aF0.42874097584259008
aF0.58193400000000006
aF0.21663640000000015
aF0.67000000000000004
aa(lp143
F0.35329145954237778
aF0.56367184576426188
aF0.69105851944531904
aF0.49235727561068088
aF0.52091279999999995
aF0.19326199999999999
aF0.33000000000000002
aF0.45517957928966069
aF0.57946374821522539
aF0.90462786783511251
aF0.51191518994747143
aF0.40268359999999992
aF0.28565639999999987
aF0.67000000000000004
aa(lp144
F0.29705176319984389
aF0.56382999548040369
aF0.61115865513030943
aF0.52418826422905995
aF0.52091279999999995
aF0.19326199999999999
aF0.33000000000000002
aF0.35329145954237778
aF0.56367184576426188
aF0.69105851944531904
aF0.49235727561068088
aF0.52091279999999995
aF0.19326199999999999
aF0.33000000000000002
aa(lp145
F0.21970293585908499
aF0.59364890444732799
aF0.49533520165523121
aF0.57193474715662862
aF0.52091279999999995
aF0.19326199999999999
aF0.33000000000000002
aF0.29705176319984389
aF0.56382999548040369
aF0.61115865513030943
aF0.52418826422905995
aF0.52091279999999995
aF0.19326199999999999
aF0.33000000000000002
aa(lp146
F0.1709401886786053
aF0.65636416715653068
aF0.39349692039426787
aF0.61968123008419729
aF0.52091279999999995
aF0.19326199999999999
aF0.33000000000000002
aF0.21970293585908499
aF0.59364890444732799
aF0.49533520165523121
aF0.57193474715662862
aF0.52091279999999995
aF0.19326199999999999
aF0.33000000000000002
aa(lp147
F0.27425474781924963
aF0.6835454073655981
aF0.58849151115973797
aF0.4922711727864682
aF0.46619160000000015
aF0.26726160000000015
aF0.33000000000000002
aF0.27425474781924963
aF0.6835454073655981
aF0.58849151115973797
aF0.47635567847727867
aF0.46619160000000015
aF0.26726160000000015
aF0.33000000000000002
aa(lp148
F0.21292246979449034
aF0.68969473814338578
aF0.46904936852215506
aF0.54001765571403681
aF0.46619160000000015
aF0.26726160000000015
aF0.33000000000000002
aF0.27425474781924963
aF0.6835454073655981
aF0.58849151115973797
aF0.4922711727864682
aF0.46619160000000015
aF0.26726160000000015
aF0.33000000000000002
aa(lp149
F0.28749818594393395
aF0.36206538433985996
aF0.66028595681690549
aF0.58339071996038316
aF0.46619160000000015
aF0.26726160000000015
aF0.33000000000000002
aF0.31543263567102747
aF0.34561048502293018
aF0.69674464972366934
aF0.58339071996038316
aF0.46619160000000015
aF0.26726160000000015
aF0.33000000000000002
aa(lp150
F0.21067203847262167
aF0.43194224076727039
aF0.56322172734644371
aF0.63113720288795183
aF0.46619160000000015
aF0.26726160000000015
aF0.33000000000000002
aF0.28749818594393395
aF0.36206538433985996
aF0.66028595681690549
aF0.58339071996038316
aF0.46619160000000015
aF0.26726160000000015
aF0.33000000000000002
aa(lp151
F0.17406741660397537
aF0.49321565162466074
aF0.51194227287595351
aF0.6629681915063308
aF0.46619160000000015
aF0.26726160000000015
aF0.33000000000000002
aF0.21067203847262167
aF0.43194224076727039
aF0.56322172734644371
aF0.63113720288795183
aF0.46619160000000015
aF0.26726160000000015
aF0.33000000000000002
aa(lp152
F0.1832534101518444
aF0.45457680410918078
aF0.52616065596531458
aF0.64705269719714131
aF0.46619160000000015
aF0.26726160000000015
aF0.33000000000000002
aF0.18534789954022213
aF0.45714291561544973
aF0.52922688212261448
aF0.64705269719714131
aF0.46619160000000015
aF0.26726160000000015
aF0.33000000000000002
aa(lp153
F0.30791994907764325
aF0.33488293249852602
aF0.63723388172066042
aF0.50750564309416746
aF0.56656039999999985
aF0.26851319999999995
aF0.67000000000000004
aF0.30641830957685334
aF0.33888124990828922
aF0.6372225238554069
aF0.50750564309416746
aF0.56656039999999985
aF0.26851319999999995
aF0.67000000000000004
aa(lp154
F0.23298379060812896
aF0.35241978311256295
aF0.51892623793796844
aF0.55525212602173613
aF0.56656039999999985
aF0.26851319999999995
aF0.67000000000000004
aF0.30791994907764325
aF0.33488293249852602
aF0.63723388172066042
aF0.50750564309416746
aF0.56656039999999985
aF0.26851319999999995
aF0.67000000000000004
aa(lp155
F0.11251074606016909
aF0.42032940430633303
aF0.33123346670862974
aF0.57116762033092561
aF0.56656039999999985
aF0.26851319999999995
aF0.67000000000000004
aF0.18001307699925498
aF0.38332513988950756
aF0.44524535675852378
aF0.55525212602173613
aF0.56656039999999985
aF0.26851319999999995
aF0.67000000000000004
aa(lp156
F0.13522641679138561
aF0.43762564127922265
aF0.29516630454444448
aF0.5870831146401152
aF0.60904340967002812
aF0.21038236576053357
aF0.67000000000000004
aF0.11251074606016909
aF0.42032940430633303
aF0.33123346670862974
aF0.57116762033092561
aF0.56656039999999985
aF0.26851319999999995
aF0.67000000000000004
aa(lp157
F0.24619335898586389
aF0.57426672712669313
aF0.62821977952883468
aF0.57413999804810989
aF0.59912600000000005
aF0.28093840000000014
aF0.67000000000000004
aF0.13522641679138561
aF0.43762564127922265
aF0.29516630454444448
aF0.5870831146401152
aF0.60904340967002812
aF0.21038236576053357
aF0.67000000000000004
aa(lp158
F0.13629794175038271
aF0.63838699569416202
aF0.52726022888746615
aF0.62188648097567845
aF0.59912600000000005
aF0.33854660440000012
aF0.67000000000000004
aF0.24619335898586389
aF0.57426672712669313
aF0.62821977952883468
aF0.57413999804810989
aF0.59912600000000005
aF0.28093840000000014
aF0.67000000000000004
aa(lp159
F0.17711829154729325
aF0.22164547375840407
aF0.53353791860625643
aF0.45654295707659776
aF0.36255519999999991
aF0.32644801675051516
aF0.67000000000000004
aF0.24341077324335825
aF0.25389790380365052
aF0.64870744783620427
aF0.47245845138578729
aF0.36255519999999991
aF0.32207125718525481
aF0.67000000000000004
aa(lp160
F0.13048655924744954
aF0.20105193911967803
aF0.41572388702276941
aF0.50428944000416642
aF0.36255519999999991
aF0.32644801675051516
aF0.67000000000000004
aF0.17711829154729325
aF0.22164547375840407
aF0.53353791860625643
aF0.45654295707659776
aF0.36255519999999991
aF0.32644801675051516
aF0.67000000000000004
aa(lp161
F0.14240420257634184
aF0.20796855887133886
aF0.45552506430977358
aF0.50428944000416642
aF0.36255519999999991
aF0.32644801675051516
aF0.67000000000000004
aF0.12798803261558914
aF0.20504921067012843
aF0.41563173897733136
aF0.48837394569497683
aF0.36255519999999991
aF0.32644801675051516
aF0.67000000000000004
aa(lp162
F0.098877695736498211
aF0.22311123075205011
aF0.33688721539474786
aF0.55203592293173509
aF0.36255519999999991
aF0.32644801675051516
aF0.67000000000000004
aF0.14240420257634184
aF0.20796855887133886
aF0.45552506430977358
aF0.50428944000416642
aF0.36255519999999991
aF0.32644801675051516
aF0.67000000000000004
aa(lp163
F0.29028564940747553
aF0.58359277892854278
aF0.60108179402121886
aF0.51455222819956103
aF0.37838999999999989
aF0.24552119999999994
aF0.33000000000000002
aF0.27124790557009021
aF0.59519837016031296
aF0.56197812152017268
aF0.53046772250875063
aF0.37838999999999989
aF0.24552119999999994
aF0.33000000000000002
aa(lp164
F0.23310758784324678
aF0.60634880357226384
aF0.48366627950424534
aF0.5622987111271297
aF0.37838999999999989
aF0.24552119999999994
aF0.33000000000000002
aF0.29028564940747553
aF0.58359277892854278
aF0.60108179402121886
aF0.51455222819956103
aF0.37838999999999989
aF0.24552119999999994
aF0.33000000000000002
aa(lp165
F0.36355094764190493
aF0.28266545825702494
aF0.76221280282116588
aF0.50360475543898509
aF0.45889519999999989
aF0.27922040000000015
aF0.33000000000000002
aF0.38946951681158426
aF0.28575640000000002
aF0.80209319999999984
aF0.4876892611297956
aF0.45889519999999989
aF0.27922040000000015
aF0.33000000000000002
aa(lp166
F0.35358601974550996
aF0.3481635172828117
aF0.76159860564639603
aF0.59799398176378005
aF0.38198560000000015
aF0.26269759999999992
aF0.67000000000000004
aF0.4542983493652491
aF0.49442323107139713
aF0.86119461421502985
aF0.59282892639561879
aF0.57310599999999989
aF0.22355599999999995
aF0.67000000000000004
aa(lp167
F0.33146591024557487
aF0.58217249871116716
aF0.72723368926464649
aF0.43443792703056455
aF0.58917439999999988
aF0.25852240000000004
aF0.67000000000000004
aF0.35619837593992254
aF0.60176722981992048
aF0.76210554772925432
aF0.40260693841218548
aF0.58917439999999988
aF0.25852240000000004
aF0.67000000000000004
aa(lp168
F0.50712400059843621
aF0.27480909329090364
aF0.90153127396515631
aF0.735077476502634
aF0.53338439999999987
aF0.23258560000000017
aF0.67000000000000004
aF0.50481350730914021
aF0.27384407901853719
aF0.89765114270907131
aF0.70324648788425503
aF0.53338439999999987
aF0.23258560000000017
aF0.67000000000000004
aa(lp169
F0.45257152895095676
aF0.22019270148448164
aF0.83610770803487244
aF0.59732250705887535
aF0.55457360000000011
aF0.29036839999999986
aF0.33000000000000002
aF0.45257152895095676
aF0.22019270148448164
aF0.83610770803487244
aF0.58140701274968576
aF0.55457360000000011
aF0.29036839999999986
aF0.33000000000000002
aa(lp170
F0.33380058946581476
aF0.38483950750945617
aF0.73981285161385668
aF0.55162021022037899
aF0.50006319999999993
aF0.28202560000000004
aF0.33000000000000002
aF0.61485313703975186
aF0.18985192565266545
aF0.89614071129495909
aF0.51580859732032847
aF0.57855640000000008
aF0.1183247999999999
aF0.33000000000000002
aa(lp171
F0.25100895255185962
aF0.43408121447457404
aF0.63081976008034357
aF0.59936669314794766
aF0.50006319999999993
aF0.28202560000000004
aF0.33000000000000002
aF0.33380058946581476
aF0.38483950750945617
aF0.73981285161385668
aF0.55162021022037899
aF0.50006319999999993
aF0.28202560000000004
aF0.33000000000000002
aa(lp172
F0.54011758038098612
aF0.68654207328320638
aF0.85091627420681559
aF0.54525496742636181
aF0.52116040000000008
aF0.10519320000000007
aF0.67000000000000004
aF0.51894968308740752
aF0.6909961153376909
aF0.819177357344406
aF0.52615637425533435
aF0.52116040000000008
aF0.10519320000000007
aF0.67000000000000004
aa(lp173
F0.27693779719881356
aF0.30847928282076359
aF0.58599008811833531
aF0.46124328001093079
aF0.57337320000000003
aF0.29751079999999985
aF0.33000000000000002
aF0.51015207000526752
aF0.5197213601274342
aF0.89279210364779227
aF0.46799447354194595
aF0.5325392000000001
aF0.17144200000000004
aF0.67000000000000004
aa(lp174
F0.35398319439054737
aF0.64985895593171894
aF0.62184070661855773
aF0.51132727158769009
aF0.40407079999999984
aF0.18572559999999996
aF0.33000000000000002
aF0.49054169836685291
aF0.62855837533987147
aF0.90448396148829391
aF0.50104045099588845
aF0.39985560000000009
aF0.24953560000000011
aF0.67000000000000004
aa(lp175
F0.46057585952584229
aF0.65248314042634159
aF0.88044755441532918
aF0.46432197323010038
aF0.48041200000000012
aF0.25223440000000003
aF0.33000000000000002
aF0.45492434285762529
aF0.65070474987848781
aF0.87264772575956329
aF0.46432197323010038
aF0.48041200000000012
aF0.25223440000000003
aF0.33000000000000002
aa(lp176
F0.23994019709886388
aF0.62825830612576572
aF0.58458316748510164
aF0.58004591967636387
aF0.46825919999999999
aF0.28534599999999982
aF0.67000000000000004
aF0.48249399776335333
aF0.39142555641223281
aF0.86847030252154267
aF0.42426617546261836
aF0.40758000000000011
aF0.18631199999999987
aF0.67000000000000004
aa(lp177
F0.42512886942294165
aF0.34017479265433292
aF0.81932118187885339
aF0.52198810629575754
aF0.4983224
aF0.23927079999999989
aF0.67000000000000004
aF0.52419917778624914
aF0.54828310400086122
aF0.87604246422847964
aF0.40569199782907872
aF0.47776159999999984
aF0.13807480000000005
aF0.67000000000000004
aa(lp178
F0.34060009992523105
aF0.36838976000139495
aF0.70309659186247375
aF0.5697345892233262
aF0.4983224
aF0.23927079999999989
aF0.67000000000000004
aF0.42512886942294165
aF0.34017479265433292
aF0.81932118187885339
aF0.52198810629575754
aF0.4983224
aF0.23927079999999989
aF0.67000000000000004
aa(lp179
F0.25992818390805522
aF0.42969126270830033
aF0.600401093067509
aF0.61748107215089487
aF0.4983224
aF0.23927079999999989
aF0.67000000000000004
aF0.34060009992523105
aF0.36838976000139495
aF0.70309659186247375
aF0.5697345892233262
aF0.4983224
aF0.23927079999999989
aF0.67000000000000004
aa(lp180
F0.2156843257414931
aF0.4863446692108358
aF0.54405923597575057
aF0.64931206076927395
aF0.4983224
aF0.23927079999999989
aF0.67000000000000004
aF0.25992818390805522
aF0.42969126270830033
aF0.600401093067509
aF0.61748107215089487
aF0.4983224
aF0.23927079999999989
aF0.67000000000000004
aa(lp181
F0.2301047738172006
aF0.44968590335055902
aF0.56103298711750116
aF0.6811430493876528
aF0.4983224
aF0.23927079999999989
aF0.67000000000000004
aF0.2301047738172006
aF0.44968590335055902
aF0.56103298711750116
aF0.66522755507846343
aF0.4983224
aF0.23927079999999989
aF0.67000000000000004
aa(lp182
F0.42097605129360438
aF0.60555194724550743
aF0.75013621515874607
aF0.42970338578346678
aF0.56987039999999989
aF0.15585640000000006
aF0.67000000000000004
aF0.39265945893678339
aF0.59567356078086608
aF0.71056091437955793
aF0.44561888009265632
aF0.56987039999999989
aF0.15585640000000006
aF0.67000000000000004
aa(lp183
F0.36801844768302011
aF0.575050284097399
aF0.67628730268138459
aF0.46153437440184586
aF0.56987039999999989
aF0.15585640000000006
aF0.67000000000000004
aF0.42097605129360438
aF0.60555194724550743
aF0.75013621515874607
aF0.42970338578346678
aF0.56987039999999989
aF0.15585640000000006
aF0.67000000000000004
aa(lp184
F0.28439802154424437
aF0.55816115426104385
aF0.55788545725555461
aF0.50928085732941453
aF0.56987039999999989
aF0.15585640000000006
aF0.67000000000000004
aF0.36801844768302011
aF0.575050284097399
aF0.67628730268138459
aF0.46153437440184586
aF0.56987039999999989
aF0.15585640000000006
aF0.67000000000000004
aa(lp185
F0.2008284307700379
aF0.57701649008811873
aF0.43978077480087985
aF0.55702734025698319
aF0.56987039999999989
aF0.15585640000000006
aF0.67000000000000004
aF0.28439802154424437
aF0.55816115426104385
aF0.55788545725555461
aF0.50928085732941453
aF0.56987039999999989
aF0.15585640000000006
aF0.67000000000000004
aa(lp186
F0.15142705141669324
aF0.60874174389852553
aF0.36644918815804922
aF0.58885832887536227
aF0.56987039999999989
aF0.15585640000000006
aF0.67000000000000004
aF0.2008284307700379
aF0.57701649008811873
aF0.43978077480087985
aF0.55702734025698319
aF0.56987039999999989
aF0.15585640000000006
aF0.67000000000000004
aa(lp187
F0.26290218528992926
aF0.38338866201250676
aF0.59598317847822813
aF0.44892134516181315
aF0.50118839999999987
aF0.24333840000000001
aF0.67000000000000004
aF0.23721101146690041
aF0.37834931760338686
aF0.55550612375787656
aF0.46483683947100268
aF0.50118839999999987
aF0.24333840000000001
aF0.67000000000000004
aa(lp188
F0.21835778072269735
aF0.36200469671938362
aF0.51899785937625753
aF0.48075233378019228
aF0.50118839999999987
aF0.24333840000000001
aF0.67000000000000004
aF0.26290218528992926
aF0.38338866201250676
aF0.59598317847822813
aF0.44892134516181315
aF0.50118839999999987
aF0.24333840000000001
aF0.67000000000000004
aa(lp189
F0.14906038195853352
aF0.35950084890706152
aF0.39942373820865706
aF0.52849881670776089
aF0.50118839999999987
aF0.24333840000000001
aF0.67000000000000004
aF0.21835778072269735
aF0.36200469671938362
aF0.51899785937625753
aF0.48075233378019228
aF0.50118839999999987
aF0.24333840000000001
aF0.67000000000000004
aa(lp190
F0.10341646766565039
aF0.37764338193682645
aF0.32161074556505298
aF0.56032980532613996
aF0.50118839999999987
aF0.24333840000000001
aF0.67000000000000004
aF0.14906038195853352
aF0.35950084890706152
aF0.39942373820865706
aF0.52849881670776089
aF0.50118839999999987
aF0.24333840000000001
aF0.67000000000000004
aa(lp191
F0.20600863558506524
aF0.38060378569496722
aF0.31417865234787745
aF0.56351290418797795
aF0.55068801502102716
aF0.077640133699796013
aF0.67000000000000004
aF0.10341646766565039
aF0.37764338193682645
aF0.32161074556505298
aF0.56032980532613996
aF0.50118839999999987
aF0.24333840000000001
aF0.67000000000000004
aa(lp192
F0.16372168056062034
aF0.41983111336053403
aF0.23553706268743718
aF0.5985269916681949
aF0.55732743169680032
aF0.049246054278102136
aF0.67000000000000004
aF0.20600863558506524
aF0.38060378569496722
aF0.31417865234787745
aF0.56351290418797795
aF0.55068801502102716
aF0.077640133699796013
aF0.67000000000000004
aa(lp193
F0.14866160290250821
aF0.44304201670428756
aF0.20296016955799737
aF0.61444248597738449
aF0.56989753078657368
aF0.035305098351706657
aF0.67000000000000004
aF0.16372168056062034
aF0.41983111336053403
aF0.23553706268743718
aF0.5985269916681949
aF0.55732743169680032
aF0.049246054278102136
aF0.67000000000000004
aa(lp194
F0.14245168714484988
aF0.45370022572839552
aF0.19102798697257944
aF0.62080868370106024
aF0.57479831448557417
aF0.030030411713089046
aF0.67000000000000004
aF0.14866160290250821
aF0.44304201670428756
aF0.20296016955799737
aF0.61444248597738449
aF0.56989753078657368
aF0.035305098351706657
aF0.67000000000000004
aa(lp195
F0.14088332627271932
aF0.4267690845809099
aF0.21121580845820062
aF0.40523442736768939
aF0.30412660378084022
aF0.054196557581754415
aF0.33000000000000002
aF0.16373239879357476
aF0.47483228046772863
aF0.27504325185079603
aF0.40523442736768939
aF0.3227170078959169
aF0.10046507257627475
aF0.33000000000000002
aa(lp196
F0.15842899364076857
aF0.43067499814186477
aF0.20816247969804885
aF0.40205132850585146
aF0.28792226530922455
aF0.035474468186141729
aF0.33000000000000002
aF0.12232314165645128
aF0.40443732675407806
aF0.17797002037214221
aF0.38613583419666192
aF0.29517393059210234
aF0.043852861783073391
aF0.33000000000000002
aa(lp197
F0.36368123428040489
aF0.65485845940439913
aF0.38611050433114757
aF0.34157245013093118
aF0.28467792467757713
aF0.029046851686548615
aF0.33000000000000002
aF0.36368123428040489
aF0.65485845940439913
aF0.38611050433114757
aF0.32565695582174164
aF0.28467792467757713
aF0.029046851686548615
aF0.33000000000000002
aa(lp198
F0.25227927911762998
aF0.49634272117658684
aF0.52230092175371712
aF0.47664088413529931
aF0.38511759999999989
aF0.18330440000000009
aF0.33000000000000002
aF0.47598903499470518
aF0.31801965533143639
aF0.89515513664958313
aF0.47056275685861981
aF0.49985159999999984
aF0.24702839999999995
aF0.67000000000000004
aa(lp199
F0.19730625994966403
aF0.52627859086467021
aF0.54845823863191112
aF0.59428567158973888
aF0.45387640000000007
aF0.2789819999999999
aF0.67000000000000004
aF0.42337951548923364
aF0.4557479108413357
aF0.69873907204955399
aF0.43846295554135856
aF0.46201320000000018
aF0.1000228
aF0.67000000000000004
aa(lp200
F0.4146912161745846
aF0.50862940014430935
aF0.83214776222870379
aF0.47396198813317664
aF0.39067639999999992
aF0.2576699999999999
aF0.67000000000000004
aF0.43728629510736144
aF0.51681325740053974
aF0.86308564315392289
aF0.45486339496214917
aF0.39067639999999992
aF0.2576699999999999
aF0.67000000000000004
aa(lp201
F0.40700866341904779
aF0.51895207591552683
aF0.81879160460866096
aF0.56308875626463806
aF0.39067639999999992
aF0.2576699999999999
aF0.67000000000000004
aF0.45275026668770851
aF0.50086732772803799
aF0.8884025640954526
aF0.52807466878442111
aF0.39067639999999992
aF0.2576699999999999
aF0.67000000000000004
aa(lp202
F0.45380046052566486
aF0.54458828836347062
aF0.84117019741510435
aF0.58418299326709466
aF0.58120359999999993
aF0.20044480000000001
aF0.33000000000000002
aF0.47495258666549534
aF0.53127933951476436
aF0.87027126063524318
aF0.56826749895790507
aF0.58120359999999993
aF0.20044480000000001
aF0.33000000000000002
aa(lp203
F0.29966960046202812
aF0.48617067499769034
aF0.70061245553780371
aF0.54328367430122559
aF0.40551239999999994
aF0.28456200000000004
aF0.33000000000000002
aF0.44543921340721165
aF0.64768500263476059
aF0.86459686200073127
aF0.56798022428562411
aF0.52754000000000012
aF0.24621400000000015
aF0.33000000000000002
aa(lp204
F0.30958685208642384
aF0.42369222495389991
aF0.65908436655023372
aF0.62713763916805243
aF0.36454839999999999
aF0.22527560000000016
aF0.67000000000000004
aF0.53615959570760063
aF0.29434558242520731
aF0.89737697036193043
aF0.51158605752515751
aF0.45717600000000014
aF0.15682280000000012
aF0.67000000000000004
aa(lp205
F0.4000669296344343
aF0.32540385257631071
aF0.68921949136180705
aF0.40506397242363806
aF0.49368200000000007
aF0.14904399999999995
aF0.33000000000000002
aF0.51784711446521181
aF0.41205942798485606
aF0.87130205721460396
aF0.42298147676198056
aF0.40148440000000002
aF0.13903199999999991
aF0.33000000000000002
aa(lp206
F0.39957846630909455
aF0.61151110564786859
aF0.76114742554423742
aF0.53528613841085781
aF0.40749959999999985
aF0.23416999999999993
aF0.67000000000000004
aF0.46966562395356487
aF0.52720006505850203
aF0.87410655868539633
aF0.40386012443409092
aF0.40285119999999991
aF0.22164280000000006
aF0.33000000000000002
aa(lp207
F0.36003598426479444
aF0.33056363997679628
aF0.77723617392518418
aF0.62997425771877935
aF0.45292920000000014
aF0.28299079999999999
aF0.33000000000000002
aF0.35888220269652116
aF0.32742136517629528
aF0.77476377019835174
aF0.59814326910040017
aF0.45292920000000014
aF0.28299079999999999
aF0.33000000000000002
aa(lp208
F0.34414569153853686
aF0.3372509456623714
aF0.74684031788839567
aF0.62135267529654825
aF0.42456600000000011
aF0.26804120000000003
aF0.33000000000000002
aF0.34297130718076119
aF0.33397941314512458
aF0.74454167783416492
aF0.58952168667816918
aF0.42456600000000011
aF0.26804120000000003
aF0.33000000000000002
aa(lp209
F0.50776963042997758
aF0.25597208391823151
aF0.82419988642325381
aF0.69585453655235208
aF0.49464199999999997
aF0.14692839999999982
aF0.33000000000000002
aF0.50586383245046063
aF0.25408963801373086
aF0.82067241303186655
aF0.66402354793397311
aF0.49464199999999997
aF0.14692839999999982
aF0.33000000000000002
aa(lp210
F0.49762698314967524
aF0.28729003744916143
aF0.83439859759488044
aF0.74064821782073664
aF0.58634999999999982
aF0.19735200000000006
aF0.33000000000000002
aF0.49537520780373784
aF0.28646139887963928
aF0.83048707241518149
aF0.70881722920235768
aF0.58634999999999982
aF0.19735200000000006
aF0.33000000000000002
aa(lp211
F0.42777065866365471
aF0.35332053104418149
aF0.82564312378668026
aF0.56203753786551591
aF0.47764519999999988
aF0.2335968000000001
aF0.33000000000000002
aF0.42815421190932818
aF0.35709025411479695
aF0.82697573741455133
aF0.56203753786551591
aF0.47764519999999988
aF0.2335968000000001
aF0.33000000000000002
aa(lp212
F0.31367857048755521
aF0.25258237965588248
aF0.60289431542861815
aF0.42718889683755795
aF0.40502800000000005
aF0.18630239999999992
aF0.33000000000000002
aF0.33182640324184731
aF0.27374454878613791
aF0.63683783613143385
aF0.41127340252836836
aF0.40502800000000005
aF0.18630239999999992
aF0.33000000000000002
aa(lp213
F0.27541441298727037
aF0.22091783273341398
aF0.52953649514281298
aF0.45901988545593703
aF0.40502800000000005
aF0.18630239999999992
aF0.33000000000000002
aF0.29485171531196314
aF0.23491463086974457
aF0.56700767929718443
aF0.44310439114674749
aF0.40502800000000005
aF0.18630239999999992
aF0.33000000000000002
aa(lp214
F0.21427968269456124
aF0.20216025775156582
aF0.41141624671913418
aF0.50676636838350564
aF0.40502800000000005
aF0.18630239999999992
aF0.33000000000000002
aF0.27541441298727037
aF0.22091783273341398
aF0.52953649514281298
aF0.45901988545593703
aF0.40502800000000005
aF0.18630239999999992
aF0.33000000000000002
aa(lp215
F0.24036100116123521
aF0.19226751770402331
aF0.45140577404398707
aF0.58634383992945338
aF0.40502800000000005
aF0.18630239999999992
aF0.33000000000000002
aF0.24116787575369816
aF0.18857325658104324
aF0.44987636047481949
aF0.55451285131107431
aF0.40502800000000005
aF0.18630239999999992
aF0.33000000000000002
aa(lp216
F0.15586522937666594
aF0.26393326902837833
aF0.35565474379372264
aF0.63409032285702205
aF0.40502800000000005
aF0.18630239999999992
aF0.33000000000000002
aF0.24036100116123521
aF0.19226751770402331
aF0.45140577404398707
aF0.58634383992945338
aF0.40502800000000005
aF0.18630239999999992
aF0.33000000000000002
aa(lp217
F0.17158309870694999
aF0.32614756801844075
aF0.30552097942214579
aF0.66592131147540112
aF0.47804519332900386
aF0.11628929352446313
aF0.33000000000000002
aF0.15586522937666594
aF0.26393326902837833
aF0.35565474379372264
aF0.63409032285702205
aF0.40502800000000005
aF0.18630239999999992
aF0.33000000000000002
aa(lp218
F0.14926028385571655
aF0.43494567091510705
aF0.25584993641962972
aF0.71366779440296957
aF0.52938043780190291
aF0.067066093160759982
aF0.33000000000000002
aF0.17158309870694999
aF0.32614756801844075
aF0.30552097942214579
aF0.66592131147540112
aF0.47804519332900386
aF0.11628929352446313
aF0.33000000000000002
aa(lp219
F0.1552050265457309
aF0.51357926179511926
aF0.24168054284740634
aF0.74549878302134842
aF0.56881723719666299
aF0.02925180985027076
aF0.33000000000000002
aF0.15597512916502437
aF0.47390793602461334
aF0.24679776002184858
aF0.72958328871215905
aF0.55561824116699976
aF0.041907770347562413
aF0.33000000000000002
aa(lp220
F0.40952491378637573
aF0.17615040105593777
aF0.76404315233117048
aF0.55477434288257421
aF0.46204239999999996
aF0.26036957256245402
aF0.33000000000000002
aF0.39605210610270331
aF0.19716487893749565
aF0.72908348027502079
aF0.57068983719176369
aF0.46204239999999996
aF0.23557112954127604
aF0.33000000000000002
aa(lp221
F0.31755441758329761
aF0.22754232211844219
aF0.65604727205614954
aF0.60252082581014277
aF0.46204239999999996
aF0.27304423065420058
aF0.33000000000000002
aF0.40952491378637573
aF0.17615040105593777
aF0.76404315233117048
aF0.55477434288257421
aF0.46204239999999996
aF0.26036957256245402
aF0.33000000000000002
aa(lp222
F0.25283183501395734
aF0.27865740236759179
aF0.59463667117965036
aF0.63435181442852195
aF0.46204239999999996
aF0.28768746327377565
aF0.33000000000000002
aF0.31755441758329761
aF0.22754232211844219
aF0.65604727205614954
aF0.60252082581014277
aF0.46204239999999996
aF0.27304423065420058
aF0.33000000000000002
aa(lp223
F0.17827487136025644
aF0.37553403918197892
aF0.52449996932958742
aF0.6820982973560904
aF0.46204239999999996
aF0.28768746327377565
aF0.33000000000000002
aF0.25283183501395734
aF0.27865740236759179
aF0.59463667117965036
aF0.63435181442852195
aF0.46204239999999996
aF0.28768746327377565
aF0.33000000000000002
aa(lp224
F0.14692582742115315
aF0.44983355265948288
aF0.49511297176440794
aF0.71392928597446925
aF0.46204239999999996
aF0.28768746327377565
aF0.33000000000000002
aF0.17827487136025644
aF0.37553403918197892
aF0.52449996932958742
aF0.6820982973560904
aF0.46204239999999996
aF0.28768746327377565
aF0.33000000000000002
aa(lp225
F0.32200874756307468
aF0.28156341126540385
aF0.60233376992834375
aF0.46276814352069423
aF0.42007040000000018
aF0.16851920000000006
aF0.33000000000000002
aF0.29503668039517822
aF0.28006027081721641
aF0.56157193091559776
aF0.47868363782988377
aF0.42007040000000018
aF0.16851920000000006
aF0.33000000000000002
aa(lp226
F0.24826219877888034
aF0.2655926308029567
aF0.48380455885237483
aF0.51051462644826284
aF0.42007040000000018
aF0.16851920000000006
aF0.33000000000000002
aF0.32200874756307468
aF0.28156341126540385
aF0.60233376992834375
aF0.46276814352069423
aF0.42007040000000018
aF0.16851920000000006
aF0.33000000000000002
aa(lp227
F0.19589525909400007
aF0.27484544733363381
aF0.40444210730796187
aF0.54234561506664203
aF0.42007040000000018
aF0.16851920000000006
aF0.33000000000000002
aF0.24826219877888034
aF0.2655926308029567
aF0.48380455885237483
aF0.51051462644826284
aF0.42007040000000018
aF0.16851920000000006
aF0.33000000000000002
aa(lp228
F0.11385533050573965
aF0.31765569976043828
aF0.29276613856793005
aF0.59009209799421058
aF0.42007040000000018
aF0.16851920000000006
aF0.33000000000000002
aF0.19589525909400007
aF0.27484544733363381
aF0.40444210730796187
aF0.54234561506664203
aF0.42007040000000018
aF0.16851920000000006
aF0.33000000000000002
aa(lp229
F0.10792529441130039
aF0.36382419627276158
aF0.22755507157250926
aF0.62192308661258977
aF0.45725990269430239
aF0.10686742882227591
aF0.33000000000000002
aF0.11385533050573965
aF0.31765569976043828
aF0.29276613856793005
aF0.59009209799421058
aF0.42007040000000018
aF0.16851920000000006
aF0.33000000000000002
aa(lp230
F0.14571021343127391
aF0.39767377302916279
aF0.19352452415288787
aF0.64102167978361713
aF0.5226595634937613
aF0.029690813404678627
aF0.33000000000000002
aF0.10792529441130039
aF0.36382419627276158
aF0.22755507157250926
aF0.62192308661258977
aF0.45725990269430239
aF0.10686742882227591
aF0.33000000000000002
aa(lp231
F0.14021416789924521
aF0.40387048679329957
aF0.18846480691520001
aF0.644204778645455
aF0.5226595634937613
aF0.029690813404678627
aF0.33000000000000002
aF0.14571021343127391
aF0.39767377302916279
aF0.19352452415288787
aF0.64102167978361713
aF0.5226595634937613
aF0.029690813404678627
aF0.33000000000000002
aa(lp232
F0.14021416789924521
aF0.40387048679329957
aF0.18846480691520001
aF0.644204778645455
aF0.5226595634937613
aF0.029690813404678627
aF0.33000000000000002
aF0.14021416789924521
aF0.40387048679329957
aF0.18846480691520001
aF0.644204778645455
aF0.5226595634937613
aF0.029690813404678627
aF0.33000000000000002
aa(lp233
F0.15285961099251258
aF0.47504941076655599
aF0.27324920088290378
aF0.44246426996563176
aF0.53009354597763125
aF0.064198335006763502
aF0.33000000000000002
aF0.15193534720800514
aF0.50700874593657586
aF0.34647907336934197
aF0.44246426996563176
aF0.54150772683183135
aF0.1343976744236354
aF0.33000000000000002
aa(lp234
F0.13028916679948996
aF0.45056052752380255
aF0.19719456311233471
aF0.47429525858401084
aF0.52425967811742746
aF0.028318960458309839
aF0.33000000000000002
aF0.15285961099251258
aF0.47504941076655599
aF0.27324920088290378
aF0.44246426996563176
aF0.53009354597763125
aF0.064198335006763502
aF0.33000000000000002
aa(lp235
F0.12739162468374382
aF0.44927407614987092
aF0.18929867539387574
aF0.47747835744584877
aF0.52376226412092597
aF0.02525977168102056
aF0.33000000000000002
aF0.13028916679948996
aF0.45056052752380255
aF0.19719456311233471
aF0.47429525858401084
aF0.52425967811742746
aF0.028318960458309839
aF0.33000000000000002
aa(lp236
F0.12266000194159164
aF0.44814578928436716
aF0.18137863948807756
aF0.48066145630768664
aF0.52376226412092597
aF0.02525977168102056
aF0.33000000000000002
aF0.12739162468374382
aF0.44927407614987092
aF0.18929867539387574
aF0.47747835744584877
aF0.52376226412092597
aF0.02525977168102056
aF0.33000000000000002
aa(lp237
F0.10132736421511616
aF0.55519729638614912
aF0.37809781545238152
aF0.5605453011190864
aF0.49397640000000004
aF0.2485351999999999
aF0.33000000000000002
aF0.17705848093317414
aF0.53373619328258459
aF0.49575690248117643
aF0.51279881819151774
aF0.49397640000000004
aF0.2485351999999999
aF0.33000000000000002
aa(lp238
F0.091869006278488818
aF0.56576093510031744
aF0.23573014852220275
aF0.42720051514840357
aF0.43768239999999992
aF0.21391920000000014
aF0.67000000000000004
aF0.16231476637627937
aF0.63252315023315475
aF0.33528331667036471
aF0.41128502083921403
aF0.43768239999999992
aF0.21391920000000014
aF0.67000000000000004
aa(lp239
F0.14857029797062818
aF0.45493525729774759
aF0.48050130210259462
aF0.43734648361556888
aF0.42013959999999989
aF0.27329240000000005
aF0.33000000000000002
aF0.20349855484517801
aF0.48923244477231548
aF0.55266581041675167
aF0.43734648361556888
aF0.42013959999999989
aF0.27329240000000005
aF0.33000000000000002
aa(lp240
F0.15338952477972737
aF0.4203156286166731
aF0.36602108102988778
aF0.48509296654313755
aF0.37668220184520573
aF0.15352915955613219
aF0.33000000000000002
aF0.14857029797062818
aF0.45493525729774759
aF0.48050130210259462
aF0.43734648361556888
aF0.42013959999999989
aF0.27329240000000005
aF0.33000000000000002
aa(lp241
F0.16949123825626108
aF0.41682801023106253
aF0.28619721337812543
aF0.51692395516151668
aF0.35223357969674607
aF0.055368014111298082
aF0.33000000000000002
aF0.15338952477972737
aF0.4203156286166731
aF0.36602108102988778
aF0.48509296654313755
aF0.37668220184520573
aF0.15352915955613219
aF0.33000000000000002
aa(lp242
F0.14186364410009811
aF0.42926846638290994
aF0.20727162576787278
aF0.54875494377989575
aF0.34474916911149761
aF0.025318127800068348
aF0.33000000000000002
aF0.16949123825626108
aF0.41682801023106253
aF0.28619721337812543
aF0.51692395516151668
aF0.35223357969674607
aF0.055368014111298082
aF0.33000000000000002
aa(lp243
F0.13381808387922448
aF0.43424560611617447
aF0.19206628193983377
aF0.5551211415035715
aF0.34474916911149761
aF0.025318127800068348
aF0.33000000000000002
aF0.14186364410009811
aF0.42926846638290994
aF0.20727162576787278
aF0.54875494377989575
aF0.34474916911149761
aF0.025318127800068348
aF0.33000000000000002
aa(lp244
F0.25627656261717968
aF0.69337017724817085
aF0.43481629545938
aF0.53148249442590445
aF0.44465959999999993
aF0.17119080000000012
aF0.33000000000000002
aF0.29457950612414013
aF0.6816030846658826
aF0.51384508047502808
aF0.53148249442590445
aF0.44465959999999993
aF0.17119080000000012
aF0.33000000000000002
aa(lp245
F0.26176234368534995
aF0.69936847850906925
aF0.60155761561928356
aF0.3944655264532626
aF0.58206920000000006
aF0.25044520000000003
aF0.33000000000000002
aF0.46293471034562378
aF0.44486682787705761
aF0.88253872415030088
aF0.43214752824452907
aF0.47191599999999989
aF0.22840920000000012
aF0.67000000000000004
aa(lp246
F0.14230723365760173
aF0.5782368466657648
aF0.20874574453483702
aF0.55531769785828999
aF0.66833766734385802
aF0.028788695173211566
aF0.67000000000000004
aF0.19737097448035695
aF0.56255339102635771
aF0.28709140521937293
aF0.52348670923991081
aF0.66833766734385802
aF0.028788695173211566
aF0.67000000000000004
aa(lp247
F0.1760621162016035
aF0.56188730806478338
aF0.25387547517368531
aF0.57123319216747948
aF0.66833766734385802
aF0.028788695173211566
aF0.67000000000000004
aF0.1760621162016035
aF0.56188730806478338
aF0.25387547517368531
aF0.55531769785828999
aF0.66833766734385802
aF0.028788695173211566
aF0.67000000000000004
aa(lp248
F0.14215514886280484
aF0.58336332486191933
aF0.21098511065778175
aF0.59033178533850694
aF0.66833766734385802
aF0.028788695173211566
aF0.67000000000000004
aF0.1760621162016035
aF0.56188730806478338
aF0.25387547517368531
aF0.57123319216747948
aF0.66833766734385802
aF0.028788695173211566
aF0.67000000000000004
aa(lp249
F0.18243509667636718
aF0.56836676539514674
aF0.43225679410059215
aF0.67834351393866643
aF0.50856560000000006
aF0.18128080000000005
aF0.67000000000000004
aF0.23002866850774478
aF0.47317159883033355
aF0.50465928003559812
aF0.63059703101109799
aF0.50856560000000006
aF0.18128080000000005
aF0.67000000000000004
aa(lp250
F0.18034068106029558
aF0.47019287252730424
aF0.44130940932737311
aF0.55790126004950069
aF0.57948120000000003
aF0.2108716000000001
aF0.67000000000000004
aF0.18100353963627258
aF0.46628557789999014
aF0.44046104631210242
aF0.52607027143112162
aF0.57948120000000003
aF0.2108716000000001
aF0.67000000000000004
aa(lp251
F0.17472246471517766
aF0.50232030978236497
aF0.36815313068834038
aF0.58973224866787977
aF0.61506407202496549
aF0.14827879515427611
aF0.67000000000000004
aF0.18034068106029558
aF0.47019287252730424
aF0.44130940932737311
aF0.55790126004950069
aF0.57948120000000003
aF0.2108716000000001
aF0.67000000000000004
aa(lp252
F0.1801255930318337
aF0.52864364084797943
aF0.32801643618223225
aF0.60883084183890723
aF0.64244509204817635
aF0.10011363182549111
aF0.67000000000000004
aF0.17472246471517766
aF0.50232030978236497
aF0.36815313068834038
aF0.58973224866787977
aF0.61506407202496549
aF0.14827879515427611
aF0.67000000000000004
aa(lp253
F0.14707120049913611
aF0.61307895071186458
aF0.243311547568522
aF0.65657732476647579
aF0.67407881681288728
aF0.044467658129167198
aF0.67000000000000004
aF0.1801255930318337
aF0.52864364084797943
aF0.32801643618223225
aF0.60883084183890723
aF0.64244509204817635
aF0.10011363182549111
aF0.67000000000000004
aa(lp254
F0.12228833932030234
aF0.68173314986487799
aF0.20243839907775829
aF0.68840831338485475
aF0.68258840550420641
aF0.029498685869159758
aF0.67000000000000004
aF0.14707120049913611
aF0.61307895071186458
aF0.243311547568522
aF0.65657732476647579
aF0.67407881681288728
aF0.044467658129167198
aF0.67000000000000004
aa(lp255
F0.20341276921467077
aF0.61661053300965274
aF0.49885794179676102
aF0.39529488286171449
aF0.41967959999999993
aF0.28916359999999985
aF0.67000000000000004
aF0.23169685529902484
aF0.64410591088037383
aF0.52790969210111027
aF0.39529488286171449
aF0.41967959999999993
aF0.28916359999999985
aF0.67000000000000004
aa(lp256
F0.23145707323711157
aF0.63502316898547839
aF0.5356831748771107
aF0.3793793885525249
aF0.41967959999999993
aF0.28916359999999985
aF0.67000000000000004
aF0.23122044357573615
aF0.63778614211447182
aF0.5327930796193765
aF0.3793793885525249
aF0.41967959999999993
aF0.28916359999999985
aF0.67000000000000004
aa(lp257
F0.14712741408790686
aF0.56189450199513113
aF0.44104471667387168
aF0.42712587148009357
aF0.41967959999999993
aF0.28916359999999985
aF0.67000000000000004
aF0.23145707323711157
aF0.63502316898547839
aF0.5356831748771107
aF0.3793793885525249
aF0.41967959999999993
aF0.28916359999999985
aF0.67000000000000004
aa(lp258
F0.16582386155207895
aF0.54421254348674952
aF0.40516507978457383
aF0.4430413657892831
aF0.40066905612854242
aF0.2197186633831997
aF0.67000000000000004
aF0.14712741408790686
aF0.56189450199513113
aF0.44104471667387168
aF0.42712587148009357
aF0.41967959999999993
aF0.28916359999999985
aF0.67000000000000004
aa(lp259
F0.15693724409180271
aF0.59222891562091851
aF0.47683364005658146
aF0.60057770310993397
aF0.55733400000000022
aF0.25765120000000008
aF0.67000000000000004
aF0.20505334583964435
aF0.55519473890425142
aF0.54763253188271366
aF0.56874671449155489
aF0.55733400000000022
aF0.25765120000000008
aF0.67000000000000004
aa(lp260
F0.25178627043454099
aF0.193213096045913
aF0.39004151490992917
aF0.50095418901673283
aF0.44226759999999993
aF0.13555279999999997
aF0.67000000000000004
aF0.30768774876792143
aF0.21627083912873496
aF0.50739815166643254
aF0.45320770608916416
aF0.44226759999999993
aF0.13555279999999997
aF0.67000000000000004
aa(lp261
F0.21253906372880405
aF0.19768478771970238
aF0.3102667237634506
aF0.53278517763511191
aF0.44226759999999993
aF0.13555279999999997
aF0.67000000000000004
aF0.25178627043454099
aF0.193213096045913
aF0.39004151490992917
aF0.50095418901673283
aF0.44226759999999993
aF0.13555279999999997
aF0.67000000000000004
aa(lp262
F0.15358317841493341
aF0.23371348325943408
aF0.196222114927361
aF0.58053166056268057
aF0.44226759999999993
aF0.13555279999999997
aF0.67000000000000004
aF0.21253906372880405
aF0.19768478771970238
aF0.3102667237634506
aF0.53278517763511191
aF0.44226759999999993
aF0.13555279999999997
aF0.67000000000000004
aa(lp263
F0.14962153421020946
aF0.2375909096777864
aF0.18922457504749879
aF0.58371475942451845
aF0.44226759999999993
aF0.13555279999999997
aF0.67000000000000004
aF0.15358317841493341
aF0.23371348325943408
aF0.196222114927361
aF0.58053166056268057
aF0.44226759999999993
aF0.13555279999999997
aF0.67000000000000004
aa(lp264
F0.14568859691166236
aF0.24160750210443496
aF0.18230597798753151
aF0.55506686966797725
aF0.44226759999999993
aF0.13555279999999997
aF0.67000000000000004
aF0.14568859691166236
aF0.24160750210443496
aF0.18230597798753151
aF0.57098236397716684
aF0.44226759999999993
aF0.13555279999999997
aF0.67000000000000004
aa(lp265
F0.29329029897643222
aF0.52445967583614139
aF0.53297472421290237
aF0.41311928155834821
aF0.38125479999999995
aF0.14370520000000014
aF0.67000000000000004
aF0.34701174545636582
aF0.57568093871755932
aF0.59429678841268618
aF0.38128829293996913
aF0.38125479999999995
aF0.14370520000000014
aF0.67000000000000004
aa(lp266
F0.20923711397766726
aF0.47288096575261029
aF0.42506792937128746
aF0.46086576448591687
aF0.38125479999999995
aF0.14370520000000014
aF0.67000000000000004
aF0.29329029897643222
aF0.52445967583614139
aF0.53297472421290237
aF0.41311928155834821
aF0.38125479999999995
aF0.14370520000000014
aF0.67000000000000004
aa(lp267
F0.15328503739785579
aF0.45732944230717826
aF0.34669597362552407
aF0.49269675310429595
aF0.38125479999999995
aF0.14370520000000014
aF0.67000000000000004
aF0.20923711397766726
aF0.47288096575261029
aF0.42506792937128746
aF0.46086576448591687
aF0.38125479999999995
aF0.14370520000000014
aF0.67000000000000004
aa(lp268
F0.083055992627456179
aF0.46379813900906652
aF0.22727070130073379
aF0.54044323603186462
aF0.38125479999999995
aF0.14370520000000014
aF0.67000000000000004
aF0.15328503739785579
aF0.45732944230717826
aF0.34669597362552407
aF0.49269675310429595
aF0.38125479999999995
aF0.14370520000000014
aF0.67000000000000004
aa(lp269
F0.36231729670733248
aF0.4176189636053923
aF0.72773857380582108
aF0.59402720396215769
aF0.59570679999999998
aF0.24728840000000005
aF0.67000000000000004
aF0.39043791285598767
aF0.39499764743517896
aF0.76168062745075071
aF0.54628072103458902
aF0.59570679999999998
aF0.24728840000000005
aF0.67000000000000004
aa(lp270
F0.30852306136795693
aF0.46538552820278023
aF0.66368883816660651
aF0.62585819258053677
aF0.59570679999999998
aF0.24728840000000005
aF0.67000000000000004
aF0.36231729670733248
aF0.4176189636053923
aF0.72773857380582108
aF0.59402720396215769
aF0.59570679999999998
aF0.24728840000000005
aF0.67000000000000004
aa(lp271
F0.24270124862024467
aF0.55838303472026851
aF0.58848442680396718
aF0.67360467550810521
aF0.59570679999999998
aF0.24728840000000005
aF0.67000000000000004
aF0.30852306136795693
aF0.46538552820278023
aF0.66368883816660651
aF0.62585819258053677
aF0.59570679999999998
aF0.24728840000000005
aF0.67000000000000004
aa(lp272
F0.28153863042382815
aF0.42664282168384488
aF0.57435069204772626
aF0.57362911068078482
aF0.41304519999999983
aF0.17642719999999984
aF0.67000000000000004
aF0.33522362299265224
aF0.40206894803240589
aF0.65037791126987587
aF0.54179812206240574
aF0.41304519999999983
aF0.17642719999999984
aF0.67000000000000004
aa(lp273
F0.23512038792562295
aF0.46583113070278798
aF0.50472103051526207
aF0.60546009929916389
aF0.41304519999999983
aF0.17642719999999984
aF0.67000000000000004
aF0.28153863042382815
aF0.42664282168384488
aF0.57435069204772626
aF0.57362911068078482
aF0.41304519999999983
aF0.17642719999999984
aF0.67000000000000004
aa(lp274
F0.21763919679187771
aF0.47571043471288943
aF0.42399782936408703
aF0.51315978160245024
aF0.56546839999999998
aF0.12958800000000004
aF0.67000000000000004
aF0.29703860411544108
aF0.48970914466877813
aF0.54277609263831683
aF0.46541329867488157
aF0.56546839999999998
aF0.12958800000000004
aF0.67000000000000004
aa(lp275
F0.1621525689133734
aF0.48628091656812983
aF0.34480011322127313
aF0.54499077022082931
aF0.56546839999999998
aF0.12958800000000004
aF0.67000000000000004
aF0.21763919679187771
aF0.47571043471288943
aF0.42399782936408703
aF0.51315978160245024
aF0.56546839999999998
aF0.12958800000000004
aF0.67000000000000004
aa(lp276
F0.15641745587165934
aF0.51237484981271852
aF0.26928110914470516
aF0.57682175883920839
aF0.59753298713339942
aF0.065122022523778966
aF0.67000000000000004
aF0.1621525689133734
aF0.48628091656812983
aF0.34480011322127313
aF0.54499077022082931
aF0.56546839999999998
aF0.12958800000000004
aF0.67000000000000004
aa(lp277
F0.14325141563271065
aF0.53535934179813294
aF0.22714341660656281
aF0.59592035201023585
aF0.61051914492242609
aF0.039013301645909416
aF0.67000000000000004
aF0.15641745587165934
aF0.51237484981271852
aF0.26928110914470516
aF0.57682175883920839
aF0.59753298713339942
aF0.065122022523778966
aF0.67000000000000004
aa(lp278
F0.14739362616037022
aF0.53989419577349906
aF0.22055288556406652
aF0.59910345087207373
aF0.61630305350138492
aF0.026616172883560905
aF0.67000000000000004
aF0.14325141563271065
aF0.53535934179813294
aF0.22714341660656281
aF0.59592035201023585
aF0.61051914492242609
aF0.039013301645909416
aF0.67000000000000004
aa(lp279
F0.14191573030320992
aF0.54455994464195323
aF0.2140543636169987
aF0.60228654973391171
aF0.61630305350138492
aF0.026616172883560905
aF0.67000000000000004
aF0.14739362616037022
aF0.53989419577349906
aF0.22055288556406652
aF0.59910345087207373
aF0.61630305350138492
aF0.026616172883560905
aF0.67000000000000004
aa(lp280
F0.21853539728679022
aF0.4327935830518726
aF0.50314525641874686
aF0.51905408491985849
aF0.5433800000000002
aF0.21455197146672908
aF0.67000000000000004
aF0.30523378598471473
aF0.43442379559219513
aF0.62300087399611681
aF0.5031385906106689
aF0.5433800000000002
aF0.20531214571784595
aF0.67000000000000004
aa(lp281
F0.16349307808917399
aF0.44628923350940963
aF0.42439323582487454
aF0.55088507353823757
aF0.5433800000000002
aF0.21455197146672908
aF0.67000000000000004
aF0.21853539728679022
aF0.4327935830518726
aF0.50314525641874686
aF0.51905408491985849
aF0.5433800000000002
aF0.21455197146672908
aF0.67000000000000004
aa(lp282
F0.19196996282102066
aF0.42626087007702262
aF0.45947653670208444
aF0.58271606215661664
aF0.5433800000000002
aF0.21455197146672908
aF0.67000000000000004
aF0.19196996282102066
aF0.42626087007702262
aF0.45947653670208444
aF0.56680056784742705
aF0.5433800000000002
aF0.21455197146672908
aF0.67000000000000004
aa(lp283
F0.21219574948779671
aF0.44612636726376176
aF0.42475821269985659
aF0.59863155646580624
aF0.594647632340909
aF0.16399873344820684
aF0.67000000000000004
aF0.19196996282102066
aF0.42626087007702262
aF0.45947653670208444
aF0.58271606215661664
aF0.5433800000000002
aF0.21455197146672908
aF0.67000000000000004
aa(lp284
F0.15714754422968003
aF0.58953922986267315
aF0.48470471686393529
aF0.56887499337568692
aF0.44539040000000013
aF0.31555443999999999
aF0.67000000000000004
aF0.21219574948779671
aF0.44612636726376176
aF0.42475821269985659
aF0.59863155646580624
aF0.594647632340909
aF0.16399873344820684
aF0.67000000000000004
aa(lp285
F0.11779981851714184
aF0.50611568876259061
aF0.41311099038110477
aF0.59165897840895021
aF0.51612319999999978
aF0.24681774276214022
aF0.67000000000000004
aF0.18521256740597564
aF0.47310499742377343
aF0.4858729831123586
aF0.55982798979057113
aF0.51612319999999978
aF0.22749956246683958
aF0.67000000000000004
aa(lp286
F0.17584449441350736
aF0.51047247693004538
aF0.40640141536744528
aF0.59484207727078819
aF0.55532499602211838
aF0.1617980139989566
aF0.67000000000000004
aF0.11779981851714184
aF0.50611568876259061
aF0.41311099038110477
aF0.59165897840895021
aF0.51612319999999978
aF0.24681774276214022
aF0.67000000000000004
aa(lp287
F0.25516627481599491
aF0.23395109698229105
aF0.5337807498845315
aF0.46865480740083421
aF0.51959799999999989
aF0.31326883999999994
aF0.67000000000000004
aF0.17584449441350736
aF0.51047247693004538
aF0.40640141536744528
aF0.59484207727078819
aF0.55532499602211838
aF0.1617980139989566
aF0.67000000000000004
aa(lp288
F0.29340506260907617
aF0.47894231887053246
aF0.58900247143050066
aF0.65144394123198979
aF0.3759360000000001
aF0.1870537684859265
aF0.67000000000000004
aF0.34451613610962983
aF0.42153931823260005
aF0.64458042431337714
aF0.61961295261361071
aF0.3759360000000001
aF0.15949994290683983
aF0.67000000000000004
aa(lp289
F0.25685908650403888
aF0.30650311444808692
aF0.53872317359751598
aF0.56735808761307793
aF0.57257999999999998
aF0.29142523261957509
aF0.67000000000000004
aF0.25564523630437486
aF0.31022619028351739
aF0.54018104102425613
aF0.56735808761307793
aF0.57257999999999998
aF0.29142523261957509
aF0.67000000000000004
aa(lp290
F0.17778555863028186
aF0.36626439104423164
aF0.43512380329793138
aF0.6151045705406466
aF0.57257999999999998
aF0.29142523261957509
aF0.67000000000000004
aF0.25685908650403888
aF0.30650311444808692
aF0.53872317359751598
aF0.56735808761307793
aF0.57257999999999998
aF0.29142523261957509
aF0.67000000000000004
aa(lp291
F0.12275666909687633
aF0.42207021646416543
aF0.37794230997981693
aF0.64693555915902567
aF0.57257999999999998
aF0.29142523261957509
aF0.67000000000000004
aF0.15045591787530826
aF0.39273657394764711
aF0.40513674721821397
aF0.63102006484983619
aF0.57257999999999998
aF0.29142523261957509
aF0.67000000000000004
aa(lp292
F0.13984999302093096
aF0.46080255119103131
aF0.34964727662793749
aF0.66603415233005303
aF0.63957916884989741
aF0.26506026773389946
aF0.67000000000000004
aF0.12275666909687633
aF0.42207021646416543
aF0.37794230997981693
aF0.64693555915902567
aF0.57257999999999998
aF0.29142523261957509
aF0.67000000000000004
aa(lp293
F0.3231232304905502
aF0.55472967902017167
aF0.58082387246381484
aF0.51768869466307321
aF0.556006
aF0.12386039999999987
aF0.67000000000000004
aF0.37957936646234158
aF0.55783370493659734
aF0.66066357657148167
aF0.48585770604469414
aF0.556006
aF0.12386039999999987
aF0.67000000000000004
aa(lp294
F0.24101759497341479
aF0.57979504274920257
aF0.463879581247857
aF0.56543517759064188
aF0.556006
aF0.12386039999999987
aF0.67000000000000004
aF0.3231232304905502
aF0.55472967902017167
aF0.58082387246381484
aF0.51768869466307321
aF0.556006
aF0.12386039999999987
aF0.67000000000000004
aa(lp295
F0.19441579949298887
aF0.6153481968771104
aF0.39232549987965726
aF0.59726616620902095
aF0.556006
aF0.12386039999999987
aF0.67000000000000004
aF0.24101759497341479
aF0.57979504274920257
aF0.463879581247857
aF0.56543517759064188
aF0.556006
aF0.12386039999999987
aF0.67000000000000004
aa(lp296
F0.17477117576023235
aF0.28365658979494202
aF0.51108885797328474
aF0.45575402602369131
aF0.40561919999999996
aF0.2961120000000001
aF0.67000000000000004
aF0.21646832291579468
aF0.30939683286640118
aF0.58672914628257045
aF0.45575402602369131
aF0.40561919999999996
aF0.2961120000000001
aF0.67000000000000004
aa(lp297
F0.12237191889092712
aF0.26247930640342465
aF0.39337835557427747
aF0.50350050895125997
aF0.40561919999999996
aF0.2961120000000001
aF0.67000000000000004
aF0.17477117576023235
aF0.28365658979494202
aF0.51108885797328474
aF0.45575402602369131
aF0.40561919999999996
aF0.2961120000000001
aF0.67000000000000004
aa(lp298
F0.097942645579962614
aF0.26822668821930123
aF0.3136853136499525
aF0.53533149756963905
aF0.40561919999999996
aF0.2961120000000001
aF0.67000000000000004
aF0.12237191889092712
aF0.26247930640342465
aF0.39337835557427747
aF0.50350050895125997
aF0.40561919999999996
aF0.2961120000000001
aF0.67000000000000004
aa(lp299
F0.24819610655265945
aF0.55556478815614552
aF0.44531958787600201
aF0.51704045657985975
aF0.39584200000000003
aF0.13276359999999982
aF0.67000000000000004
aF0.32671092336585084
aF0.55871124303936703
aF0.56514498785216427
aF0.50112496227067027
aF0.39584200000000003
aF0.13276359999999982
aF0.67000000000000004
aa(lp300
F0.2052407206170036
aF0.56806301450001695
aF0.36640312782395057
aF0.54887144519823883
aF0.39584200000000003
aF0.13276359999999982
aF0.67000000000000004
aF0.24819610655265945
aF0.55556478815614552
aF0.44531958787600201
aF0.51704045657985975
aF0.39584200000000003
aF0.13276359999999982
aF0.67000000000000004
aa(lp301
F0.23731474827878399
aF0.48947150802267136
aF0.44334679775906916
aF0.50137579046098302
aF0.46124679999999996
aF0.1089220000000001
aF0.67000000000000004
aF0.29377071816631989
aF0.49277488379627599
aF0.52317850222156959
aF0.50137579046098302
aF0.46124679999999996
aF0.1089220000000001
aF0.67000000000000004
aa(lp302
F0.15516102689486674
aF0.50243986068482016
aF0.32445162739415706
aF0.54912227338855168
aF0.46124679999999996
aF0.1089220000000001
aF0.67000000000000004
aF0.23731474827878399
aF0.48947150802267136
aF0.44334679775906916
aF0.50137579046098302
aF0.46124679999999996
aF0.1089220000000001
aF0.67000000000000004
aa(lp303
F0.11089229880661167
aF0.53048518012668
aF0.24963536321120189
aF0.58095326200693076
aF0.46124679999999996
aF0.1089220000000001
aF0.67000000000000004
aF0.15516102689486674
aF0.50243986068482016
aF0.32445162739415706
aF0.54912227338855168
aF0.46124679999999996
aF0.1089220000000001
aF0.67000000000000004
aa(lp304
F0.19171239610088428
aF0.43562870276968513
aF0.49401083724708172
aF0.58442952427394401
aF0.59113280000000012
aF0.27191679999999996
aF0.67000000000000004
aF0.27513107073585358
aF0.38926355296849879
aF0.60454725451167801
aF0.56851402996475442
aF0.59113280000000012
aF0.27191679999999996
aF0.67000000000000004
aa(lp305
F0.13525144765000924
aF0.47944832573172069
aF0.42719875770786403
aF0.61626051289232309
aF0.59113280000000012
aF0.27191679999999996
aF0.67000000000000004
aF0.19171239610088428
aF0.43562870276968513
aF0.49401083724708172
aF0.58442952427394401
aF0.59113280000000012
aF0.27191679999999996
aF0.67000000000000004
aa(lp306
F0.19174262178517704
aF0.51206596282981809
aF0.39198566703971272
aF0.63535910606335055
aF0.66019299656736941
aF0.16485388174126642
aF0.67000000000000004
aF0.13525144765000924
aF0.47944832573172069
aF0.42719875770786403
aF0.61626051289232309
aF0.59113280000000012
aF0.27191679999999996
aF0.67000000000000004
aa(lp307
F0.17085001920464377
aF0.57467794702066333
aF0.34234946286800894
aF0.66719009468172952
aF0.68451900686375744
aF0.1271416570246359
aF0.67000000000000004
aF0.19174262178517704
aF0.51206596282981809
aF0.39198566703971272
aF0.63535910606335055
aF0.66019299656736941
aF0.16485388174126642
aF0.67000000000000004
aa(lp308
F0.1498606269129103
aF0.6838685660850562
aF0.29354732751302565
aF0.71493657760929796
aF0.71262323065407396
aF0.083572128353333316
aF0.67000000000000004
aF0.17085001920464377
aF0.57467794702066333
aF0.34234946286800894
aF0.66719009468172952
aF0.68451900686375744
aF0.1271416570246359
aF0.67000000000000004
aa(lp309
F0.2769994979241604
aF0.23827790780221036
aF0.52933042584728085
aF0.55053525097332168
aF0.50981440000000011
aF0.2469736000000001
aF0.67000000000000004
aF0.3481748592313374
aF0.22425452875592206
aF0.64810577912815082
aF0.50278876804575301
aF0.50981440000000011
aF0.2469736000000001
aF0.67000000000000004
aa(lp310
F0.22599025510194051
aF0.26698633206889288
aF0.45476609318739669
aF0.58236623959170075
aF0.50981440000000011
aF0.2469736000000001
aF0.67000000000000004
aF0.2769994979241604
aF0.23827790780221036
aF0.52933042584728085
aF0.55053525097332168
aF0.50981440000000011
aF0.2469736000000001
aF0.67000000000000004
aa(lp311
F0.25484684303808519
aF0.23989979371388018
aF0.48580394171553715
aF0.66194371113764838
aF0.50981440000000011
aF0.2469736000000001
aF0.67000000000000004
aF0.25480287093122367
aF0.23731399820933027
aF0.48275429702820566
aF0.63011272251926942
aF0.50981440000000011
aF0.2469736000000001
aF0.67000000000000004
aa(lp312
F0.1748383791104515
aF0.34742267124481219
aF0.43342961103399491
aF0.70969019406521683
aF0.50981440000000011
aF0.2469736000000001
aF0.67000000000000004
aF0.25484684303808519
aF0.23989979371388018
aF0.48580394171553715
aF0.66194371113764838
aF0.50981440000000011
aF0.2469736000000001
aF0.67000000000000004
aa(lp313
F0.13433159736997147
aF0.42567762150879745
aF0.41729963620230881
aF0.74152118268359579
aF0.50981440000000011
aF0.2469736000000001
aF0.67000000000000004
aF0.1748383791104515
aF0.34742267124481219
aF0.43342961103399491
aF0.70969019406521683
aF0.50981440000000011
aF0.2469736000000001
aF0.67000000000000004
aa(lp314
F0.16463561159960924
aF0.35306110911238198
aF0.41867124359191621
aF0.52853383079524108
aF0.53631320000000005
aF0.27504519999999993
aF0.67000000000000004
aF0.20872116096436638
aF0.34276011853697241
aF0.49790446214357542
aF0.52853383079524108
aF0.53631320000000005
aF0.27504519999999993
aF0.67000000000000004
aa(lp315
F0.10818072735468527
aF0.38603095429630907
aF0.30370503544613425
aF0.57628031372280974
aF0.53631320000000005
aF0.27504519999999993
aF0.67000000000000004
aF0.16463561159960924
aF0.35306110911238198
aF0.41867124359191621
aF0.52853383079524108
aF0.53631320000000005
aF0.27504519999999993
aF0.67000000000000004
aa(lp316
F0.082799118122504026
aF0.42637366353907602
aF0.23473780308290806
aF0.60811130234118882
aF0.53631320000000005
aF0.27504519999999993
aF0.67000000000000004
aF0.10818072735468527
aF0.38603095429630907
aF0.30370503544613425
aF0.57628031372280974
aF0.53631320000000005
aF0.27504519999999993
aF0.67000000000000004
aa(lp317
F0.37860108885849475
aF0.6641422721426512
aF0.66488091438274854
aF0.58472141443957448
aF0.46991159999999998
aF0.16593000000000019
aF0.67000000000000004
aF0.42157911070668219
aF0.63433362839105956
aF0.73901227135522274
aF0.55289042582119541
aF0.46991159999999998
aF0.16593000000000019
aF0.67000000000000004
aa(lp318
F0.24153490207530728
aF0.30350775340933256
aF0.45505503269275849
aF0.59561318297006849
aF0.42816760000000009
aF0.13703280000000007
aF0.67000000000000004
aF0.29789642036404046
aF0.26869966413420415
aF0.52697450328246975
aF0.56378219435168941
aF0.42816760000000009
aF0.13703280000000007
aF0.67000000000000004
aa(lp319
F0.16372250037446573
aF0.38062547708432282
aF0.36363787674236187
aF0.64335966589763705
aF0.42816760000000009
aF0.13703280000000007
aF0.67000000000000004
aF0.24153490207530728
aF0.30350775340933256
aF0.45505503269275849
aF0.59561318297006849
aF0.42816760000000009
aF0.13703280000000007
aF0.67000000000000004
aa(lp320
F0.12800336161161999
aF0.44565248016850029
aF0.31721049044095506
aF0.67519065451601601
aF0.42816760000000009
aF0.13703280000000007
aF0.67000000000000004
aF0.16372250037446573
aF0.38062547708432282
aF0.36363787674236187
aF0.64335966589763705
aF0.42816760000000009
aF0.13703280000000007
aF0.67000000000000004
aa(lp321
F0.36076323330203186
aF0.39077430113406314
aF0.61202446121594423
aF0.45194910879919337
aF0.49895279999999997
aF0.11342880000000015
aF0.67000000000000004
aF0.43545524838119254
aF0.44445819624048505
aF0.74411599407220985
aF0.48935370352465063
aF0.41800719999999991
aF0.12885759999999991
aF0.33000000000000002
aa(lp322
F0.3113135677094927
aF0.37085868565844216
aF0.53464628865341302
aF0.48378009741757244
aF0.49895279999999997
aF0.11342880000000015
aF0.67000000000000004
aF0.36076323330203186
aF0.39077430113406314
aF0.61202446121594423
aF0.45194910879919337
aF0.49895279999999997
aF0.11342880000000015
aF0.67000000000000004
aa(lp323
F0.33936684613246926
aF0.36694224460562702
aF0.57485368637697221
aF0.51561108603595152
aF0.49895279999999997
aF0.11342880000000015
aF0.67000000000000004
aF0.33936684613246926
aF0.36694224460562702
aF0.57485368637697221
aF0.49969559172676203
aF0.49895279999999997
aF0.11342880000000015
aF0.67000000000000004
aa(lp324
F0.25516171674329918
aF0.39047892528835459
aF0.45759216511227657
aF0.56335756896352018
aF0.49895279999999997
aF0.11342880000000015
aF0.67000000000000004
aF0.33936684613246926
aF0.36694224460562702
aF0.57485368637697221
aF0.51561108603595152
aF0.49895279999999997
aF0.11342880000000015
aF0.67000000000000004
aa(lp325
F0.1994007194226847
aF0.42509500975777675
aF0.38558008261985394
aF0.59518855758189926
aF0.49895279999999997
aF0.11342880000000015
aF0.67000000000000004
aF0.22701416576243252
aF0.40598516370726506
aF0.42071999986400427
aF0.57927306327270978
aF0.49895279999999997
aF0.11342880000000015
aF0.67000000000000004
aa(lp326
F0.23639440027234551
aF0.49411410862784882
aF0.35690790365037017
aF0.50924488831227577
aF0.56534410146944969
aF0.030272153803603531
aF0.67000000000000004
aF0.23583060829410155
aF0.49811231141436957
aF0.35694023920629725
aF0.50924488831227577
aF0.56534410146944969
aF0.030272153803603531
aF0.67000000000000004
aa(lp327
F0.27332441253723566
aF0.53057489784828671
aF0.62542012726788521
aF0.60536142323444697
aF0.59221239999999997
aF0.24382703600000005
aF0.67000000000000004
aF0.12615550122288169
aF0.50337965587707889
aF0.19757675164668029
aF0.47741389969389664
aF0.56534410146944969
aF0.030272153803603531
aF0.67000000000000004
aa(lp328
F0.20403092422718119
aF0.58277783514464043
aF0.56493156085635055
aF0.63719241185282605
aF0.59221239999999997
aF0.27654254395999978
aF0.67000000000000004
aF0.27332441253723566
aF0.53057489784828671
aF0.62542012726788521
aF0.60536142323444697
aF0.59221239999999997
aF0.24382703600000005
aF0.67000000000000004
aa(lp329
F0.42893650097696845
aF0.22019465334146987
aF0.64454638690860833
aF0.46305764636217839
aF0.57874879999999995
aF0.15524896442624084
aF0.67000000000000004
aF0.4382701303299627
aF0.22403492722089205
aF0.64343329767528379
aF0.46305764636217839
aF0.57874879999999995
aF0.13516222557908683
aF0.67000000000000004
aa(lp330
F0.36745622122427213
aF0.20443950381681297
aF0.52598832109135996
aF0.51080412928974706
aF0.57874879999999995
aF0.1655154374805555
aF0.67000000000000004
aF0.42893650097696845
aF0.22019465334146987
aF0.64454638690860833
aF0.46305764636217839
aF0.57874879999999995
aF0.15524896442624084
aF0.67000000000000004
aa(lp331
F0.32384547230882166
aF0.21383666525956499
aF0.4466428317065908
aF0.54263511790812613
aF0.57874879999999995
aF0.16989219704581587
aF0.67000000000000004
aF0.36745622122427213
aF0.20443950381681297
aF0.52598832109135996
aF0.51080412928974706
aF0.57874879999999995
aF0.1655154374805555
aF0.67000000000000004
aa(lp332
F0.25582637532794472
aF0.2568499853370575
aF0.33504491952727378
aF0.5903816008356948
aF0.57874879999999995
aF0.16989219704581587
aF0.67000000000000004
aF0.32384547230882166
aF0.21383666525956499
aF0.4466428317065908
aF0.54263511790812613
aF0.57874879999999995
aF0.16989219704581587
aF0.67000000000000004
aa(lp333
F0.26245217496493789
aF0.28275146207694773
aF0.57654701986893497
aF0.56214671815647699
aF0.41823559999999987
aF0.23099479999999986
aF0.67000000000000004
aF0.3185380644519536
aF0.26372181741842449
aF0.65414783141791299
aF0.53031572953809791
aF0.41823559999999987
aF0.23099479999999986
aF0.67000000000000004
aa(lp334
F0.17873037652112497
aF0.33908905279098212
aF0.4710467090665052
aF0.60989320108404566
aF0.41823559999999987
aF0.23099479999999986
aF0.67000000000000004
aF0.26245217496493789
aF0.28275146207694773
aF0.57654701986893497
aF0.56214671815647699
aF0.41823559999999987
aF0.23099479999999986
aF0.67000000000000004
aa(lp335
F0.23429117351863246
aF0.49388323165861581
aF0.66072864150331223
aF0.36557826766231122
aF0.47337719999999983
aF0.33002603999999991
aF0.67000000000000004
aF0.16886890197353771
aF0.42292329423802927
aF0.37458586436695002
aF0.59079460791301819
aF0.45933930527829858
aF0.13856195403929839
aF0.67000000000000004
aa(lp336
F0.14161674394063403
aF0.41283304471647425
aF0.57277918497562685
aF0.41332475058987989
aF0.47337719999999983
aF0.38187342395999979
aF0.67000000000000004
aF0.23429117351863246
aF0.49388323165861581
aF0.66072864150331223
aF0.36557826766231122
aF0.47337719999999983
aF0.33002603999999991
aF0.67000000000000004
aa(lp337
F0.09630111741667767
aF0.3749063680626975
aF0.50245436341958227
aF0.44515573920825896
aF0.47337719999999983
aF0.40837298540759975
aF0.67000000000000004
aF0.14161674394063403
aF0.41283304471647425
aF0.57277918497562685
aF0.41332475058987989
aF0.47337719999999983
aF0.38187342395999979
aF0.67000000000000004
aa(lp338
F0.31428631803749019
aF0.3126430197535548
aF0.55265804543314656
aF0.49762944225554301
aF0.56495439999999986
aF0.18674719999999995
aF0.67000000000000004
aF0.55561032867194904
aF0.64869421157865403
aF0.88278660915483298
aF0.49403588279547106
aF0.45798680000000014
aF0.1205292
aF0.33000000000000002
aa(lp339
F0.26840651664075482
aF0.31544736157524156
aF0.47280725335293744
aF0.52946043087392214
aF0.56495439999999986
aF0.18674719999999995
aF0.67000000000000004
aF0.31428631803749019
aF0.3126430197535548
aF0.55265804543314656
aF0.49762944225554301
aF0.56495439999999986
aF0.18674719999999995
aF0.67000000000000004
aa(lp340
F0.26982484171894178
aF0.50489366617847509
aF0.56104783245758616
aF0.52900604351139469
aF0.55564279999999999
aF0.18284759999999983
aF0.67000000000000004
aF0.3260838738864813
aF0.50231730948759612
aF0.64090630549013949
aF0.49717505489301561
aF0.55564279999999999
aF0.18284759999999983
aF0.67000000000000004
aa(lp341
F0.29816412511505819
aF0.48975670557350315
aF0.59933615154636111
aF0.5130905492022052
aF0.55564279999999999
aF0.18284759999999983
aF0.67000000000000004
aF0.29782585037662712
aF0.49375295999231417
aF0.5994650768365577
aF0.5130905492022052
aF0.55564279999999999
aF0.18284759999999983
aF0.67000000000000004
aa(lp342
F0.21363186413327492
aF0.5114334416093691
aF0.48171660035820774
aF0.56083703212977376
aF0.55564279999999999
aF0.18284759999999983
aF0.67000000000000004
aF0.29816412511505819
aF0.48975670557350315
aF0.59933615154636111
aF0.5130905492022052
aF0.55564279999999999
aF0.18284759999999983
aF0.67000000000000004
aa(lp343
F0.16021084852873516
aF0.54490477745161314
aF0.40916535635904977
aF0.59266802074815295
aF0.55564279999999999
aF0.18284759999999983
aF0.67000000000000004
aF0.21363186413327492
aF0.5114334416093691
aF0.48171660035820774
aF0.56083703212977376
aF0.55564279999999999
aF0.18284759999999983
aF0.67000000000000004
aa(lp344
F0.26538732415224686
aF0.53710794326981637
aF0.52637171600794763
aF0.43338034243371887
aF0.39225640000000012
aF0.18013639999999995
aF0.67000000000000004
aF0.3211943093781997
aF0.580129237333745
aF0.59370062202872487
aF0.40154935381533979
aF0.39225640000000012
aF0.18013639999999995
aF0.67000000000000004
aa(lp345
F0.18119075693382611
aF0.4996465116923684
aF0.4127896714276556
aF0.48112682536128754
aF0.39225640000000012
aF0.18013639999999995
aF0.67000000000000004
aF0.26538732415224686
aF0.53710794326981637
aF0.52637171600794763
aF0.43338034243371887
aF0.39225640000000012
aF0.18013639999999995
aF0.67000000000000004
aa(lp346
F0.1299568332263886
aF0.4941709712645494
aF0.3330774905146171
aF0.51295781397966667
aF0.39225640000000012
aF0.18013639999999995
aF0.67000000000000004
aF0.18119075693382611
aF0.4996465116923684
aF0.4127896714276556
aF0.48112682536128754
aF0.39225640000000012
aF0.18013639999999995
aF0.67000000000000004
aa(lp347
F0.19892809470266035
aF0.49700780439533254
aF0.47276308686570445
aF0.49385142221642764
aF0.56097880000000022
aF0.19880600000000009
aF0.67000000000000004
aF0.27704309345136297
aF0.52527824335755002
aF0.58897419643684157
aF0.44610493928885897
aF0.56097880000000022
aF0.19880600000000009
aF0.67000000000000004
aa(lp348
F0.14780497905434653
aF0.48600791264773269
aF0.3939264492494729
aF0.4779359279072381
aF0.56097880000000022
aF0.19880600000000009
aF0.67000000000000004
aF0.17181708318652855
aF0.49546288261330462
aF0.43279293279185327
aF0.4779359279072381
aF0.56097880000000022
aF0.19880600000000009
aF0.67000000000000004
aa(lp349
F0.10019788818629094
aF0.47893543021246537
aF0.31434006020528715
aF0.50976691652561723
aF0.56097880000000022
aF0.19880600000000009
aF0.67000000000000004
aF0.14780497905434653
aF0.48600791264773269
aF0.3939264492494729
aF0.4779359279072381
aF0.56097880000000022
aF0.19880600000000009
aF0.67000000000000004
aa(lp350
F0.20799368497207832
aF0.47942606089985451
aF0.30635511928323955
aF0.5129500153874551
aF0.56785861506199142
aF0.025815586704876027
aF0.67000000000000004
aF0.10019788818629094
aF0.47893543021246537
aF0.31434006020528715
aF0.50976691652561723
aF0.56097880000000022
aF0.19880600000000009
aF0.67000000000000004
aa(lp351
F0.14698421841234249
aF0.49212440457424905
aF0.21939515764554257
aF0.54796410286767205
aF0.56785861506199142
aF0.025815586704876027
aF0.67000000000000004
aF0.20799368497207832
aF0.47942606089985451
aF0.30635511928323955
aF0.5129500153874551
aF0.56785861506199142
aF0.025815586704876027
aF0.67000000000000004
aa(lp352
F0.11878954158074063
aF0.50399745281087505
aF0.18119789693785898
aF0.56387959717686165
aF0.56785861506199142
aF0.025815586704876027
aF0.67000000000000004
aF0.14698421841234249
aF0.49212440457424905
aF0.21939515764554257
aF0.54796410286767205
aF0.56785861506199142
aF0.025815586704876027
aF0.67000000000000004
aa(lp353
F0.11878954158074063
aF0.50399745281087505
aF0.18119789693785898
aF0.56387959717686165
aF0.56785861506199142
aF0.025815586704876027
aF0.67000000000000004
aF0.11878954158074063
aF0.50399745281087505
aF0.18119789693785898
aF0.56387959717686165
aF0.56785861506199142
aF0.025815586704876027
aF0.67000000000000004
aa(lp354
F0.17918728751973273
aF0.34295396419441387
aF0.40213281112703853
aF0.49734662392166867
aF0.54489359999999998
aF0.24904280000000015
aF0.67000000000000004
aF0.23198999647900773
aF0.36086574715637487
aF0.52065367295694143
aF0.48143112961247914
aF0.54489359999999998
aF0.24904280000000015
aF0.67000000000000004
aa(lp355
F0.15012440087748205
aF0.34561640680557737
aF0.32227716180758248
aF0.5291776125400478
aF0.54489359999999998
aF0.24904280000000015
aF0.67000000000000004
aF0.17918728751973273
aF0.34295396419441387
aF0.40213281112703853
aF0.49734662392166867
aF0.54489359999999998
aF0.24904280000000015
aF0.67000000000000004
aa(lp356
F0.12788659624881296
aF0.36409064623470044
aF0.2445422545496129
aF0.56100860115842688
aF0.54489359999999998
aF0.24904280000000015
aF0.67000000000000004
aF0.1378546199640644
aF0.35290853274033757
aF0.28294746692761163
aF0.54509310684923729
aF0.54489359999999998
aF0.24904280000000015
aF0.67000000000000004
aa(lp357
F0.18501717544713003
aF0.36449313775974301
aF0.37998142335311369
aF0.55266267509763101
aF0.57711080000000015
aF0.22748080000000001
aF0.67000000000000004
aF0.22905371412474379
aF0.35011876603077707
aF0.45857780219010102
aF0.52083168647925182
aF0.57711080000000015
aF0.22748080000000001
aF0.67000000000000004
aa(lp358
F0.11912297707432477
aF0.41444768807730981
aF0.27131320072367621
aF0.60040915802519956
aF0.57711080000000015
aF0.22748080000000001
aF0.67000000000000004
aF0.18501717544713003
aF0.36449313775974301
aF0.37998142335311369
aF0.55266267509763101
aF0.57711080000000015
aF0.22748080000000001
aF0.67000000000000004
aa(lp359
F0.077849668302929054
aF0.48188875839724937
aF0.17221865651522669
aF0.61632465233438916
aF0.57711080000000015
aF0.22748080000000001
aF0.67000000000000004
aF0.098673869312939949
aF0.43804221372623858
aF0.23901307132142691
aF0.60040915802519956
aF0.57711080000000015
aF0.22748080000000001
aF0.67000000000000004
aa(lp360
F0.14858745795108932
aF0.50809900142802034
aF0.23106487392934305
aF0.51348795909510558
aF0.4982080255021305
aF0.021163387714620896
aF0.67000000000000004
aF0.16156250581869297
aF0.50102126034979411
aF0.27850650382342967
aF0.52622035454245719
aF0.48971224125518698
aF0.050302663673923401
aF0.67000000000000004
aa(lp361
F0.1401147998119785
aF0.44908289060629547
aF0.45274709553903741
aF0.58984731769173515
aF0.54446591816734191
aF0.27906234576156519
aF0.67000000000000004
aF0.13761330075025022
aF0.42090595281725562
aF0.49156542680933413
aF0.60257971313908676
aF0.51422920000000016
aF0.32078600000000035
aF0.67000000000000004
aa(lp362
F0.15774033648909982
aF0.43511831043200966
aF0.22839861555952332
aF0.40247197502044335
aF0.31639908163836844
aF0.039534187397123333
aF0.67000000000000004
aF0.2006835296715595
aF0.48428206391994377
aF0.29138225368774934
aF0.40247197502044335
aF0.32430963209079627
aF0.056954057397182643
aF0.67000000000000004
aa(lp363
F0.15956304677754676
aF0.51052057396846851
aF0.4362329825710109
aF0.4069660331485293
aF0.55930760000000002
aF0.21591376442624083
aF0.67000000000000004
aF0.22957842745934315
aF0.58936677079803912
aF0.52651755436094694
aF0.39105053883933977
aF0.55930760000000002
aF0.20323910633449421
aF0.67000000000000004
aa(lp364
F0.12968492263052162
aF0.49207434663111549
aF0.4011912490475204
aF0.45471251607609792
aF0.55930760000000002
aF0.23055699704581584
aF0.67000000000000004
aF0.15144700481524481
aF0.50708001536433722
aF0.43826994786326667
aF0.42288152745771884
aF0.55930760000000002
aF0.23055699704581584
aF0.67000000000000004
aa(lp365
F0.089433065633371278
aF0.47350518280326026
aF0.32347896247953967
aF0.48654350469447705
aF0.55930760000000002
aF0.23055699704581584
aF0.67000000000000004
aF0.12968492263052162
aF0.49207434663111549
aF0.4011912490475204
aF0.45471251607609792
aF0.55930760000000002
aF0.23055699704581584
aF0.67000000000000004
aa(lp366
F0.13966415575428981
aF0.47282959117369716
aF0.31550754002491671
aF0.48972660355631498
aF0.54271071618120881
aF0.13076777394278949
aF0.67000000000000004
aF0.089433065633371278
aF0.47350518280326026
aF0.32347896247953967
aF0.48654350469447705
aF0.55930760000000002
aF0.23055699704581584
aF0.67000000000000004
aa(lp367
F0.12049615782805007
aF0.47894203435700755
aF0.18810769055880919
aF0.54065618534572146
aF0.52906257882173802
aF0.025237867925314815
aF0.67000000000000004
aF0.17281671966231227
aF0.47053215571950879
aF0.26756388773808659
aF0.50882519672734239
aF0.52973579704591101
aF0.030443314943837053
aF0.67000000000000004
aa(lp368
F0.11484481205728075
aF0.48096348369086322
aF0.18036729376079846
aF0.54383928420755945
aF0.52906257882173802
aF0.025237867925314815
aF0.67000000000000004
aF0.12049615782805007
aF0.47894203435700755
aF0.18810769055880919
aF0.54065618534572146
aF0.52906257882173802
aF0.025237867925314815
aF0.67000000000000004
aa(lp369
F0.11484481205728075
aF0.48096348369086322
aF0.18036729376079846
aF0.53747308648388359
aF0.52906257882173802
aF0.025237867925314815
aF0.67000000000000004
aF0.11484481205728075
aF0.48096348369086322
aF0.18036729376079846
aF0.54065618534572146
aF0.52906257882173802
aF0.025237867925314815
aF0.67000000000000004
aa(lp370
F0.23837868549108335
aF0.63536516558526801
aF0.4063085530024278
aF0.48497535104019246
aF0.3751448
aF0.19198599999999999
aF0.67000000000000004
aF0.30402156373659905
aF0.64663899185631235
aF0.52537635111796244
aF0.500890845349382
aF0.3751448
aF0.19198599999999999
aF0.67000000000000004
aa(lp371
F0.29639942307666667
aF0.61772829022754294
aF0.50466240008842755
aF0.51080778985343811
aF0.51332265106907227
aF0.098700950552860253
aF0.67000000000000004
aF0.21868620011880505
aF0.61644480442898231
aF0.46468299708882166
aF0.49489229554424857
aF0.52847207163674559
aF0.16818998447621639
aF0.67000000000000004
aa(lp372
F0.27010532492089884
aF0.62712727661406542
aF0.4253171268593583
aF0.54263877847181718
aF0.50557967600328446
aF0.063184618122144084
aF0.67000000000000004
aF0.29639942307666667
aF0.61772829022754294
aF0.50466240008842755
aF0.51080778985343811
aF0.51332265106907227
aF0.098700950552860253
aF0.67000000000000004
aa(lp373
F0.23151168431291178
aF0.67014316343216118
aF0.3137202040159206
aF0.59038526139938585
aF0.49930786619999667
aF0.034416388853263945
aF0.67000000000000004
aF0.27010532492089884
aF0.62712727661406542
aF0.4253171268593583
aF0.54263877847181718
aF0.50557967600328446
aF0.063184618122144084
aF0.67000000000000004
aa(lp374
F0.1500979395109665
aF0.44866312569974021
aF0.44667254255662919
aF0.57560883901790505
aF0.51280999999999999
aF0.24432639999999992
aF0.67000000000000004
aF0.20658908392148315
aF0.42314547497360627
aF0.52238821352577991
aF0.54377785039952586
aF0.51280999999999999
aF0.24432639999999992
aF0.67000000000000004
aa(lp375
F0.30502027017763339
aF0.42360943483957458
aF0.48851504115354311
aF0.55651024584687758
aF0.59254934391864933
aF0.091609463521556481
aF0.67000000000000004
aF0.27316254902947179
aF0.42742315583678447
aF0.48971595883005392
aF0.55651024584687758
aF0.57177818117057666
aF0.13139043218888133
aF0.67000000000000004
aa(lp376
F0.25711992476800166
aF0.47617618678457879
aF0.38108610512221225
aF0.60425672877444614
aF0.61654659620722541
aF0.045649882299638199
aF0.67000000000000004
aF0.30502027017763339
aF0.42360943483957458
aF0.48851504115354311
aF0.55651024584687758
aF0.59254934391864933
aF0.091609463521556481
aF0.67000000000000004
aa(lp377
F0.21374481547251517
aF0.52795801881472892
aF0.3202366581198689
aF0.63608771739282532
aF0.62300194562359901
aF0.033286585358391643
aF0.67000000000000004
aF0.25711992476800166
aF0.47617618678457879
aF0.38108610512221225
aF0.60425672877444614
aF0.61654659620722541
aF0.045649882299638199
aF0.67000000000000004
aa(lp378
F0.15705035007452883
aF0.62559385917537824
aF0.25116074058024368
aF0.68383420032039377
aF0.62520967512399861
aF0.029058337804485211
aF0.67000000000000004
aF0.21374481547251517
aF0.52795801881472892
aF0.3202366581198689
aF0.63608771739282532
aF0.62300194562359901
aF0.033286585358391643
aF0.67000000000000004
aasS'errors'
p379
(lp380
F0.00018419974453820487
aF0.00018389860320056073
aF0.00016566678349150266
aF0.0001612447427028485
aF0.00019169471706348418
aF0.00018197313882595267
aF0.00014727163782168873
aF0.0001470279612938441
aF0.00018993276049528163
aF0.00058181537690771279
aF0.00057335285299942029
aF0.00050565117644651991
aF0.00037686966883043738
aF0.00031914418315182047
aF0.00027105644351266278
aF0.00020909647066957859
aF0.00095216746816007003
aF0.00019296143968361434
aF0.00049267672290298492
aF0.00039912750988335688
aF0.0003207171516024232
aF0.00026769570348861293
aF0.00047731793481275986
aF0.00038688783664397874
aF0.00028482298549903362
aF0.00052355705394191432
aF0.00050077907282641831
aF0.00042552273454887768
aF0.00038716589137521851
aF0.00034210351035568465
aF0.00028288636560347413
aF0.00017412255313686842
aF0.00044319284069871401
aF0.00031798386931214395
aF0.00022557948799217797
aF0.00019260473935744926
aF0.0001531735986510796
aF0.00013416160032875268
aF0.00012890416269684124
aF0.00024483409530517974
aF0.00013432873666374689
aF0.00030562779740606061
aF0.0002202267527628976
aF0.00028544205656899635
aF0.0003030455671115817
aF0.00025212070688951371
aF0.00036930103432908368
aF0.00030383724687865765
aF0.00023177736154167405
aF0.00020028631638879801
aF9.280746580841992e-05
aF0.0002645223980408673
aF0.00035089686798528419
aF0.00034032067943101652
aF0.00026032591722469078
aF0.00023391919086179769
aF0.00024807196226817041
aF0.00024918328134049261
aF0.00044784290821553441
aF0.00042918833504757004
aF0.00038322896616094226
aF7.544502478395998e-05
aF0.00049619750434715115
aF0.00042453239837314527
aF0.0003356842420210171
aF0.00025471110939179198
aF0.00028036021213040385
aF0.00030650990272107492
aF0.00034560183816267909
aF0.0002745905307222074
aF0.00017190090856189499
aF0.00019427051544340657
aF0.00021518932347319719
aF0.00021982474835979815
aF0.00017915612754748622
aF0.00054381943918002662
aF0.00043028858755178589
aF0.00031845720979006842
aF0.00038133846631538404
aF0.00028153067484382177
aF0.00084998842415373588
aF0.00065622801978193479
aF0.00047766228037815495
aF0.00022665721717274323
aF0.00018367603441049596
aF0.00014238636720520503
aF0.00028954323552810024
aF0.00031683275609850625
aF0.00027558909026836886
aF0.00025703011289124333
aF0.00020328764269450517
aF0.00036581089545961731
aF0.0003182216995867293
aF0.00030830282354443739
aF0.00027732534579882895
aF0.00029975024334660816
aF0.00032004771563265422
aF0.00033301406512364906
aF0.0002445643214663562
aF0.00051182627068158126
aF0.00051437872642168259
aF0.0005051817804897496
aF0.00047414336366102816
aF0.00041268891280665798
aF0.00030907987722983421
aF0.00030783596947969727
aF0.00026876472739800761
aF0.00011891459316260011
aF0.00011383346546267603
aF0.00011046385660762326
aF0.00094468013319470856
aF0.00072053744609235082
aF0.00051469431989659142
aF0.00036832212316895152
aF0.0015881570130389377
aF0.0015036329314632724
aF0.0013306360481379897
aF0.0010958386519988039
aF0.00083784763729966016
aF0.00022417272353436601
aF0.00057601051175026896
aF0.00042576232521085444
aF0.00035382295965291632
aF0.00037427227023556497
aF0.00037052569829043591
aF0.00038290924209860577
aF0.00039111882113118668
aF0.00038129684520882279
aF0.0003920380586528438
aF0.0002953288169607049
aF0.00052309648612691717
aF0.00051768405703356279
aF0.00054550675061193488
aF0.00021889512207806661
aF0.00059696955861809897
aF0.0033194559780191923
aF0.0029735895173885751
aF0.0023942189304904105
aF0.0016860359979915529
aF0.0011565604411494235
aF0.000933292667046004
aF0.00095483883564284611
aF0.0029763923277670301
aF0.0029473965183548501
aF0.0025686233004762471
aF0.0019433182311061614
aF0.0024004919648668022
aF0.0024279424982580622
aF0.0025962369815779596
aF0.0027788506951154091
aF0.0024841305056000351
aF0.0020381533561284471
aF0.0015557184985084405
aF0.0014372152487354128
aF0.00088761717951513219
aF0.00092291742712191649
aF0.00089313187648087933
aF0.00077480955157227527
aF0.00074375331520926125
aF0.0015165442509221805
aF0.0019878400203374724
aF0.0023872229299115588
aF0.0024239380155286483
aF0.002409238633166666
aF0.0025670411340357191
aF0.0021038712536238791
aF0.0016746802670297711
aF0.00046769560278292488
aF0.00029607324734115537
aF0.00043158230114670459
aF0.00067638617702314718
aF0.00057643235175675045
aF0.0003151493029989183
aF0.00075045031877607471
aF0.00031338892997112566
aF0.00039836411103877367
aF0.00025698017764241854
aF0.00020673778394453279
aF0.00024775887636252492
aF0.0004463268230558981
aF0.00059054391407542539
aF0.0025578718545204993
aF0.0075600606283501293
aF0.00571624975884788
aF0.0015096542339883001
aF0.0015078342561665181
aF0.0014080456782217254
aF0.0014083269519353792
aF0.0013607055197191187
aF0.0010763623397345157
aF0.00083260408320029455
aF0.00080775393844945143
aF0.00071051717101511258
aF0.00057590596006917849
aF0.00042089431623537621
aF0.0003149838733662591
aF0.00030353948378802897
aF0.00053665587535789427
aF0.00054720775844785408
aF0.0004937885688960364
aF0.00039978340092972076
aF0.00030031974697664054
aF0.00040500904263041093
aF0.0003801973331434283
aF0.00040982313339910093
aF0.00055010238573061088
aF0.00017394472253684512
aF0.00091502032613632878
aF0.00070152127655376262
aF0.00065553949221808239
aF0.00021208511099146676
aF0.00033225564499517191
aF0.00032019647534298201
aF0.0010639495012618738
aF0.00140658831410434
aF0.0013420268145161174
aF0.0024927516814052808
aF0.0024765338228611711
aF0.0022270275020197516
aF0.0015590550773119105
aF0.00045871374278050325
aF0.00084203820383166317
aF0.0014969002067175552
aF0.0013337385135692159
aF0.00084624795683296838
aF0.0007587713433743204
aF0.0016691533319352914
aF0.0016042674056109263
aF0.001507265547857628
aF0.0013803663644154085
aF0.0013442005102355381
aF0.0012253525592953451
aF0.0016740301319551065
aF0.0014137455057223747
aF0.0011494943482048825
aF0.00055987328823903226
aF0.00027104527493548858
aF0.00052894286867299911
aF0.0021392885709943243
aF0.00038431550476758503
aF0.0008467976247210629
aF0.00064159913019423698
aF0.00050745944745500537
aF0.0017372088466949265
aF0.001486562276404868
aF0.00096619761515981395
aF0.00043656214214848887
aF0.0021213834274504961
aF0.001933131122402898
aF0.0016084185094804582
aF0.00065882019448793017
aF0.00083299818358284483
aF0.001645237410816236
aF0.0038955543935870196
aF0.0029879709459805781
aF0.0023390738586392956
aF0.0010221851518110725
aF0.0010446701190325314
aF0.0010126307401527868
aF0.0010052344145528025
aF0.0028401487920781676
aF0.0025233980022569824
aF0.0021350844039389472
aF0.0016779435994642711
aF0.0014970737576796012
aF0.0020280865200916764
aF0.0018771741332876957
aF0.0016325375475645387
aF0.0015066491297517359
aF0.0015811171900317333
aF0.0036946034713380982
aF0.0038817311182839376
aF0.0035541514432146926
aF0.0033428286952315034
aF0.00095634791625798243
aF0.0009274960004752586
aF0.002315398745942332
aF0.0025646901037852388
aF0.0024095490885045479
aF0.0023616060173203834
aF0.00092840027187435226
aF0.00092063854461699179
aF0.0025777808353844023
aF0.0021132476169114511
aF0.0016847162739352939
aF0.0014778978768532625
aF0.0019710323673969299
aF0.0016610978260089837
aF0.0012651858053835952
aF0.0024865908210713883
aF0.0015355219661934427
aF0.0021255338184325012
aF0.0019355886501628561
aF0.0022113909175125457
aF0.00090857259741028429
aF0.00069531564688318781
aF0.0015656478780279315
aF0.0095890489044343497
aF0.0082883973442022807
aF0.0078684882174968607
aF0.0069633307190066773
aF0.0044702313551354678
aF0.0025034958084582115
aF0.0015478912984292492
aF0.0039913665036195312
aF0.0039009621232288794
aF0.0032888578231116128
aF0.0025755901747750443
aF0.0020745582574228649
aF0.0018512972922088977
aF0.0044632251236009779
aF0.0017820796613570167
aF0.0016607922987432744
aF0.0022496591581138148
aF0.0044294033121623499
aF0.0025347240108573033
aF0.0068805425192444147
aF0.0019508300620429964
aF0.0040248917272300844
aF0.0048062757309175197
aF0.0051594828879082399
aF0.0040976697925501071
aF0.0040440654153286459
aF0.0047960610204214049
aF0.0042380961220160884
aF0.0020830398295039743
aF0.0025161518930936211
aF0.010104357433036171
aF0.0089388924894322486
aF0.01336855238145418
aF0.012027991174029751
aF0.0064401784094236803
aF0.015636121221156429
aF0.01489699674948497
aF0.013260266796137898
aF0.011590871944520131
aF0.0097902961140476918
aF0.0087075469605970568
aF0.0059032623983412691
aF0.014496647206357238
aF0.011736126092745991
aF0.006092994156610132
aF0.011734034671150084
aF0.0095362351726357986
aF0.012066391248414021
aF0.010352532055563302
aF0.0069717825105186648
aF0.0085148362445934822
aF0.010891528854202193
aF0.011654405380756572
aF0.0084698565124767811
aF0.01323984392202604
aF0.017709215140005341
aF0.019094401499959446
aF0.01930693139332007
aF0.015578586595541566
aF0.017325540674224982
aF0.013684700021901364
aF0.025250230710867072
aF0.02929960075900695
aF0.031297376700596402
aF0.020142941901301725
aF0.0259726518496457
aF0.029450626424253556
aF0.051335666511050704
aF0.067539029750808055
aF0.042844979990253051
aF0.050029469031901641
aF0.083093493598006773
aF0.073325456007697909
aF0.098465923751479778
aF0.12180798957320604
aF0.17331888761185965
aF0.27422079766513008
aF0.44288084132933392
asS'name'
p381
S'R8INV'
p382
sS'trace'
p383
(lp384
(I253
F0.053338344119091087
tp385
a(I310
F0.042805173366653973
tp386
a(I325
F0.036213011311963327
tp387
a(I639
F0.03161956302945583
tp388
a(I647
F0.028095027361619174
tp389
a(I768
F0.025644664771247817
tp390
a(I832
F0.02270237443423298
tp391
a(I851
F0.021170557059802916
tp392
a(I870
F0.0197004776264572
tp393
a(I893
F0.017468361480134718
tp394
a(I906
F0.015994800707946979
tp395
a(I916
F0.015052906146910487
tp396
a(I990
F0.014362301951348543
tp397
a(I991
F0.01394819611985838
tp398
a(I992
F0.01315993592961533
tp399
a(I993
F0.012518362571100568
tp400
a(I994
F0.012104233212645284
tp401
a(I995
F0.012182290060615487
tp402
a(I1004
F0.011746875570023433
tp403
a(I1005
F0.011604851753162962
tp404
a(I1006
F0.011367316592688326
tp405
a(I1013
F0.010961096232267238
tp406
a(I1014
F0.010656901923988471
tp407
a(I1023
F0.010227954242831174
tp408
a(I1038
F0.0099724815755122612
tp409
a(I1060
F0.0096758292051626425
tp410
a(I1133
F0.0094320104918114104
tp411
a(I1145
F0.0092531796586408175
tp412
a(I1193
F0.0091382151499220746
tp413
a(I1194
F0.0089304931832158724
tp414
a(I1209
F0.0086400885625160136
tp415
a(I1250
F0.0084196348246997847
tp416
a(I1351
F0.0080283066403355006
tp417
a(I1393
F0.0080598085748408727
tp418
a(I1405
F0.0076917524915653245
tp419
a(I1424
F0.0072890627357975295
tp420
a(I1501
F0.0071429186061884309
tp421
a(I1511
F0.0068610484197142796
tp422
a(I1546
F0.0065407197616066523
tp423
a(I1566
F0.0062556138887698868
tp424
a(I1579
F0.0057992551086127261
tp425
a(I1580
F0.0052863575689302425
tp426
a(I1581
F0.0047639363270749868
tp427
a(I1582
F0.0046378835036225037
tp428
a(I1583
F0.0043128023415904696
tp429
a(I1584
F0.0039377149064770836
tp430
a(I1587
F0.0036420748588369633
tp431
a(I1589
F0.003338040393853845
tp432
a(I1590
F0.0034162035723355189
tp433
a(I1592
F0.0036114152079156272
tp434
a(I1593
F0.0037566308917348578
tp435
a(I1594
F0.0038963243446860931
tp436
a(I1596
F0.0041181236842503209
tp437
a(I1600
F0.0040168428076694344
tp438
a(I1609
F0.0038382761180284319
tp439
a(I1633
F0.0036823679926881424
tp440
a(I1725
F0.003609827960299441
tp441
a(I1733
F0.0036092183038242353
tp442
a(I1765
F0.003419017955791759
tp443
a(I1785
F0.0033790498740052044
tp444
a(I1793
F0.0033013373743615657
tp445
a(I1901
F0.0032619584402523573
tp446
a(I1903
F0.0032619706613429855
tp447
a(I1964
F0.0032695287695845821
tp448
a(I1983
F0.0031501156797146736
tp449
a(I1984
F0.0031434524389837293
tp450
a(I1985
F0.0031450000133632725
tp451
a(I1986
F0.0031450876397876469
tp452
a(I1989
F0.0030503588686478624
tp453
a(I1990
F0.0029314563945936813
tp454
a(I1993
F0.0028662659751417154
tp455
a(I1994
F0.002900732286744727
tp456
a(I1995
F0.0029031800585578083
tp457
a(I1998
F0.0028169867541900828
tp458
a(I2001
F0.0025755533654488261
tp459
a(I2002
F0.002299067753399271
tp460
a(I2006
F0.00210124500744044
tp461
a(I2007
F0.0018598491089916536
tp462
a(I2008
F0.0019524924386018939
tp463
a(I2010
F0.0020724639515800904
tp464
a(I2013
F0.0020993657352849481
tp465
a(I2014
F0.0020711760637745157
tp466
a(I2017
F0.0020590540196705831
tp467
a(I2020
F0.0020491196322647907
tp468
a(I2021
F0.0020688222144207204
tp469
a(I2024
F0.0020292415318850488
tp470
a(I2025
F0.002045751843648276
tp471
a(I2026
F0.0020647113067654745
tp472
a(I2027
F0.0020868059321598764
tp473
a(I2028
F0.0021412959687688725
tp474
a(I2031
F0.0021141166943935731
tp475
a(I2034
F0.0020700920193232266
tp476
a(I2035
F0.0020087675906691515
tp477
a(I2042
F0.0020128294549569149
tp478
a(I2043
F0.0020692563984275126
tp479
a(I2044
F0.0020943109955739204
tp480
a(I2045
F0.0021537512077772192
tp481
a(I2051
F0.0021169731000584592
tp482
a(I2077
F0.0020576770775640797
tp483
a(I2081
F0.0020469300453245863
tp484
a(I2098
F0.0020730128690534854
tp485
a(I2099
F0.0020166249661403412
tp486
a(I2105
F0.0019593142455097733
tp487
a(I2112
F0.0018215074864643555
tp488
a(I2149
F0.0017123712522172242
tp489
a(I2151
F0.0017085890556721496
tp490
a(I2232
F0.0017178114443498771
tp491
a(I2340
F0.0016728083203454958
tp492
a(I2342
F0.0016233853202217575
tp493
a(I2606
F0.0015761337644069329
tp494
a(I2623
F0.0015316234342904523
tp495
a(I2788
F0.0015500772331516544
tp496
a(I2867
F0.0014858315717410165
tp497
a(I2875
F0.0013957374626481567
tp498
a(I2880
F0.0013045264424945912
tp499
a(I2881
F0.0013102968398406745
tp500
a(I2882
F0.001326341430463458
tp501
a(I2883
F0.0013515158309803611
tp502
a(I2886
F0.0013596425272797319
tp503
a(I2887
F0.0013198475933435816
tp504
a(I2891
F0.0012555434100809748
tp505
a(I2892
F0.0011600118562517991
tp506
a(I2893
F0.0011583730560435867
tp507
a(I2895
F0.0011918192619776845
tp508
a(I2898
F0.0011958173079331402
tp509
a(I2899
F0.0011653304858272406
tp510
a(I2901
F0.0011413547814738934
tp511
a(I2902
F0.0011163754526445756
tp512
a(I2903
F0.0011325944951119027
tp513
a(I2904
F0.0011122951402167303
tp514
a(I2909
F0.001115194852253012
tp515
a(I2910
F0.001134787598466005
tp516
a(I2913
F0.0012135505734822516
tp517
a(I2914
F0.0012875966755306932
tp518
a(I2932
F0.0013074058431224956
tp519
a(I2933
F0.0013482967554959658
tp520
a(I2997
F0.0013052831927066676
tp521
a(I3041
F0.001296933336973467
tp522
a(I3059
F0.0012993817517758543
tp523
a(I3155
F0.0012854702246859516
tp524
a(I3226
F0.0012657120304464798
tp525
a(I3260
F0.0012372230612797352
tp526
a(I3261
F0.0012068626690469842
tp527
a(I3331
F0.0011648063555766441
tp528
a(I3365
F0.0011330424305964471
tp529
a(I3701
F0.0010942207013557948
tp530
a(I3736
F0.0010491379727672267
tp531
a(I3809
F0.0010011676382480062
tp532
a(I3821
F0.00094641429484966012
tp533
a(I3822
F0.00093205477715187614
tp534
a(I3823
F0.00091795640163439885
tp535
a(I3824
F0.00088649517142954434
tp536
a(I3826
F0.00084808539817515793
tp537
a(I3829
F0.00082654544937341254
tp538
a(I3830
F0.00082079625459684279
tp539
a(I3831
F0.00077526982415378144
tp540
a(I3832
F0.00070922496247575854
tp541
a(I3833
F0.00063858429640191612
tp542
a(I3836
F0.00057118438668368298
tp543
a(I3837
F0.00055080747743105004
tp544
a(I3838
F0.00053759843845625711
tp545
a(I3839
F0.00054946867919454685
tp546
a(I3840
F0.00059299389825824274
tp547
a(I3841
F0.00063602549958730493
tp548
a(I3842
F0.00068785546539430699
tp549
a(I3843
F0.00072202005506511564
tp550
a(I3862
F0.00092260919435688043
tp551
a(I3865
F0.0011884108064454323
tp552
a(I3871
F0.0012837678917247785
tp553
a(I3949
F0.0012853855528585712
tp554
a(I4149
F0.001286845700444843
tp555
a(I4938
F0.001281548162173607
tp556
a(I4942
F0.0012736173118261718
tp557
a(I5000
F0.0012718837290528028
tp558
a(I5036
F0.001271826957457165
tp559
a(I5050
F0.0012646109719001686
tp560
a(I5102
F0.0012727406743132973
tp561
a(I5126
F0.0012638804114189384
tp562
a(I5177
F0.0012747961261376872
tp563
a(I5286
F0.0012892522182839628
tp564
a(I5326
F0.0012896797376804158
tp565
a(I5428
F0.001278486429171295
tp566
a(I5431
F0.0012687735664420074
tp567
a(I5437
F0.0013034506195852202
tp568
a(I5439
F0.0013543013064021637
tp569
a(I5440
F0.0014139284581742117
tp570
a(I5442
F0.0014558697827121137
tp571
a(I5443
F0.0014964942252558445
tp572
a(I5444
F0.0015356613153234377
tp573
a(I5445
F0.001554861545890276
tp574
a(I5447
F0.0015551371465676311
tp575
a(I5450
F0.0013562372888220864
tp576
a(I5451
F0.0010848272457509723
tp577
a(I5452
F0.0010182376466293874
tp578
a(I5453
F0.001031532587151247
tp579
a(I5454
F0.0010491842014096165
tp580
a(I5457
F0.001096762456304532
tp581
a(I5458
F0.0011507216848870882
tp582
a(I5459
F0.0012219686120265294
tp583
a(I5460
F0.0013053992678089799
tp584
a(I5461
F0.0014040177384147512
tp585
a(I5462
F0.0014778492049268266
tp586
a(I5463
F0.0015623609327371924
tp587
a(I5464
F0.0016353233172615943
tp588
a(I5577
F0.0016860005994249151
tp589
a(I5578
F0.0017714822393980966
tp590
a(I5579
F0.0018775351702386444
tp591
a(I5580
F0.0019778830392380088
tp592
a(I5730
F0.0019490893819825317
tp593
a(I5736
F0.0019022662385194166
tp594
a(I5841
F0.0018458470108039648
tp595
a(I5842
F0.0018169189053969604
tp596
a(I5843
F0.0018157301419954308
tp597
a(I5844
F0.0018391848054945114
tp598
a(I5845
F0.0018924494438017803
tp599
a(I5952
F0.001855666456109617
tp600
a(I5986
F0.0018346721283843692
tp601
a(I6244
F0.0018255000163459557
tp602
a(I6246
F0.001810482103568063
tp603
a(I6247
F0.0017944892659282629
tp604
a(I6271
F0.0017707977314260859
tp605
a(I6277
F0.0017289906438227832
tp606
a(I6278
F0.0016820137776907985
tp607
a(I6279
F0.001616132396290908
tp608
a(I6280
F0.0015320835457508508
tp609
a(I6281
F0.001435750545877852
tp610
a(I6329
F0.0013468719574241562
tp611
a(I6331
F0.0012639071758799502
tp612
a(I6332
F0.0011849179902937124
tp613
a(I6333
F0.0011302256815194766
tp614
a(I6350
F0.0010364476584418013
tp615
a(I6353
F0.00095206570319959381
tp616
a(I6354
F0.00087684355616886474
tp617
a(I6355
F0.00089187544466867057
tp618
a(I6356
F0.00091468905524536123
tp619
a(I6358
F0.00093195291812094179
tp620
a(I6399
F0.00087924436312803778
tp621
a(I6400
F0.00080406337870428499
tp622
a(I6401
F0.00071394129585243603
tp623
a(I6402
F0.00061895026205945666
tp624
a(I6405
F0.00059949003397903762
tp625
a(I6406
F0.00059528756771442203
tp626
a(I6407
F0.00057822388141644861
tp627
a(I6436
F0.00056826710823102648
tp628
a(I6437
F0.00055965668756513759
tp629
a(I6440
F0.0005602067299759028
tp630
a(I6441
F0.00056103276414205534
tp631
a(I6442
F0.00056474662488014359
tp632
a(I6443
F0.00056930914325448612
tp633
a(I6444
F0.00057456792262740915
tp634
a(I6445
F0.00058021994552305502
tp635
a(I6452
F0.00057503162757228661
tp636
a(I6453
F0.00057419927179111594
tp637
a(I6455
F0.000569970687407988
tp638
a(I6456
F0.00055892027667184155
tp639
a(I6457
F0.00056104638156242006
tp640
a(I6460
F0.00053986458901221111
tp641
a(I6461
F0.00050875991091572817
tp642
a(I6462
F0.00047016690480859323
tp643
a(I6465
F0.00041815309325784258
tp644
a(I6469
F0.00036490801725193479
tp645
a(I6470
F0.00036119869593591146
tp646
a(I6472
F0.00035328423338398807
tp647
a(I6473
F0.00033604446496141802
tp648
a(I6500
F0.00030395271432183792
tp649
a(I6501
F0.0003068812014339528
tp650
a(I6502
F0.00031139415150235552
tp651
a(I6516
F0.00032574405899097767
tp652
a(I6517
F0.00034124259068633476
tp653
a(I6518
F0.00036292868887329634
tp654
a(I6522
F0.00036182672077785585
tp655
a(I6523
F0.00036057270291820485
tp656
a(I6535
F0.00035434525676336648
tp657
a(I6536
F0.00035134952904584792
tp658
a(I6537
F0.00035252715755618169
tp659
a(I6562
F0.00033922035183081789
tp660
a(I6563
F0.00033823076890655558
tp661
a(I6564
F0.00033351777924053752
tp662
a(I6565
F0.00032848669123296758
tp663
a(I6566
F0.00032337271784157909
tp664
a(I6572
F0.00032326332523851419
tp665
a(I6573
F0.00032475528582324385
tp666
a(I6575
F0.00032428681394861767
tp667
a(I6576
F0.00032086878661544913
tp668
a(I6577
F0.0003229257252833406
tp669
a(I6580
F0.00032607189044853158
tp670
a(I6581
F0.00033202962277272262
tp671
a(I6582
F0.00033920421270266843
tp672
a(I6588
F0.00033064028427290284
tp673
a(I6607
F0.00034027398823113233
tp674
a(I6608
F0.00035009448025661525
tp675
a(I6609
F0.00035894190789832693
tp676
a(I6632
F0.00034980274793682041
tp677
a(I6633
F0.00033347650563626986
tp678
a(I6635
F0.00030883373630459233
tp679
a(I6636
F0.0003079855459998271
tp680
a(I6638
F0.00030634483452445237
tp681
a(I6646
F0.00030764242085226103
tp682
a(I6649
F0.00030101177327182429
tp683
a(I6650
F0.00028297129433696
tp684
a(I6653
F0.00028381650189061245
tp685
a(I6654
F0.00028429460641788752
tp686
a(I6655
F0.00028784052335410591
tp687
a(I6656
F0.000294841744109533
tp688
a(I6666
F0.00029805053604263775
tp689
a(I6667
F0.00029918873749821271
tp690
a(I6670
F0.00029678234623446541
tp691
a(I6671
F0.00029333102023613831
tp692
a(I6672
F0.00029434172364716459
tp693
a(I6678
F0.00028952642873804281
tp694
a(I6679
F0.0002858924228694093
tp695
a(I6684
F0.00027406729344235713
tp696
a(I6686
F0.00025958585728162118
tp697
a(I6687
F0.000262695000236306
tp698
a(I6688
F0.00025507003116416628
tp699
a(I6693
F0.00024692567728195057
tp700
a(I6694
F0.00024173131572581498
tp701
a(I6695
F0.00024949169810014384
tp702
a(I6702
F0.00024653372173489175
tp703
a(I6704
F0.00024849240872455881
tp704
a(I6705
F0.00025176351244979853
tp705
a(I6706
F0.00025363732092756661
tp706
a(I6707
F0.00025662235559011039
tp707
a(I6708
F0.0002660726225815324
tp708
a(I6709
F0.00028330260610687219
tp709
a(I6747
F0.00028668407287128159
tp710
a(I6748
F0.00029288849187537381
tp711
a(I6750
F0.00029982771939273789
tp712
a(I6764
F0.00029576350615911906
tp713
a(I6765
F0.00029850736394763542
tp714
a(I6767
F0.00030235064165850644
tp715
a(I6784
F0.00031064002831186597
tp716
a(I6786
F0.00030954941578869465
tp717
a(I6874
F0.00033541100261885503
tp718
a(I6878
F0.00033840171197908832
tp719
a(I6880
F0.00033945060590738762
tp720
a(I6881
F0.00034706020672558679
tp721
a(I6882
F0.00035676852946565419
tp722
a(I6884
F0.00037086763257747178
tp723
a(I6885
F0.00038609755712315063
tp724
a(I6887
F0.00040034699267977203
tp725
a(I6934
F0.00039522494832709752
tp726
a(I6947
F0.00038337835315090275
tp727
a(I6948
F0.00038230431653829555
tp728
a(I6949
F0.0003782677874671947
tp729
a(I6963
F0.00037225143573550669
tp730
a(I6965
F0.00036321458978861188
tp731
a(I6966
F0.00035282035174631686
tp732
a(I6967
F0.00034014513296128259
tp733
a(I6968
F0.0003265708405851342
tp734
asS'timeWindow'
p735
I10
sS'nnet'
p736
ccopy_reg
_reconstructor
p737
(cpyrobot.brain.conx
Network
p738
c__builtin__
object
p739
Ntp740
Rp741
(dp742
S'_sweeping'
p743
I0
sS'lastAutoSaveWeightsFilename'
p744
NsS'autoSaveWeightsFile'
p745
NsS'results'
p746
(lp747
sS'sharedWeights'
p748
I0
sS'connections'
p749
(lp750
(ipyrobot.brain.conx
Connection
p751
(dp752
S'wedLast'
p753
cNumeric
array_constructor
p754
((I14
I2
tp755
S'd'
p756
S'>]?Z\xa7\xfa%?TL\x08Q0H%?\x03Y\xddoL\xe3E?\xf1\xe8\xf6\t\x931E?w<\xb04-\x931?\x8f\xc3S\x01y\x041?\x8a\xc4X\x9a\xf1\xecG?\x94\xb68\x93\xac*G?\xcdxf\x87\xdb\xdfE?\x14rA\x12>.E?\x8b\xde\xb3\xdfLD\x00?o\xc1^\x92o\x80\xff>\xa3\xe2r\xb7\x08qG?\x14[\x12\xce\xb1\xb2F?\xed\\q\xa9\xd9\xe9-?\xcb\xa5\x0e\xd0\xf5\xf6,?V\xf3\xcf\r\xccxB?J\xdbDd\xcf\xe2A?\x1a~\xbf\x06\x92h6?\xf4\xbdv~\x9e\xb25?\x08g\x05%JAF?\x0f0\x02\x90\x95\x8cE?ru\xb8Z\x15\xccE?]8.u\x18\x1bE?\x8a\xb6h?>\xa2\x02?\xa0\xc5\xb7\r\xf1\n\x02?\xa3\xe2r\xb7\x08qG?\x14[\x12\xce\xb1\xb2F?'
p757
I1
tp758
Rp759
sS'weight'
p760
g754
((I14
I2
tp761
g756
S"\x84\xb4\x00\xb5h\xa5\xda?\xc5\xe2\r\xbb\xc7\x07\xd2?\x8f\xbexK\xfc\xc8\xe1?\xa5|\xc3\xbdB\x91\xe0?\xa85\xd5B\x9b\xd0\xe5?\x0f\x02\xadDQ\x88\xe4?\xb8p\xc7\x17O\xca\xe0?t\x82(59\xb1\xe5?$C\x1e\x86 b\xe3?\x86\xe1@\x08\x0e\x1d\xe2?M\x1a\n\xe0'\x00\xd2?\xf3J\x1e\x8aw\x17\xc1?\xeeO\xc2\x97\xb3\xa9\xe3?\xe6\xd0\x1a\\\xde]\xe2?\xe86\xdei\xf4C\xdd?f*\xc6L\x80\xf3\xd3?\xe5W\xb5\x9d\xe7\\\xe1?B\xa0\x10\x1b\x9a\xfa\xe1?\xad\xc2\xackCa\xe8?\xd3\xfb\xf9\xfav\xc1\xea?`\xea'\x8d\xfd\xb0\xe3?\xe2\xf1\x92\xeeT\x14\xde?\xc9\xcck\x1d\xa7\xb8\xe1?3\xe7\xeb\x93\xe0F\xe0?\xdf=\x87q\x81#\xcb?\x07\xf6\xf5\x00\xc6\xd9\xd0?\xe6\xa5\x8c\x0f~J\xe1?\xb9\xfaJM\xa3\xed\xe5?"
p762
I1
tp763
Rp764
sS'wed'
p765
g754
((I14
I2
tp766
g756
S'\x00\x00\x00\x00\x00\x00\x00\x00\x00\x00\x00\x00\x00\x00\x00\x00\x00\x00\x00\x00\x00\x00\x00\x00\x00\x00\x00\x00\x00\x00\x00\x00\x00\x00\x00\x00\x00\x00\x00\x00\x00\x00\x00\x00\x00\x00\x00\x00\x00\x00\x00\x00\x00\x00\x00\x00\x00\x00\x00\x00\x00\x00\x00\x00\x00\x00\x00\x00\x00\x00\x00\x00\x00\x00\x00\x00\x00\x00\x00\x00\x00\x00\x00\x00\x00\x00\x00\x00\x00\x00\x00\x00\x00\x00\x00\x00\x00\x00\x00\x00\x00\x00\x00\x00\x00\x00\x00\x00\x00\x00\x00\x00\x00\x00\x00\x00\x00\x00\x00\x00\x00\x00\x00\x00\x00\x00\x00\x00\x00\x00\x00\x00\x00\x00\x00\x00\x00\x00\x00\x00\x00\x00\x00\x00\x00\x00\x00\x00\x00\x00\x00\x00\x00\x00\x00\x00\x00\x00\x00\x00\x00\x00\x00\x00\x00\x00\x00\x00\x00\x00\x00\x00\x00\x00\x00\x00\x00\x00\x00\x00\x00\x00\x00\x00\x00\x00\x00\x00\x00\x00\x00\x00\x00\x00\x00\x00\x00\x00\x00\x00\x00\x00\x00\x00\x00\x00\x00\x00\x00\x00\x00\x00\x00\x00\x00\x00\x00\x00\x00\x00\x00\x00\x00\x00'
p767
I1
tp768
Rp769
sS'frozen'
p770
I0
sS'fromLayer'
p771
(ipyrobot.brain.conx
Layer
p772
(dp774
g760
g754
((I14
tp775
g756
S'$MdG\xf8[\xae\xbfO\x9dZ6Z\x8a\xb8\xbf0\xceI<\x1e\xf3\xa7?\xd4\xd7{O\xf8\xaa\x91?\x80\xc3\xd0\xffi\x95\\?\x00\xb5y^\x13\xca\xb0\xbf\xe0k\xe0X4\xa7t?^\x0c.N\xbd0\xb0?zzs\xfe4\x99\xb1\xbfX\r/e\x91R\x81?\xc7,\xf0c\xbd\xb4\xb7\xbf\xd8\xa3\xcab\xae]\x8b? \xb3\xb5!\x82x|\xbf\xc0aI=}\xcf\xb7?'
p776
I1
tp777
Rp778
sS'maxTarget'
p779
F1.0
sS'displayWidth'
p780
I14
sS'size'
p781
I14
sS'log'
p782
I0
sg765
g754
((I14
tp783
S'f'
p784
S'\x00\x00\x00\x00\x00\x00\x00\x00\x00\x00\x00\x00\x00\x00\x00\x00\x00\x00\x00\x00\x00\x00\x00\x00\x00\x00\x00\x00\x00\x00\x00\x00\x00\x00\x00\x00\x00\x00\x00\x00\x00\x00\x00\x00\x00\x00\x00\x00\x00\x00\x00\x00\x00\x00\x00\x00'
p785
I1
tp786
Rp787
sS'ptotal'
p788
I0
sS'_verbosity'
p789
I0
sS'activationSet'
p790
I0
sS'minTarget'
p791
F0.0
sS'minActivation'
p792
F0.0
sS'netinput'
p793
g754
((I14
tp794
g784
S'\x00\x00\x00\x00\x00\x00\x00\x00\x00\x00\x00\x00\x00\x00\x00\x00\x00\x00\x00\x00\x00\x00\x00\x00\x00\x00\x00\x00\x00\x00\x00\x00\x00\x00\x00\x00\x00\x00\x00\x00\x00\x00\x00\x00\x00\x00\x00\x00\x00\x00\x00\x00\x00\x00\x00\x00'
p795
I1
tp796
Rp797
sS'type'
p798
S'Input'
p799
sS'correct'
p800
I0
sS'maxActivation'
p801
F1.0
sS'activation'
p802
g754
((I14
tp803
g756
S'0\x9e\xb2\xd29\x1a\xc4?\xe0\x92\xb7i\xdd\x04\xe4?\xcd3\xb5\x7f\x04\x13\xd0?\x9de\xc8B\xf8\xe1\xe5?\x8a\x9cy\xb8\xb7\x01\xe4?f\x7f/\nx\xc1\x9d?q=\n\xd7\xa3p\xe5?\xd6n\x12x\xfd[\xcb?\xfd\x0b\x0f7\x08\xe5\xe0?\x1a\xbbf\xe5\xc1~\xd4?\xfb\xdc\xf2\xa0\xd4Z\xe4?\xfd\x86\xb9\xc6\xa1\xef\xe3?\x1a\x05\x05w\xf0\n\xa1?q=\n\xd7\xa3p\xe5?'
p804
I1
tp805
Rp806
sS'error'
p807
g754
((I14
tp808
g756
S'\x1c\xd22+\x06\xec\xeb?\xd7Y\xf7~\xd8\xe5\xf3?\xde<b\xa8\xb4\\\xf9?\xba\n~\x87\xf3>\xf5?\xa5bM\xb3\x80!\xf6?rdo\xf5\x94\xb4\xdc?\x1a\x8bw\xa6Q,\xf6?TA\x84d\xe9\x8c\xed?x\x19\x00\xd4\xf3&\xf5?NS\xfb\xc4\xe6<\x00@N\xfc\xb2\x81\x8e-\xf2?\x95hb37r\xf2?\xbb \x9b@\xcfj\xe2?I\xed\x92Q\xb9/\xf7?'
p809
I1
tp810
Rp811
sS'kind'
p812
g799
sS'delta'
p813
g754
((I14
tp814
g784
S'\x00\x00\x00\x00\x00\x00\x00\x00\x00\x00\x00\x00\x00\x00\x00\x00\x00\x00\x00\x00\x00\x00\x00\x00\x00\x00\x00\x00\x00\x00\x00\x00\x00\x00\x00\x00\x00\x00\x00\x00\x00\x00\x00\x00\x00\x00\x00\x00\x00\x00\x00\x00\x00\x00\x00\x00'
p815
I1
tp816
Rp817
sS'active'
p818
I1
sS'targetSet'
p819
I0
sg381
S'input'
p820
sS'_maxRandom'
p821
F0.10000000000000001
sS'pcorrect'
p822
I0
sg753
g754
((I14
tp823
g784
S'\x00\x00\x00\x00\x00\x00\x00\x00\x00\x00\x00\x00\x00\x00\x00\x00\x00\x00\x00\x00\x00\x00\x00\x00\x00\x00\x00\x00\x00\x00\x00\x00\x00\x00\x00\x00\x00\x00\x00\x00\x00\x00\x00\x00\x00\x00\x00\x00\x00\x00\x00\x00\x00\x00\x00\x00'
p824
I1
tp825
Rp826
sS'target'
p827
g754
((I14
tp828
g784
S'\x00\x00\x00\x00\x00\x00\x00\x00\x00\x00\x00\x00\x00\x00\x00\x00\x00\x00\x00\x00\x00\x00\x00\x00\x00\x00\x00\x00\x00\x00\x00\x00\x00\x00\x00\x00\x00\x00\x00\x00\x00\x00\x00\x00\x00\x00\x00\x00\x00\x00\x00\x00\x00\x00\x00\x00'
p829
I1
tp830
Rp831
sg770
I0
sS'dweight'
p832
g754
((I14
tp833
g784
S'\x00\x00\x00\x00\x00\x00\x00\x00\x00\x00\x00\x00\x00\x00\x00\x00\x00\x00\x00\x00\x00\x00\x00\x00\x00\x00\x00\x00\x00\x00\x00\x00\x00\x00\x00\x00\x00\x00\x00\x00\x00\x00\x00\x00\x00\x00\x00\x00\x00\x00\x00\x00\x00\x00\x00\x00'
p834
I1
tp835
Rp836
sS'verify'
p837
I1
sS'logFile'
p838
S''
p839
sS'patternReport'
p840
I0
sbsS'toLayer'
p841
(ipyrobot.brain.conx
Layer
p842
(dp843
g760
g754
((I2
tp844
g756
S'\xc8\x91\xdav\xefa\xf2?\t\xad\x0e\x06\xa0D\xf3?'
p845
I1
tp846
Rp847
sg779
F1.0
sg780
I2
sg781
I2
sg782
I0
sg765
g754
((I2
tp848
g756
S'\x00\x00\x00\x00\x00\x00\x00\x00\x00\x00\x00\x00\x00\x00\x00\x00'
p849
I1
tp850
Rp851
sg788
I0
sg789
I0
sg790
I0
sg791
F0.0
sg792
F0.0
sg793
g754
((I2
tp852
g756
S'\x942\x8c4\xd7|\x12@#\xdb\x86q\x86\x9b\x12@'
p853
I1
tp854
Rp855
sg798
S'Output'
p856
sg800
I0
sg801
F1.0
sg802
g754
((I2
tp857
g784
S'\xcc\x81}?v\x94}?'
p858
I1
tp859
Rp860
sg807
(lp861
F0.0097382068634033203
aF0.0094534158706665039
asg812
g856
sg813
g754
((I2
tp862
g756
S'O\xa5\xd74b~Q?nO\xeb\xd6V\xf0P?'
p863
I1
tp864
Rp865
sg818
I1
sg819
I0
sg381
S'output'
p866
sg821
F0.10000000000000001
sg822
I0
sg753
g754
((I2
tp867
g756
S'O\xa5\xd74b~Q?nO\xeb\xd6V\xf0P?'
p868
I1
tp869
Rp870
sg827
g754
((I2
tp871
S'l'
p872
S'\x01\x00\x00\x00\x00\x00\x00\x00\x01\x00\x00\x00\x00\x00\x00\x00'
p873
I1
tp874
Rp875
sg770
I0
sg832
g754
((I2
tp876
g756
S'O\xa5\xd74b~A?nO\xeb\xd6V\xf0@?'
p877
I1
tp878
Rp879
sg837
I1
sg838
g839
sg840
I1
sbsg832
g754
((I14
I2
tp880
g756
S'>]?Z\xa7\xfa\x15?TL\x08Q0H\x15?\x03Y\xddoL\xe35?\xf1\xe8\xf6\t\x9315?w<\xb04-\x93!?\x8f\xc3S\x01y\x04!?\x8a\xc4X\x9a\xf1\xec7?\x94\xb68\x93\xac*7?\xcdxf\x87\xdb\xdf5?\x14rA\x12>.5?\x8b\xde\xb3\xdfLD\xf0>o\xc1^\x92o\x80\xef>\xa3\xe2r\xb7\x08q7?\x14[\x12\xce\xb1\xb26?\xed\\q\xa9\xd9\xe9\x1d?\xcb\xa5\x0e\xd0\xf5\xf6\x1c?V\xf3\xcf\r\xccx2?J\xdbDd\xcf\xe21?\x1a~\xbf\x06\x92h&?\xf4\xbdv~\x9e\xb2%?\x08g\x05%JA6?\x0f0\x02\x90\x95\x8c5?ru\xb8Z\x15\xcc5?]8.u\x18\x1b5?\x8a\xb6h?>\xa2\xf2>\xa0\xc5\xb7\r\xf1\n\xf2>\xa3\xe2r\xb7\x08q7?\x14[\x12\xce\xb1\xb26?'
p881
I1
tp882
Rp883
sg818
I1
sbasS'autoSaveNetworkFile'
p884
NsS'hyperbolicError'
p885
I0
sS'seed'
p886
F1336781173.4500294
sS'learning'
p887
I1
sS'autoSaveNetworkFileFormat'
p888
S'conx'
p889
sS'sigmoid_prime_offset'
p890
F0.10000000000000001
sS'targets'
p891
(lp892
sS'targetMap'
p893
(lp894
sS'layers'
p895
(lp896
g772
ag842
asS'mu'
p897
F1.75
sg782
NsS'resetEpoch'
p898
I1
sS'decay'
p899
F0.0
sS'crossValidationCorpus'
p900
(tsS'layersByName'
p901
(dp902
g820
g772
sg866
g842
ssS'autoCrossValidation'
p903
I0
sS'epoch'
p904
I0
sS'totalEpoch'
p905
I0
sS'crossValidationReportLayers'
p906
(lp907
sS'crossValidationSampleRate'
p908
I0
sS'saveResults'
p909
I0
sS'tolerance'
p910
F0.40000000000000002
sS'momentum'
p911
I0
sS'_quickprop'
p912
I0
sg2
(lp913
sS'lastAutoSaveNetworkFilename'
p914
NsS'complete'
p915
I0
sS'epsilon'
p916
F0.5
sS'splitEpsilon'
p917
I0
sS'_cv'
p918
I00
sS'orderedInputs'
p919
I0
sS'cacheLayers'
p920
(lp921
sg821
F0.10000000000000001
sS'echo'
p922
I00
sS'stopPercent'
p923
F1.0
sS'autoSaveWeightsFileFormat'
p924
g889
sg789
I0
sS'cacheConnections'
p925
(lp926
sS'association'
p927
(lp928
sg381
S'Backprop Network'
p929
sS'count'
p930
I750
sS'patterned'
p931
I0
sS'crossValidationSampleFile'
p932
S'sample.cv'
p933
sS'inputMap'
p934
(lp935
sS'currentSweepCount'
p936
NsS'resetCount'
p937
I1
sS'batch'
p938
I0
sS'lastLowestTSSError'
p939
I9223372036854775807
sS'patterns'
p940
(dp941
sS'reportRate'
p942
I25
sS'resetLimit'
p943
I1
sS'loadOrder'
p944
(lp945
sS'useCrossValidationToStop'
p946
I0
sS'sweepReportRate'
p947
NsS'interactive'
p948
I0
sbsS'targetVectorSize'
p949
I2
sS'smoothing'
p950
I15
sS'inputVectorSize'
p951
I14
sg891
(lp952
(lp953
I1
aI1
aa(lp954
I1
aI1
aa(lp955
I1
aI1
aa(lp956
I1
aI1
aa(lp957
I1
aI1
aa(lp958
I1
aI1
aa(lp959
I1
aI1
aa(lp960
I1
aI1
aa(lp961
I1
aI1
aa(lp962
I1
aI1
aa(lp963
I1
aI1
aa(lp964
I1
aI1
aa(lp965
I1
aI1
aa(lp966
I1
aI1
aa(lp967
I1
aI1
aa(lp968
I1
aI1
aa(lp969
I1
aI1
aa(lp970
I1
aI1
aa(lp971
I1
aI1
aa(lp972
I1
aI1
aa(lp973
I1
aI1
aa(lp974
I1
aI1
aa(lp975
I1
aI1
aa(lp976
I1
aI1
aa(lp977
I1
aI1
aa(lp978
I1
aI1
aa(lp979
I1
aI1
aa(lp980
I1
aI1
aa(lp981
I1
aI1
aa(lp982
I1
aI1
aa(lp983
I1
aI1
aa(lp984
I1
aI1
aa(lp985
I1
aI1
aa(lp986
I1
aI1
aa(lp987
I1
aI1
aa(lp988
I1
aI1
aa(lp989
I1
aI1
aa(lp990
I1
aI1
aa(lp991
I1
aI1
aa(lp992
I1
aI1
aa(lp993
I1
aI1
aa(lp994
I1
aI1
aa(lp995
I1
aI1
aa(lp996
I1
aI1
aa(lp997
I1
aI1
aa(lp998
I1
aI1
aa(lp999
I1
aI1
aa(lp1000
I1
aI1
aa(lp1001
I1
aI1
aa(lp1002
I1
aI1
aa(lp1003
I1
aI1
aa(lp1004
I1
aI1
aa(lp1005
I1
aI1
aa(lp1006
I1
aI1
aa(lp1007
I1
aI1
aa(lp1008
I1
aI1
aa(lp1009
I1
aI1
aa(lp1010
I1
aI1
aa(lp1011
I1
aI1
aa(lp1012
I1
aI1
aa(lp1013
I1
aI1
aa(lp1014
I1
aI1
aa(lp1015
I1
aI1
aa(lp1016
I1
aI1
aa(lp1017
I1
aI1
aa(lp1018
I1
aI1
aa(lp1019
I1
aI1
aa(lp1020
I1
aI1
aa(lp1021
I1
aI1
aa(lp1022
I1
aI1
aa(lp1023
I1
aI1
aa(lp1024
I1
aI1
aa(lp1025
I1
aI1
aa(lp1026
I1
aI1
aa(lp1027
I1
aI1
aa(lp1028
I1
aI1
aa(lp1029
I1
aI1
aa(lp1030
I1
aI1
aa(lp1031
I1
aI1
aa(lp1032
I1
aI1
aa(lp1033
I1
aI1
aa(lp1034
I1
aI1
aa(lp1035
I1
aI1
aa(lp1036
I1
aI1
aa(lp1037
I1
aI1
aa(lp1038
I1
aI1
aa(lp1039
I1
aI1
aa(lp1040
I1
aI1
aa(lp1041
I1
aI1
aa(lp1042
I1
aI1
aa(lp1043
I1
aI1
aa(lp1044
I1
aI1
aa(lp1045
I1
aI1
aa(lp1046
I1
aI1
aa(lp1047
I1
aI1
aa(lp1048
I1
aI1
aa(lp1049
I1
aI1
aa(lp1050
I1
aI1
aa(lp1051
I1
aI1
aa(lp1052
I1
aI1
aa(lp1053
I1
aI1
aa(lp1054
I1
aI1
aa(lp1055
I1
aI1
aa(lp1056
I1
aI1
aa(lp1057
I1
aI1
aa(lp1058
I1
aI1
aa(lp1059
I1
aI1
aa(lp1060
I1
aI1
aa(lp1061
I1
aI1
aa(lp1062
I1
aI1
aa(lp1063
I1
aI1
aa(lp1064
I1
aI1
aa(lp1065
I1
aI1
aa(lp1066
I1
aI1
aa(lp1067
I1
aI1
aa(lp1068
I1
aI1
aa(lp1069
I1
aI1
aa(lp1070
I1
aI1
aa(lp1071
I1
aI1
aa(lp1072
I1
aI1
aa(lp1073
I1
aI1
aa(lp1074
I1
aI1
aa(lp1075
I1
aI1
aa(lp1076
I1
aI1
aa(lp1077
I1
aI1
aa(lp1078
I1
aI1
aa(lp1079
I1
aI1
aa(lp1080
I1
aI1
aa(lp1081
I1
aI1
aa(lp1082
I1
aI1
aa(lp1083
I1
aI1
aa(lp1084
I1
aI1
aa(lp1085
I1
aI1
aa(lp1086
I1
aI1
aa(lp1087
I1
aI1
aa(lp1088
I1
aI1
aa(lp1089
I1
aI1
aa(lp1090
I1
aI1
aa(lp1091
I1
aI1
aa(lp1092
I1
aI1
aa(lp1093
I1
aI1
aa(lp1094
I1
aI1
aa(lp1095
I1
aI1
aa(lp1096
I1
aI1
aa(lp1097
I1
aI1
aa(lp1098
I1
aI1
aa(lp1099
I1
aI1
aa(lp1100
I1
aI1
aa(lp1101
I1
aI1
aa(lp1102
I1
aI1
aa(lp1103
I1
aI1
aa(lp1104
I1
aI1
aa(lp1105
I1
aI1
aa(lp1106
I1
aI1
aa(lp1107
I1
aI1
aa(lp1108
I1
aI1
aa(lp1109
I1
aI1
aa(lp1110
I1
aI1
aa(lp1111
I1
aI1
aa(lp1112
I1
aI1
aa(lp1113
I1
aI1
aa(lp1114
I1
aI1
aa(lp1115
I1
aI1
aa(lp1116
I1
aI1
aa(lp1117
I1
aI1
aa(lp1118
I1
aI1
aa(lp1119
I1
aI1
aa(lp1120
I1
aI1
aa(lp1121
I1
aI1
aa(lp1122
I1
aI1
aa(lp1123
I1
aI1
aa(lp1124
I1
aI1
aa(lp1125
I1
aI1
aa(lp1126
I1
aI1
aa(lp1127
I1
aI1
aa(lp1128
I1
aI1
aa(lp1129
I1
aI1
aa(lp1130
I1
aI1
aa(lp1131
I1
aI1
aa(lp1132
I1
aI1
aa(lp1133
I1
aI1
aa(lp1134
I1
aI1
aa(lp1135
I1
aI1
aa(lp1136
I1
aI1
aa(lp1137
I1
aI1
aa(lp1138
I1
aI1
aa(lp1139
I1
aI1
aa(lp1140
I1
aI1
aa(lp1141
I1
aI1
aa(lp1142
I1
aI1
aa(lp1143
I1
aI1
aa(lp1144
I1
aI1
aa(lp1145
I1
aI1
aa(lp1146
I1
aI1
aa(lp1147
I1
aI1
aa(lp1148
I1
aI1
aa(lp1149
I1
aI1
aa(lp1150
I1
aI1
aa(lp1151
I1
aI1
aa(lp1152
I1
aI1
aa(lp1153
I1
aI1
aa(lp1154
I1
aI1
aa(lp1155
I1
aI1
aa(lp1156
I1
aI1
aa(lp1157
I1
aI1
aa(lp1158
I1
aI1
aa(lp1159
I1
aI1
aa(lp1160
I1
aI1
aa(lp1161
I1
aI1
aa(lp1162
I1
aI1
aa(lp1163
I1
aI1
aa(lp1164
I1
aI1
aa(lp1165
I1
aI1
aa(lp1166
I1
aI1
aa(lp1167
I1
aI1
aa(lp1168
I1
aI1
aa(lp1169
I1
aI1
aa(lp1170
I1
aI1
aa(lp1171
I1
aI1
aa(lp1172
I1
aI1
aa(lp1173
I1
aI1
aa(lp1174
I1
aI1
aa(lp1175
I1
aI1
aa(lp1176
I1
aI1
aa(lp1177
I1
aI1
aa(lp1178
I1
aI1
aa(lp1179
I1
aI1
aa(lp1180
I1
aI1
aa(lp1181
I1
aI1
aa(lp1182
I1
aI1
aa(lp1183
I1
aI1
aa(lp1184
I1
aI1
aa(lp1185
I1
aI1
aa(lp1186
I1
aI1
aa(lp1187
I1
aI1
aa(lp1188
I1
aI1
aa(lp1189
I1
aI1
aa(lp1190
I1
aI1
aa(lp1191
I1
aI1
aa(lp1192
I1
aI1
aa(lp1193
I1
aI1
aa(lp1194
I1
aI1
aa(lp1195
I1
aI1
aa(lp1196
I1
aI1
aa(lp1197
I1
aI1
aa(lp1198
I1
aI1
aa(lp1199
I1
aI1
aa(lp1200
I1
aI1
aa(lp1201
I1
aI1
aa(lp1202
I1
aI1
aa(lp1203
I1
aI1
aa(lp1204
I1
aI1
aa(lp1205
I1
aI1
aa(lp1206
I1
aI1
aa(lp1207
I1
aI1
aa(lp1208
I1
aI1
aa(lp1209
I1
aI1
aa(lp1210
I1
aI1
aa(lp1211
I1
aI1
aa(lp1212
I1
aI1
aa(lp1213
I1
aI1
aa(lp1214
I1
aI1
aa(lp1215
I1
aI1
aa(lp1216
I1
aI1
aa(lp1217
I1
aI1
aa(lp1218
I1
aI1
aa(lp1219
I1
aI1
aa(lp1220
I1
aI1
aa(lp1221
I1
aI1
aa(lp1222
I1
aI1
aa(lp1223
I1
aI1
aa(lp1224
I1
aI1
aa(lp1225
I1
aI1
aa(lp1226
I1
aI1
aa(lp1227
I1
aI1
aa(lp1228
I1
aI1
aa(lp1229
I1
aI1
aa(lp1230
I1
aI1
aa(lp1231
I1
aI1
aa(lp1232
I1
aI1
aa(lp1233
I1
aI1
aa(lp1234
I1
aI1
aa(lp1235
I1
aI1
aa(lp1236
I1
aI1
aa(lp1237
I1
aI1
aa(lp1238
I1
aI1
aa(lp1239
I1
aI1
aa(lp1240
I1
aI1
aa(lp1241
I1
aI1
aa(lp1242
I1
aI1
aa(lp1243
I1
aI1
aa(lp1244
I1
aI1
aa(lp1245
I1
aI1
aa(lp1246
I1
aI1
aa(lp1247
I1
aI1
aa(lp1248
I1
aI1
aa(lp1249
I1
aI1
aa(lp1250
I1
aI1
aa(lp1251
I1
aI1
aa(lp1252
I1
aI1
aa(lp1253
I1
aI1
aa(lp1254
I1
aI1
aa(lp1255
I1
aI1
aa(lp1256
I1
aI1
aa(lp1257
I1
aI1
aa(lp1258
I1
aI1
aa(lp1259
I1
aI1
aa(lp1260
I1
aI1
aa(lp1261
I1
aI1
aa(lp1262
I1
aI1
aa(lp1263
I1
aI1
aa(lp1264
I1
aI1
aa(lp1265
I1
aI1
aa(lp1266
I1
aI1
aa(lp1267
I1
aI1
aa(lp1268
I1
aI1
aa(lp1269
I1
aI1
aa(lp1270
I1
aI1
aa(lp1271
I1
aI1
aa(lp1272
I1
aI1
aa(lp1273
I1
aI1
aa(lp1274
I1
aI1
aa(lp1275
I1
aI1
aa(lp1276
I1
aI1
aa(lp1277
I1
aI1
aa(lp1278
I1
aI1
aa(lp1279
I1
aI1
aa(lp1280
I1
aI1
aa(lp1281
I1
aI1
aa(lp1282
I1
aI1
aa(lp1283
I1
aI1
aa(lp1284
I1
aI1
aa(lp1285
I1
aI1
aa(lp1286
I1
aI1
aa(lp1287
I1
aI1
aa(lp1288
I1
aI1
aa(lp1289
I1
aI1
aa(lp1290
I1
aI1
aa(lp1291
I1
aI1
aa(lp1292
I1
aI1
aa(lp1293
I1
aI1
aa(lp1294
I1
aI1
aa(lp1295
I1
aI1
aa(lp1296
I1
aI1
aa(lp1297
I1
aI1
aa(lp1298
I1
aI1
aa(lp1299
I1
aI1
aa(lp1300
I1
aI1
aa(lp1301
I1
aI1
aa(lp1302
I1
aI1
aa(lp1303
I1
aI1
aa(lp1304
I1
aI1
aa(lp1305
I1
aI1
aa(lp1306
I1
aI1
aa(lp1307
I1
aI1
aa(lp1308
I1
aI1
aa(lp1309
I1
aI1
aa(lp1310
I1
aI1
aa(lp1311
I1
aI1
aa(lp1312
I1
aI1
aa(lp1313
I1
aI1
aa(lp1314
I1
aI1
aa(lp1315
I1
aI1
aa(lp1316
I1
aI1
aa(lp1317
I1
aI1
aa(lp1318
I1
aI1
aa(lp1319
I1
aI1
aa(lp1320
I1
aI1
aa(lp1321
I1
aI1
aa(lp1322
I1
aI1
aa(lp1323
I1
aI1
aa(lp1324
I1
aI1
aa(lp1325
I1
aI1
aa(lp1326
I1
aI1
aa(lp1327
I1
aI1
aasb.